
SD_Test.elf:     file format elf32-littlenios2
SD_Test.elf
architecture: nios2:r1, flags 0x00000112:
EXEC_P, HAS_SYMS, D_PAGED
start address 0x00000244

Program Header:
    LOAD off    0x00001000 vaddr 0x00000000 paddr 0x00000000 align 2**12
         filesz 0x00000020 memsz 0x00000020 flags r-x
    LOAD off    0x00001020 vaddr 0x00000020 paddr 0x00000020 align 2**12
         filesz 0x00021110 memsz 0x00021110 flags r-x
    LOAD off    0x00022130 vaddr 0x00021130 paddr 0x00023028 align 2**12
         filesz 0x00001ef8 memsz 0x00001ef8 flags rw-
    LOAD off    0x00024f20 vaddr 0x00024f20 paddr 0x00024f20 align 2**12
         filesz 0x00000000 memsz 0x000039e8 flags rw-

Sections:
Idx Name          Size      VMA       LMA       File off  Algn
  0 .entry        00000020  00000000  00000000  00001000  2**5
                  CONTENTS, ALLOC, LOAD, READONLY, CODE
  1 .exceptions   00000224  00000020  00000020  00001020  2**2
                  CONTENTS, ALLOC, LOAD, READONLY, CODE
  2 .text         000207e4  00000244  00000244  00001244  2**2
                  CONTENTS, ALLOC, LOAD, READONLY, CODE
  3 .rodata       00000708  00020a28  00020a28  00021a28  2**2
                  CONTENTS, ALLOC, LOAD, READONLY, DATA
  4 .rwdata       00001ef8  00021130  00023028  00022130  2**2
                  CONTENTS, ALLOC, LOAD, DATA, SMALL_DATA
  5 .bss          000039e8  00024f20  00024f20  00024f20  2**2
                  ALLOC, SMALL_DATA
  6 .SDRAM        00000000  00028908  00028908  00024028  2**0
                  CONTENTS
  7 .Flash_flash_data 00000000  0c000000  0c000000  00024028  2**0
                  CONTENTS
  8 .comment      00000023  00000000  00000000  00024028  2**0
                  CONTENTS, READONLY
  9 .debug_aranges 000011d0  00000000  00000000  00024050  2**3
                  CONTENTS, READONLY, DEBUGGING
 10 .debug_info   000353d3  00000000  00000000  00025220  2**0
                  CONTENTS, READONLY, DEBUGGING
 11 .debug_abbrev 0000c136  00000000  00000000  0005a5f3  2**0
                  CONTENTS, READONLY, DEBUGGING
 12 .debug_line   00010a39  00000000  00000000  00066729  2**0
                  CONTENTS, READONLY, DEBUGGING
 13 .debug_frame  000040a8  00000000  00000000  00077164  2**2
                  CONTENTS, READONLY, DEBUGGING
 14 .debug_str    00005eb7  00000000  00000000  0007b20c  2**0
                  CONTENTS, READONLY, DEBUGGING
 15 .debug_loc    0001b5ab  00000000  00000000  000810c3  2**0
                  CONTENTS, READONLY, DEBUGGING
 16 .debug_alt_sim_info 00000020  00000000  00000000  0009c670  2**2
                  CONTENTS, READONLY, DEBUGGING
 17 .debug_ranges 00001a70  00000000  00000000  0009c690  2**3
                  CONTENTS, READONLY, DEBUGGING
 18 .thread_model 00000006  00000000  00000000  000a4190  2**0
                  CONTENTS, READONLY
 19 .cpu          00000005  00000000  00000000  000a4196  2**0
                  CONTENTS, READONLY
 20 .qsys         00000001  00000000  00000000  000a419b  2**0
                  CONTENTS, READONLY
 21 .simulation_enabled 00000001  00000000  00000000  000a419c  2**0
                  CONTENTS, READONLY
 22 .sysid_hash   00000004  00000000  00000000  000a419d  2**0
                  CONTENTS, READONLY
 23 .sysid_base   00000004  00000000  00000000  000a41a1  2**0
                  CONTENTS, READONLY
 24 .sysid_time   00000004  00000000  00000000  000a41a5  2**0
                  CONTENTS, READONLY
 25 .stderr_dev   00000009  00000000  00000000  000a41a9  2**0
                  CONTENTS, READONLY
 26 .stdin_dev    00000009  00000000  00000000  000a41b2  2**0
                  CONTENTS, READONLY
 27 .stdout_dev   00000009  00000000  00000000  000a41bb  2**0
                  CONTENTS, READONLY
 28 .sopc_system_name 0000000b  00000000  00000000  000a41c4  2**0
                  CONTENTS, READONLY
 29 .quartus_project_dir 0000005e  00000000  00000000  000a41cf  2**0
                  CONTENTS, READONLY
 30 .jdi          0000abc5  00000000  00000000  000a422d  2**0
                  CONTENTS, READONLY
 31 .sopcinfo     001878b7  00000000  00000000  000aedf2  2**0
                  CONTENTS, READONLY
SYMBOL TABLE:
00000000 l    d  .entry	00000000 .entry
00000020 l    d  .exceptions	00000000 .exceptions
00000244 l    d  .text	00000000 .text
00020a28 l    d  .rodata	00000000 .rodata
00021130 l    d  .rwdata	00000000 .rwdata
00024f20 l    d  .bss	00000000 .bss
00028908 l    d  .SDRAM	00000000 .SDRAM
0c000000 l    d  .Flash_flash_data	00000000 .Flash_flash_data
00000000 l    d  .comment	00000000 .comment
00000000 l    d  .debug_aranges	00000000 .debug_aranges
00000000 l    d  .debug_info	00000000 .debug_info
00000000 l    d  .debug_abbrev	00000000 .debug_abbrev
00000000 l    d  .debug_line	00000000 .debug_line
00000000 l    d  .debug_frame	00000000 .debug_frame
00000000 l    d  .debug_str	00000000 .debug_str
00000000 l    d  .debug_loc	00000000 .debug_loc
00000000 l    d  .debug_alt_sim_info	00000000 .debug_alt_sim_info
00000000 l    d  .debug_ranges	00000000 .debug_ranges
00000000 l    df *ABS*	00000000 C:/Users/rickert/Documents/GitHub/KBS_ESA_PAINGAME/SD_Test_bsp//obj/HAL/src/crt0.o
0000027c l       .text	00000000 alt_after_alt_main
00000000 l    df *ABS*	00000000 alt_irq_handler.c
00000000 l    df *ABS*	00000000 alt_instruction_exception_entry.c
00000000 l    df *ABS*	00000000 hello_ucosii.c
00000000 l    df *ABS*	00000000 printf.c
00000000 l    df *ABS*	00000000 putchar.c
00000000 l    df *ABS*	00000000 puts.c
00000000 l    df *ABS*	00000000 sprintf.c
00000000 l    df *ABS*	00000000 strcat.c
00000000 l    df *ABS*	00000000 strcpy.c
00000000 l    df *ABS*	00000000 strlen.c
00000000 l    df *ABS*	00000000 vfprintf.c
00020b7e l     O .rodata	00000010 zeroes.4240
00020b8e l     O .rodata	00000010 blanks.4239
00000000 l    df *ABS*	00000000 vfprintf.c
00020b9e l     O .rodata	00000010 zeroes.4255
00004b44 l     F .text	000000bc __sbprintf
00020bae l     O .rodata	00000010 blanks.4254
00000000 l    df *ABS*	00000000 wsetup.c
00000000 l    df *ABS*	00000000 dtoa.c
00004d54 l     F .text	00000200 quorem
00000000 l    df *ABS*	00000000 fflush.c
00000000 l    df *ABS*	00000000 findfp.c
00006910 l     F .text	00000008 __fp_lock
00006918 l     F .text	00000008 __fp_unlock
0000692c l     F .text	0000019c __sinit.part.1
00000000 l    df *ABS*	00000000 mallocr.c
00000000 l    df *ABS*	00000000 fvwrite.c
00000000 l    df *ABS*	00000000 fwalk.c
00000000 l    df *ABS*	00000000 impure.c
00021130 l     O .rwdata	00000424 impure_data
00000000 l    df *ABS*	00000000 locale.c
00021574 l     O .rwdata	00000020 lc_ctype_charset
00021554 l     O .rwdata	00000020 lc_message_charset
00021594 l     O .rwdata	00000038 lconv
00000000 l    df *ABS*	00000000 makebuf.c
00000000 l    df *ABS*	00000000 mallocr.c
00000000 l    df *ABS*	00000000 memchr.c
00000000 l    df *ABS*	00000000 memcpy.c
00000000 l    df *ABS*	00000000 memmove.c
00000000 l    df *ABS*	00000000 memset.c
00000000 l    df *ABS*	00000000 mprec.c
00020be0 l     O .rodata	0000000c p05.2710
00000000 l    df *ABS*	00000000 putc.c
00000000 l    df *ABS*	00000000 mallocr.c
00000000 l    df *ABS*	00000000 s_fpclassify.c
00000000 l    df *ABS*	00000000 sbrkr.c
00000000 l    df *ABS*	00000000 stdio.c
00000000 l    df *ABS*	00000000 strcmp.c
00000000 l    df *ABS*	00000000 vfprintf.c
00020d04 l     O .rodata	00000010 zeroes.4184
00020d14 l     O .rodata	00000010 blanks.4183
00000000 l    df *ABS*	00000000 vfprintf.c
0000b10c l     F .text	000000fc __sprint_r.part.0
00020d34 l     O .rodata	00000010 blanks.4199
00020d24 l     O .rodata	00000010 zeroes.4200
0000c514 l     F .text	000000bc __sbprintf
00000000 l    df *ABS*	00000000 wbuf.c
00000000 l    df *ABS*	00000000 writer.c
00000000 l    df *ABS*	00000000 closer.c
00000000 l    df *ABS*	00000000 mallocr.c
00000000 l    df *ABS*	00000000 fclose.c
00000000 l    df *ABS*	00000000 fputwc.c
00000000 l    df *ABS*	00000000 fstatr.c
00000000 l    df *ABS*	00000000 int_errno.c
00000000 l    df *ABS*	00000000 isattyr.c
00000000 l    df *ABS*	00000000 lseekr.c
00000000 l    df *ABS*	00000000 readr.c
00000000 l    df *ABS*	00000000 wcrtomb.c
00000000 l    df *ABS*	00000000 wctomb_r.c
00000000 l    df *ABS*	00000000 libgcc2.c
00000000 l    df *ABS*	00000000 libgcc2.c
00000000 l    df *ABS*	00000000 lib2-divmod.c
0000da18 l     F .text	0000006c udivmodsi4
00000000 l    df *ABS*	00000000 adddf3.c
00000000 l    df *ABS*	00000000 divdf3.c
00000000 l    df *ABS*	00000000 eqdf2.c
00000000 l    df *ABS*	00000000 gedf2.c
00000000 l    df *ABS*	00000000 ledf2.c
00000000 l    df *ABS*	00000000 muldf3.c
00000000 l    df *ABS*	00000000 subdf3.c
00000000 l    df *ABS*	00000000 fixdfsi.c
00000000 l    df *ABS*	00000000 floatsidf.c
00000000 l    df *ABS*	00000000 floatunsidf.c
00000000 l    df *ABS*	00000000 libgcc2.c
00000000 l    df *ABS*	00000000 libgcc2.c
00000000 l    df *ABS*	00000000 alt_close.c
00010144 l     F .text	00000050 alt_get_errno
00000000 l    df *ABS*	00000000 alt_dev.c
00010264 l     F .text	0000002c alt_dev_null_write
00000000 l    df *ABS*	00000000 alt_errno.c
00000000 l    df *ABS*	00000000 alt_fstat.c
00010290 l     F .text	00000050 alt_get_errno
00000000 l    df *ABS*	00000000 alt_isatty.c
00010390 l     F .text	00000050 alt_get_errno
00000000 l    df *ABS*	00000000 alt_load.c
00010484 l     F .text	00000064 alt_load_section
00000000 l    df *ABS*	00000000 alt_lseek.c
00010568 l     F .text	00000050 alt_get_errno
00000000 l    df *ABS*	00000000 alt_main.c
00000000 l    df *ABS*	00000000 alt_read.c
00010760 l     F .text	00000050 alt_get_errno
00000000 l    df *ABS*	00000000 alt_release_fd.c
00000000 l    df *ABS*	00000000 alt_sbrk.c
00022f9c l     O .rwdata	00000004 heap_end
00000000 l    df *ABS*	00000000 alt_write.c
000109bc l     F .text	00000050 alt_get_errno
00000000 l    df *ABS*	00000000 alt_env_lock.c
00022fa0 l     O .rwdata	00000004 lockid
00024f4c l     O .bss	00000004 locks
00000000 l    df *ABS*	00000000 alt_malloc_lock.c
00022fa4 l     O .rwdata	00000004 lockid
00024f54 l     O .bss	00000004 locks
00000000 l    df *ABS*	00000000 os_core.c
000123f0 l     F .text	00000044 OS_InitMisc
00012434 l     F .text	00000068 OS_InitRdyList
00012594 l     F .text	000000e0 OS_InitTCBList
00012314 l     F .text	000000dc OS_InitEventList
0001249c l     F .text	0000007c OS_InitTaskIdle
00012518 l     F .text	0000007c OS_InitTaskStat
000127f4 l     F .text	00000070 OS_SchedNew
00000000 l    df *ABS*	00000000 os_dbg.c
00000000 l    df *ABS*	00000000 os_flag.c
000145f8 l     F .text	00000110 OS_FlagTaskRdy
00014350 l     F .text	000001c4 OS_FlagBlock
00000000 l    df *ABS*	00000000 os_mem.c
00000000 l    df *ABS*	00000000 os_q.c
00000000 l    df *ABS*	00000000 os_sem.c
00000000 l    df *ABS*	00000000 os_task.c
00000000 l    df *ABS*	00000000 os_time.c
00000000 l    df *ABS*	00000000 alt_sys_init.c
00018aa0 l     F .text	00000038 alt_dev_reg
00021b7c l     O .rwdata	0000106c JTAG_UART
00022be8 l     O .rwdata	00000030 AV_Config
00022c18 l     O .rwdata	00000030 Audio_Subsystem_Audio
00022c48 l     O .rwdata	0000002c Char_LCD_16x2
00022c74 l     O .rwdata	0000002c IrDA
00022ca0 l     O .rwdata	0000002c Expansion_JP5
00022ccc l     O .rwdata	0000002c Green_LEDs
00022cf8 l     O .rwdata	0000002c HEX3_HEX0
00022d24 l     O .rwdata	0000002c HEX7_HEX4
00022d50 l     O .rwdata	0000002c Pushbuttons
00022d7c l     O .rwdata	0000002c Red_LEDs
00022da8 l     O .rwdata	0000002c Slider_Switches
00022dd4 l     O .rwdata	00000038 PS2_Port
00022e0c l     O .rwdata	00000038 PS2_Port_Dual
00022e44 l     O .rwdata	0000002c Serial_Port
00022e70 l     O .rwdata	00000034 USB
00022ea4 l     O .rwdata	00000048 VGA_Subsystem_VGA_Char_Buffer
00022eec l     O .rwdata	00000054 VGA_Subsystem_VGA_Pixel_DMA
00022f40 l     O .rwdata	0000002c SD_Card
00000000 l    df *ABS*	00000000 Altera_UP_SD_Card_Avalon_Interface.c
00000000 l    df *ABS*	00000000 altera_avalon_jtag_uart_fd.c
00000000 l    df *ABS*	00000000 altera_avalon_jtag_uart_init.c
0001d430 l     F .text	000002a8 altera_avalon_jtag_uart_irq
0001d6d8 l     F .text	00000110 altera_avalon_jtag_uart_timeout
00000000 l    df *ABS*	00000000 altera_avalon_jtag_uart_ioctl.c
00000000 l    df *ABS*	00000000 altera_avalon_jtag_uart_read.c
00000000 l    df *ABS*	00000000 altera_avalon_jtag_uart_write.c
00000000 l    df *ABS*	00000000 altera_avalon_timer_sc.c
0001deb0 l     F .text	00000078 alt_avalon_timer_sc_irq
00000000 l    df *ABS*	00000000 altera_up_avalon_character_lcd.c
00000000 l    df *ABS*	00000000 altera_up_avalon_irda.c
00000000 l    df *ABS*	00000000 altera_up_avalon_ps2.c
00000000 l    df *ABS*	00000000 altera_up_avalon_rs232.c
00000000 l    df *ABS*	00000000 altera_up_avalon_video_character_buffer_with_dma.c
00000000 l    df *ABS*	00000000 alt_alarm_start.c
00000000 l    df *ABS*	00000000 alt_dcache_flush_all.c
00000000 l    df *ABS*	00000000 alt_dev_llist_insert.c
0001f68c l     F .text	00000050 alt_get_errno
00000000 l    df *ABS*	00000000 alt_do_ctors.c
00000000 l    df *ABS*	00000000 alt_do_dtors.c
00000000 l    df *ABS*	00000000 alt_find_dev.c
00000000 l    df *ABS*	00000000 alt_icache_flush_all.c
00000000 l    df *ABS*	00000000 alt_io_redirect.c
0001f8f8 l     F .text	000000c0 alt_open_fd
00000000 l    df *ABS*	00000000 alt_irq_register.c
00000000 l    df *ABS*	00000000 alt_irq_vars.c
00000000 l    df *ABS*	00000000 alt_open.c
0001fbe0 l     F .text	00000050 alt_get_errno
0001fc30 l     F .text	000000cc alt_file_locked
00000000 l    df *ABS*	00000000 alt_tick.c
00000000 l    df *ABS*	00000000 altera_nios2_gen2_irq.c
00000000 l    df *ABS*	00000000 os_cpu_a.o
00000040 l       *ABS*	00000000 OSCtxSw_SWITCH_PC
00000000 l    df *ABS*	00000000 os_cpu_c.c
00000014 l       *ABS*	00000000 OSTCBNext_OFFSET
00000032 l       *ABS*	00000000 OSTCBPrio_OFFSET
00000000 l       *ABS*	00000000 OSTCBStkPtr_OFFSET
00000000 l    df *ABS*	00000000 alt_find_file.c
00000000 l    df *ABS*	00000000 alt_get_fd.c
00000000 l    df *ABS*	00000000 alt_icache_flush.c
00000000 l    df *ABS*	00000000 atexit.c
00000000 l    df *ABS*	00000000 exit.c
00000000 l    df *ABS*	00000000 memcmp.c
00000000 l    df *ABS*	00000000 __atexit.c
00000000 l    df *ABS*	00000000 __call_atexit.c
00000000 l    df *ABS*	00000000 alt_exit.c
00024fec g     O .bss	00000004 alt_instruction_exception_handler
00024fb4 g     O .bss	00000004 aux_status_register
000008f8 g     F .text	00000018 putchar
00009414 g     F .text	00000074 _mprec_log10
00022ff2 g     O .rwdata	00000002 OSTaskNameSize
00009500 g     F .text	0000008c __any_on
0000cbd4 g     F .text	00000054 _isatty_r
00020bec g     O .rodata	00000028 __mprec_tinytens
0001068c g     F .text	000000d4 alt_main
00000b18 g     F .text	00000090 strcpy
00000910 g     F .text	000000a8 _puts_r
00028808 g     O .bss	00000100 alt_irq
0001ea4c g     F .text	0000005c alt_up_ps2_disable_read_interrupt
0000cc28 g     F .text	0000005c _lseek_r
00014e5c g     F .text	000000d0 OS_MemInit
00023028 g       *ABS*	00000000 __flash_rwdata_start
00018a3c g     F .text	00000064 OSTimeSet
0001e01c g     F .text	0000003c alt_up_character_lcd_send_cmd
0000ecac g     F .text	00000084 .hidden __eqdf2
00019250 g     F .text	000001ac Check_for_Master_Boot_Record
0001106c g     F .text	00000610 OSEventPendMulti
00028908 g       *ABS*	00000000 __alt_heap_start
0002023c g     F .text	00000020 OSTaskCreateHook
0001cfd0 g     F .text	000001bc alt_up_sd_card_fclose
000008b4 g     F .text	0000003c printf
00022fca g     O .rwdata	00000002 OSMboxEn
000116d0 g     F .text	0000007c OSIntEnter
0000cce0 g     F .text	0000009c _wcrtomb_r
00009e00 g     F .text	0000005c __sseek
00006c60 g     F .text	00000010 __sinit
0001f3d4 g     F .text	00000100 alt_up_char_buffer_string
0000c5d0 g     F .text	00000138 __swbuf_r
0001e86c g     F .text	00000034 read_CE_bit
00022fda g     O .rwdata	00000002 OSQEn
0000770c g     F .text	0000007c _setlocale_r
00006ac8 g     F .text	00000068 __sfmoreglue
00010d40 g     F .text	000000d0 __malloc_unlock
00020298 g     F .text	0000001c OSTaskStatHook
0001ebf0 g     F .text	000000a4 alt_up_ps2_read_data_byte_timeout
0001f0e4 g     F .text	00000090 alt_up_rs232_read_fd
00024f5c g     O .bss	00000001 OSLockNesting
00024fd8 g     O .bss	00000004 current_sector_modified
00023018 g     O .rwdata	00000002 OSDataSize
00024f5d g     O .bss	00000001 OSRunning
0001f308 g     F .text	000000cc alt_up_char_buffer_draw
0000836c g     F .text	0000015c memmove
000202d0 g     F .text	0000001c OSInitHookBegin
00023010 g     O .rwdata	00000002 OSTmrSize
00006c48 g     F .text	00000018 _cleanup
000085ec g     F .text	000000a8 _Balloc
0001bbf8 g     F .text	000000c4 alt_up_sd_card_is_Present
00018f98 g     F .text	0000004c Save_Modified_Sector
00024f60 g     O .bss	00000004 OSIdleCtr
0000ed30 g     F .text	000000e0 .hidden __gtdf2
0001fff0 g     F .text	00000020 altera_nios2_gen2_irq_init
000200bc g       .text	00000000 OSStartTsk
00000000  w      *UND*	00000000 __errno
0001dfa8 g     F .text	00000074 get_DDRAM_addr
00012b2c g     F .text	000002d4 OS_TCBInit
00000000 g     F .entry	0000001c __reset
00024fd0 g     O .bss	00000004 fat_partition_size_in_512_byte_sectors
00023016 g     O .rwdata	00000002 OSTmrWheelTblSize
00000020 g       *ABS*	00000000 __flash_exceptions_start
00022fb6 g     O .rwdata	00000002 OSEventSize
00024f64 g     O .bss	00000001 OSPrioHighRdy
0000cb7c g     F .text	00000058 _fstat_r
0002025c g     F .text	00000020 OSTaskDelHook
00024f38 g     O .bss	00000004 errno
00009d7c g     F .text	00000008 __seofread
0002009c g       .text	00000000 OSStartHighRdy
00017340 g     F .text	000001ec OSTaskCreateExt
0000a0d4 g     F .text	00001038 ___svfiprintf_internal_r
00013e9c g     F .text	00000068 OSFlagPendGetFlagsRdy
00022ff6 g     O .rwdata	00000002 OSTaskStatStkSize
00012f8c g     F .text	00000308 OSFlagAccept
00015530 g     F .text	000000b8 OSQFlush
00014f2c g     F .text	00000140 OSQAccept
00024f44 g     O .bss	00000004 alt_argv
0002af6c g       *ABS*	00000000 _gp
0001c1a4 g     F .text	00000384 alt_up_sd_card_fopen
0001bd28 g     F .text	000000d0 alt_up_sd_card_find_first
00017184 g     F .text	000001bc OSTaskCreate
00024fc4 g     O .bss	00000004 command_argument_register
00016c44 g     F .text	00000540 OSTaskChangePrio
00024f58 g     O .bss	00000004 alt_heapsem
00012e00 g     F .text	0000018c OSDebugInit
0001752c g     F .text	000003e0 OSTaskDel
000219fc g     O .rwdata	00000180 alt_fd_list
0002507c g     O .bss	00000370 OSFlagTbl
000008f0 g     F .text	00000008 _putchar_r
00012100 g     F .text	000000b4 OS_EventTaskRemove
0001b47c g     F .text	0000012c find_first_empty_record_in_root_directory
0001f838 g     F .text	00000090 alt_find_dev
00008234 g     F .text	00000138 memcpy
00022fe0 g     O .rwdata	00000002 OSRdyTblSize
0001e1b8 g     F .text	00000050 alt_up_character_lcd_write_fd
0001f4d4 g     F .text	0000005c alt_up_char_buffer_clear
00006920 g     F .text	0000000c _cleanup_r
0000ff6c g     F .text	000000d0 .hidden __floatsidf
0001f9b8 g     F .text	00000078 alt_io_redirect
0000ee10 g     F .text	000000e0 .hidden __ltdf2
00020a28 g       *ABS*	00000000 __DTOR_END__
0001e738 g     F .text	00000090 alt_up_irda_write_fd
0001f070 g     F .text	00000074 alt_up_rs232_read_data
000009b8 g     F .text	00000014 puts
000205e0 g     F .text	0000009c alt_exception_cause_generated_bad_addr
00010e10 g     F .text	00000120 OSEventNameGet
00022fc4 g     O .rwdata	00000002 OSFlagMax
0001b08c g     F .text	000001a4 find_first_empty_cluster
00009c60 g     F .text	00000074 __fpclassifyd
00009370 g     F .text	000000a4 __ratio
0001bb38 g     F .text	000000c0 alt_up_sd_card_open_dev
0001174c g     F .text	000000f4 OSIntExit
0000c4f0 g     F .text	00000024 __vfiprintf_internal
00022ffe g     O .rwdata	00000002 OSTCBSize
00024f65 g     O .bss	00000001 OSPrioCur
0001e534 g     F .text	00000040 alt_up_irda_get_used_space_in_read_FIFO
0001d93c g     F .text	000002b4 altera_avalon_jtag_uart_read
00000000  w      *UND*	00000000 malloc
00000888 g     F .text	0000002c _printf_r
0000db34 g     F .text	00000008 .hidden __udivsi3
000103e0 g     F .text	000000a4 isatty
00022fe4 g     O .rwdata	00000002 OSStkWidth
00020c3c g     O .rodata	000000c8 __mprec_tens
00022fd8 g     O .rwdata	00000002 OSPtrSize
00007788 g     F .text	0000000c __locale_charset
00022fb8 g     O .rwdata	00000002 OSEventTblSize
0001e4d8 g     F .text	0000005c alt_up_irda_disable_read_interrupt
00020010 g       .text	00000000 OSCtxSw
00020554 g     F .text	0000008c alt_icache_flush
00024f34 g     O .bss	00000004 __malloc_top_pad
00024f68 g     O .bss	00000004 OSTCBList
00024f3c g     O .bss	00000004 alt_fd_list_lock
00022f74 g     O .rwdata	00000004 __mb_cur_max
000077b8 g     F .text	0000000c _localeconv_r
000089f8 g     F .text	0000003c __i2b
000070c4 g     F .text	000004c0 __sfvwrite_r
0001a3a4 g     F .text	000000b8 get_dir_divider_location
000253ec g     O .bss	00000c30 OSMemTbl
00024f6c g     O .bss	00000001 OSTickStepState
00009cd4 g     F .text	00000054 _sbrk_r
0001a078 g     F .text	000000c0 filename_to_upper_case
00022fdc g     O .rwdata	00000002 OSQMax
0001c528 g     F .text	00000084 alt_up_sd_card_set_attributes
0002601c g     O .bss	00000800 OSTaskStatStk
00014a8c g     F .text	000000f8 OSMemNameGet
000193fc g     F .text	0000027c Read_File_Record_At_Offset
00022fbc g     O .rwdata	00000002 OSFlagEn
0000cc84 g     F .text	0000005c _read_r
00023002 g     O .rwdata	00000002 OSTimeTickHookEn
00015a50 g     F .text	00000168 OSQPost
00014708 g     F .text	000000a0 OS_FlagUnlink
00022f94 g     O .rwdata	00000004 alt_max_fd
0001efec g     F .text	00000044 alt_up_rs232_check_parity
000126c4 g     F .text	00000064 OS_MemCopy
00012728 g     F .text	000000cc OS_Sched
0001ac24 g     F .text	00000468 find_file_in_directory
0000c898 g     F .text	000000f0 _fclose_r
0001499c g     F .text	000000f0 OSMemGet
00017c0c g     F .text	000001c0 OSTaskNameSet
0001e8a0 g     F .text	00000030 read_num_bytes_available
000068e0 g     F .text	00000030 fflush
00024f30 g     O .bss	00000004 __malloc_max_sbrked_mem
00024f70 g     O .bss	00000004 OSCtxSwCtr
000202b4 g     F .text	0000001c OSTimeTickHook
0001fa30 g     F .text	000001b0 alt_irq_register
00022fc6 g     O .rwdata	00000002 OSFlagNameSize
0001e808 g     F .text	00000034 read_RI_bit
000006d8 g     F .text	00000080 schuifScores
000121b4 g     F .text	000000fc OS_EventTaskRemoveMulti
0001bcbc g     F .text	0000006c alt_up_sd_card_is_FAT16
0000db44 g     F .text	0000089c .hidden __adddf3
00011fb4 g     F .text	0000014c OS_EventTaskWaitMulti
00009118 g     F .text	0000011c __b2d
00022fde g     O .rwdata	00000002 OSQSize
0000d488 g     F .text	00000590 .hidden __umoddi3
000105b8 g     F .text	000000d4 lseek
00016554 g     F .text	00000268 OSSemPend
00022f6c g     O .rwdata	00000004 _global_impure_ptr
0001a6f8 g     F .text	0000052c get_home_directory_cluster_for_file
000096f8 g     F .text	00000568 _realloc_r
00022fc8 g     O .rwdata	00000002 OSLowestPrio
00028908 g       *ABS*	00000000 __bss_end
00020324 g     F .text	00000020 OSTCBInitHook
0002300e g     O .rwdata	00000002 OSTmrCfgTicksPerSec
0001feec g     F .text	00000104 alt_tick
00024ff0 g     O .bss	00000064 highscores
0000cec8 g     F .text	000005c0 .hidden __udivdi3
0000c99c g     F .text	00000184 _fputwc_r
00022fb0 g     O .rwdata	00000002 OSEventEn
00020c14 g     O .rodata	00000028 __mprec_bigtens
000087dc g     F .text	00000104 __s2b
0002300a g     O .rwdata	00000002 OSTmrCfgNameSize
0001003c g     F .text	000000a4 .hidden __floatunsidf
00008ec0 g     F .text	00000060 __mcmp
00024fdc g     O .bss	00000004 current_sector_index
0c000000 g       *ABS*	00000000 __alt_mem_Flash_flash_data
0001e904 g     F .text	0000002c read_data_byte
00006c80 g     F .text	00000018 __fp_lock_all
00014514 g     F .text	000000e4 OS_FlagInit
0001fe54 g     F .text	00000098 alt_alarm_stop
0001e83c g     F .text	00000030 read_RE_bit
00019170 g     F .text	000000e0 mark_cluster
00022fec g     O .rwdata	00000002 OSTaskIdleStkSize
00024fe0 g     O .bss	00000004 alt_irq_active
0001613c g     F .text	000000b0 OSSemAccept
00014c9c g     F .text	000000d8 OSMemPut
000147a8 g     F .text	000001f4 OSMemCreate
00024f74 g     O .bss	00000004 OSIdleCtrMax
0001e574 g     F .text	0000003c alt_up_irda_get_available_space_in_write_FIFO
000000fc g     F .exceptions	000000d4 alt_irq_handler
000219d4 g     O .rwdata	00000028 alt_dev_null
00023000 g     O .rwdata	00000002 OSTicksPerSec
0001b5a8 g     F .text	00000188 convert_filename_to_name_extension
0001e44c g     F .text	00000034 alt_up_character_lcd_cursor_blink_on
00020010 g       .text	00000000 OSIntCtxSw
0001eaa8 g     F .text	00000074 alt_up_ps2_write_data_byte
0001f670 g     F .text	0000001c alt_dcache_flush_all
000088e0 g     F .text	00000068 __hi0bits
00024fb0 g     O .bss	00000004 is_sd_card_formated_as_FAT16
0000fee4 g     F .text	00000088 .hidden __fixdfsi
0001b230 g     F .text	0000024c find_first_empty_record_in_a_subdirectory
00024f78 g     O .bss	00000004 OSTCBFreeList
00023028 g       *ABS*	00000000 __ram_rwdata_end
000167bc g     F .text	0000016c OSSemPendAbort
00022f8c g     O .rwdata	00000008 alt_dev_list
00010a0c g     F .text	000000f8 write
0000958c g     F .text	000000a0 _putc_r
00024fd4 g     O .bss	00000004 device_pointer
00023004 g     O .rwdata	00000002 OSVersionNbr
00021130 g       *ABS*	00000000 __ram_rodata_end
000102e0 g     F .text	000000b0 fstat
0001f174 g     F .text	00000094 alt_up_rs232_write_fd
00000000 g       *ABS*	00000000 __alt_mem_SDRAM
0000ee10 g     F .text	000000e0 .hidden __ledf2
00000a90 g     F .text	00000088 strcat
00022fac g     O .rwdata	00000004 OSEndiannessTest
00008c30 g     F .text	00000140 __pow5mult
0000b220 g     F .text	000012d0 ___vfiprintf_internal_r
00024f28 g     O .bss	00000004 __nlocale_changed
0000db3c g     F .text	00000008 .hidden __umodsi3
00022fbe g     O .rwdata	00000002 OSFlagGrpSize
0000048c g     F .text	0000024c sorteer
00028908 g       *ABS*	00000000 end
0001ede4 g     F .text	00000098 alt_up_ps2_write_fd
0001e5b0 g     F .text	00000044 alt_up_irda_check_parity
0001f248 g     F .text	00000080 alt_up_char_buffer_init
0001d2f0 g     F .text	00000140 altera_avalon_jtag_uart_init
00012988 g     F .text	000000dc OS_TaskStat
000001d0 g     F .exceptions	00000074 alt_instruction_exception_entry
00020a28 g       *ABS*	00000000 __CTOR_LIST__
04000000 g       *ABS*	00000000 __alt_stack_pointer
0001df28 g     F .text	00000080 alt_avalon_timer_sc_init
000100e0 g     F .text	00000064 .hidden __clzsi2
0001dbf0 g     F .text	000002c0 altera_avalon_jtag_uart_write
00006c70 g     F .text	00000004 __sfp_lock_acquire
0000814c g     F .text	000000e8 memchr
00012674 g     F .text	00000050 OS_MemClr
0001e0cc g     F .text	00000078 alt_up_character_lcd_write
00002bd0 g     F .text	00001f50 ___vfprintf_internal_r
000200e0 g     F .text	0000015c OSTaskStkInit
000009cc g     F .text	00000058 _sprintf_r
00006dd4 g     F .text	000002f0 _free_r
00007794 g     F .text	00000010 __locale_mb_cur_max
00011d10 g     F .text	00000198 OS_EventTaskRdy
00020858 g     F .text	00000194 __call_exitprocs
00024f7c g     O .bss	00000001 OSCPUUsage
00024f24 g     O .bss	00000004 __mlocale_changed
00022f78 g     O .rwdata	00000004 __malloc_sbrk_base
00000244 g     F .text	0000003c _start
00024fe4 g     O .bss	00000004 _alt_tick_rate
000155e8 g     F .text	000002fc OSQPend
00018538 g     F .text	00000148 OSTimeDly
00000280 g     F .text	0000011c read_file
00008d70 g     F .text	00000150 __lshift
00024fe8 g     O .bss	00000004 _alt_nticks
000107b0 g     F .text	000000fc read
00018b0c g     F .text	000003d8 alt_sys_init
0001e304 g     F .text	00000088 alt_up_character_lcd_shift_display
00009f08 g     F .text	000001cc __ssprint_r
00020744 g     F .text	00000114 __register_exitproc
00024f7d g     O .bss	00000001 OSTaskCtr
0001ed04 g     F .text	00000054 alt_up_ps2_clear_fifo
0001efb0 g     F .text	0000003c alt_up_rs232_get_available_space_in_write_FIFO
00018680 g     F .text	00000168 OSTimeDlyHMSM
00008a34 g     F .text	000001fc __multiply
0001e38c g     F .text	0000008c alt_up_character_lcd_erase_pos
0001d7e8 g     F .text	00000068 altera_avalon_jtag_uart_close
00021130 g       *ABS*	00000000 __ram_rwdata_start
00020a28 g       *ABS*	00000000 __ram_rodata_start
00025054 g     O .bss	00000028 __malloc_current_mallinfo
00022fb2 g     O .rwdata	00000002 OSEventMax
00009234 g     F .text	0000013c __d2b
00016928 g     F .text	00000110 OSSemPost
00024fac g     O .bss	00000004 initialized
000118c8 g     F .text	000000d8 OSSchedUnlock
0001d18c g     F .text	00000060 altera_avalon_jtag_uart_read_fd
00020458 g     F .text	000000fc alt_get_fd
00024f80 g     O .bss	00000004 OSMemFreeList
00011a0c g     F .text	000000ac OSStatInit
000282a0 g     O .bss	00000014 search_data
0001428c g     F .text	000000c4 OSFlagQuery
00022fe8 g     O .rwdata	00000002 OSTaskCreateExtEn
0000c780 g     F .text	00000054 _close_r
000206c8 g     F .text	0000007c memcmp
00011cf4 g     F .text	0000001c OS_Dummy
0001d24c g     F .text	00000050 altera_avalon_jtag_uart_close_fd
00028908 g       *ABS*	00000000 __alt_stack_base
0001d29c g     F .text	00000054 altera_avalon_jtag_uart_ioctl_fd
0001e480 g     F .text	00000058 alt_up_irda_enable_read_interrupt
00004c00 g     F .text	00000154 __swsetup_r
0002681c g     O .bss	000001e0 OSQTbl
0000e3e0 g     F .text	000008cc .hidden __divdf3
00006b30 g     F .text	00000118 __sfp
000282b4 g     O .bss	00000054 boot_sector_data
00009488 g     F .text	00000078 __copybits
000215cc g     O .rwdata	00000408 __malloc_av_
00006c7c g     F .text	00000004 __sinit_lock_release
00024f84 g     O .bss	00000004 OSTCBHighRdy
0000eef0 g     F .text	00000724 .hidden __muldf3
00009d28 g     F .text	00000054 __sread
00024f88 g     O .bss	00000004 OSQFreeList
0001ef14 g     F .text	0000005c alt_up_rs232_disable_read_interrupt
00020344 g     F .text	00000114 alt_find_file
0001f6dc g     F .text	000000a4 alt_dev_llist_insert
00010c20 g     F .text	00000120 __malloc_lock
0001090c g     F .text	000000b0 sbrk
00000c40 g     F .text	00001f90 ___svfprintf_internal_r
00010f30 g     F .text	0000013c OSEventNameSet
00006884 g     F .text	0000005c _fflush_r
0000c7d4 g     F .text	000000c4 _calloc_r
00024f8c g     O .bss	00000001 OSRdyGrp
00024f20 g       *ABS*	00000000 __bss_start
000084c8 g     F .text	00000124 memset
00000758 g     F .text	00000130 main
00024f48 g     O .bss	00000004 alt_envp
00024f2c g     O .bss	00000004 __malloc_max_total_mem
0001f2c8 g     F .text	00000040 alt_up_char_buffer_open_dev
0001d1ec g     F .text	00000060 altera_avalon_jtag_uart_write_fd
0000c708 g     F .text	0000001c __swbuf
00020e60 g     O .rodata	00000100 OSUnMapTbl
0001c5ac g     F .text	00000088 alt_up_sd_card_get_attributes
00022fe2 g     O .rwdata	00000002 OSSemEn
00018ee4 g     F .text	000000b4 Write_Sector_Data
0001c9ac g     F .text	00000624 alt_up_sd_card_write
0001e27c g     F .text	00000088 alt_up_character_lcd_shift_cursor
00013f04 g     F .text	00000388 OSFlagPost
00009e5c g     F .text	00000008 __sclose
04000000 g       *ABS*	00000000 __alt_heap_limit
0000c988 g     F .text	00000014 fclose
00011ea8 g     F .text	0000010c OS_EventTaskWait
0001ec94 g     F .text	00000070 alt_up_ps2_read_data_byte
00012a64 g     F .text	000000c8 OS_TaskStatStkChk
0001790c g     F .text	00000158 OSTaskDelReq
00004f54 g     F .text	00001728 _dtoa_r
000079a4 g     F .text	000007a8 _malloc_r
0000ce3c g     F .text	00000030 __ascii_wctomb
00022f98 g     O .rwdata	00000004 alt_errno
000119a0 g     F .text	0000006c OSStart
00010bc4 g     F .text	0000005c __env_unlock
00007584 g     F .text	000000c4 _fwalk
00017dcc g     F .text	000001f8 OSTaskResume
00014d74 g     F .text	000000e8 OSMemQuery
00022ff4 g     O .rwdata	00000002 OSTaskStatEn
0001e5f4 g     F .text	00000040 alt_up_irda_write_data
00022fce g     O .rwdata	00000002 OSMemMax
00015bb8 g     F .text	00000170 OSQPostFront
0001ee7c g     F .text	00000040 alt_up_ps2_open_dev
0000962c g     F .text	000000cc putc
0000da84 g     F .text	00000054 .hidden __divsi3
00024f8d g     O .bss	00000003 OSRdyTbl
00022fa8 g     O .rwdata	00000002 OSDebugEn
0001e08c g     F .text	00000040 alt_up_character_lcd_open_dev
00006cb0 g     F .text	00000124 _malloc_trim_r
0001e9f4 g     F .text	00000058 alt_up_ps2_enable_read_interrupt
00020a28 g       *ABS*	00000000 __CTOR_END__
0000039c g     F .text	000000f0 write_file
00022fc0 g     O .rwdata	00000002 OSFlagNodeSize
00024fb8 g     O .bss	00000004 status_register
00023008 g     O .rwdata	00000002 OSTmrCfgMax
0001e058 g     F .text	00000034 alt_up_character_lcd_init
00009e64 g     F .text	000000a4 strcmp
00024fc0 g     O .bss	00000004 command_register
0001506c g     F .text	000001fc OSQCreate
00017a64 g     F .text	000001a8 OSTaskNameGet
00020a28 g       *ABS*	00000000 __flash_rodata_start
00015d28 g     F .text	0000020c OSQPostOpt
00011ab8 g     F .text	0000021c OSTimeTick
00022ff0 g     O .rwdata	00000002 OSTaskMax
00020a28 g       *ABS*	00000000 __DTOR_LIST__
000161ec g     F .text	00000100 OSSemCreate
00023014 g     O .rwdata	00000002 OSTmrWheelSize
0001f208 g     F .text	00000040 alt_up_rs232_open_dev
0000ecac g     F .text	00000084 .hidden __nedf2
00022fea g     O .rwdata	00000002 OSTaskDelEn
00016a38 g     F .text	00000110 OSSemQuery
00015268 g     F .text	000002c8 OSQDel
000158e4 g     F .text	0000016c OSQPendAbort
00018ad8 g     F .text	00000034 alt_irq_init
000108ac g     F .text	00000060 alt_release_fd
000190bc g     F .text	000000b4 get_cluster_flag
0001e8d0 g     F .text	00000034 read_data_valid
00000a24 g     F .text	0000006c sprintf
0001e418 g     F .text	00000034 alt_up_character_lcd_cursor_off
00020d44 g     O .rodata	00000100 .hidden __clz_tab
00019678 g     F .text	0000028c Write_File_Record_At_Offset
00024f20 g     O .bss	00000004 _PathLocale
0001eb8c g     F .text	00000064 alt_up_ps2_write_data_byte_with_ack
0002067c g     F .text	00000014 atexit
0000c724 g     F .text	0000005c _write_r
00011840 g     F .text	00000088 OSSchedLock
000077c4 g     F .text	0000001c setlocale
00013294 g     F .text	00000128 OSFlagCreate
00019904 g     F .text	00000688 Check_for_DOS_FAT
0001b730 g     F .text	000002c4 create_file
00022f70 g     O .rwdata	00000004 _impure_ptr
00024fbc g     O .bss	00000004 CSD_register_w0
00024f40 g     O .bss	00000004 alt_argc
0000667c g     F .text	00000208 __sflush_r
0001f7dc g     F .text	0000005c _do_dtors
000077b0 g     F .text	00000008 __locale_cjk_lang
00022fba g     O .rwdata	00000002 OSEventMultiEn
000133bc g     F .text	00000270 OSFlagDel
00024f90 g     O .bss	00000004 OSEventFreeList
00000020 g       .exceptions	00000000 alt_irq_entry
000090b8 g     F .text	00000060 __ulp
000138ac g     F .text	000005f0 OSFlagPend
00023006 g     O .rwdata	00000002 OSTmrEn
00006c98 g     F .text	00000018 __fp_unlock_all
00022f84 g     O .rwdata	00000008 alt_fs_list
0001a138 g     F .text	0000026c check_file_name_for_FAT16_compliance
00012864 g     F .text	00000074 OS_StrCopy
00024fc8 g     O .bss	00000004 buffer_memory
0001eebc g     F .text	00000058 alt_up_rs232_enable_read_interrupt
0001f030 g     F .text	00000040 alt_up_rs232_write_data
00022fd0 g     O .rwdata	00000002 OSMemNameSize
000202ec g     F .text	0000001c OSInitHookEnd
00000020 g       *ABS*	00000000 __ram_exceptions_start
00022ffc g     O .rwdata	00000002 OSTCBPrioTblMax
000077e0 g     F .text	0000000c localeconv
00022ff8 g     O .rwdata	00000002 OSTaskStatStkChkEn
00022fcc g     O .rwdata	00000002 OSMemEn
00024fcc g     O .bss	00000004 fat_partition_offset_in_512_byte_sectors
00022fd6 g     O .rwdata	00000002 OSMutexEn
00023028 g       *ABS*	00000000 _edata
00028908 g       *ABS*	00000000 _end
00028308 g     O .bss	00000500 active_files
00024f94 g     O .bss	00000001 OSIntNesting
00000244 g       *ABS*	00000000 __ram_exceptions_end
0001b9f4 g     F .text	00000144 copy_file_record_name_to_string
0001d850 g     F .text	000000ec altera_avalon_jtag_uart_ioctl
000187e8 g     F .text	000001f0 OSTimeDlyResume
00019f8c g     F .text	000000ec Look_for_FAT16
0001375c g     F .text	00000150 OSFlagNameSet
00017fc4 g     F .text	000001c8 OSTaskStkChk
00022fd2 g     O .rwdata	00000002 OSMemSize
00009d84 g     F .text	0000007c __swrite
00022f7c g     O .rwdata	00000004 __malloc_trim_threshold
000077a4 g     F .text	0000000c __locale_msgcharset
00024f98 g     O .bss	00000004 OSTCBCur
00020690 g     F .text	00000038 exit
0001e634 g     F .text	00000074 alt_up_irda_read_data
0001bdf8 g     F .text	000003ac alt_up_sd_card_find_next
00022fd4 g     O .rwdata	00000002 OSMemTblSize
00007648 g     F .text	000000c4 _fwalk_reent
0001e930 g     F .text	000000c4 alt_up_ps2_init
00008f20 g     F .text	00000198 __mdiff
0000dad8 g     F .text	0000005c .hidden __modsi3
00018fe4 g     F .text	000000d8 Read_Sector_Data
04000000 g       *ABS*	00000000 __alt_data_end
00000020 g     F .exceptions	00000000 alt_exception
00006c74 g     F .text	00000004 __sfp_lock_release
0001167c g     F .text	00000054 OSInit
000183a0 g     F .text	0000012c OSTaskQuery
0001e144 g     F .text	00000074 alt_up_character_lcd_string
00016090 g     F .text	000000ac OS_QInit
000128d8 g     F .text	00000054 OS_StrLen
0001e7c8 g     F .text	00000040 alt_up_irda_open_dev
00014b84 g     F .text	00000118 OSMemNameSet
00022fee g     O .rwdata	00000002 OSTaskProfileEn
00024f9c g     O .bss	00000004 OSTime
000269fc g     O .bss	00000800 OSTaskIdleStk
000209ec g     F .text	0000003c _exit
0001f530 g     F .text	00000140 alt_alarm_start
0001362c g     F .text	00000130 OSFlagNameGet
000189d8 g     F .text	00000064 OSTimeGet
0001c634 g     F .text	00000378 alt_up_sd_card_read
000077ec g     F .text	000001b8 __smakebuf_r
0001eb1c g     F .text	00000070 alt_up_ps2_wait_for_ack
00000ba8 g     F .text	00000098 strlen
0002027c g     F .text	0000001c OSTaskSwHook
0001fcfc g     F .text	00000158 open
000271fc g     O .bss	00000b40 OSEventTbl
0000ed30 g     F .text	000000e0 .hidden __gedf2
00027d3c g     O .bss	00000510 OSTCBTbl
00016b48 g     F .text	000000fc OSSemSet
00022f80 g     O .rwdata	00000004 __wctomb
0000b208 g     F .text	00000018 __sprint_r
0001f8c8 g     F .text	00000030 alt_icache_flush_all
0001e208 g     F .text	00000074 alt_up_character_lcd_set_cursor_pos
0002301c g     O .rwdata	00000004 alt_priority_mask
000162ec g     F .text	00000268 OSSemDel
00024fa0 g     O .bss	00000004 OSFlagFreeList
00022fb4 g     O .rwdata	00000002 OSEventNameSize
00004b20 g     F .text	00000024 __vfprintf_internal
00024fa4 g     O .bss	00000001 OSStatRdy
0002824c g     O .bss	00000054 OSTCBPrioTbl
0000ce6c g     F .text	0000005c _wctomb_r
00010b04 g     F .text	000000c0 __env_lock
0001ed58 g     F .text	0000008c alt_up_ps2_read_fd
00022ffa g     O .rwdata	00000002 OSTaskSwHookEn
0000f614 g     F .text	000008d0 .hidden __subdf3
0001e6a8 g     F .text	00000090 alt_up_irda_read_fd
00008948 g     F .text	000000b0 __lo0bits
00023020 g     O .rwdata	00000008 alt_alarm_list
00022fc2 g     O .rwdata	00000002 OSFlagWidth
0001f780 g     F .text	0000005c _do_ctors
0001ef70 g     F .text	00000040 alt_up_rs232_get_used_space_in_read_FIFO
0000cd7c g     F .text	000000c0 wcrtomb
00010194 g     F .text	000000d0 close
00024f50 g     O .bss	00000004 alt_envsem
00024fa8 g     O .bss	00000004 OSIdleCtrRun
00011cd4 g     F .text	00000020 OSVersion
0002300c g     O .rwdata	00000002 OSTmrCfgWheelSize
000104e8 g     F .text	00000080 alt_load
000184cc g     F .text	0000006c OS_TaskStkClr
00022fe6 g     O .rwdata	00000002 OSTaskCreateEn
0001a45c g     F .text	0000029c match_file_record_to_name_ext
000122b0 g     F .text	00000064 OS_EventWaitListInit
0000cb20 g     F .text	0000005c fputwc
00020308 g     F .text	0000001c OSTaskIdleHook
00000000  w      *UND*	00000000 free
00006c78 g     F .text	00000004 __sinit_lock_acquire
000086bc g     F .text	00000120 __multadd
0001818c g     F .text	00000214 OSTaskSuspend
00008694 g     F .text	00000028 _Bfree
0001292c g     F .text	0000005c OS_TaskIdle
00023012 g     O .rwdata	00000002 OSTmrTblSize
00015f34 g     F .text	0000015c OSQQuery



Disassembly of section .entry:

00000000 <__reset>:
#if NIOS2_ICACHE_SIZE > 0 && defined(ALT_ALLOW_CODE_AT_RESET) && (!defined(ALT_SIM_OPTIMIZE) || defined(NIOS2_ECC_PRESENT))
    /* Assume the instruction cache size is always a power of two. */
#if NIOS2_ICACHE_SIZE > 0x8000
    movhi r2, %hi(NIOS2_ICACHE_SIZE)
#else
    movui r2, NIOS2_ICACHE_SIZE
   0:	00840014 	movui	r2,4096
#endif

0:
    initi r2
   4:	1001483a 	initi	r2
    addi r2, r2, -NIOS2_ICACHE_LINE_SIZE
   8:	10bff804 	addi	r2,r2,-32
    bgt r2, zero, 0b
   c:	00bffd16 	blt	zero,r2,4 <__alt_mem_Flash_flash_data+0xf4000004>
 * Jump to the _start entry point in the .text section if reset code
 * is allowed or if optimizing for RTL simulation.
 */
#if defined(ALT_ALLOW_CODE_AT_RESET) || defined(ALT_SIM_OPTIMIZE)
    /* Jump to the _start entry point in the .text section. */
    movhi r1, %hi(_start)
  10:	00400034 	movhi	at,0
    ori r1, r1, %lo(_start)
  14:	08409114 	ori	at,at,580
    jmp r1
  18:	0800683a 	jmp	at
  1c:	00000000 	call	0 <__reset>

Disassembly of section .exceptions:

00000020 <alt_exception>:

#else /* ALT_EXCEPTION_STACK disabled */
        /* 
         * Reserve space on normal stack for registers about to be pushed.
         */
        addi  sp, sp, -76
  20:	deffed04 	addi	sp,sp,-76
         * documentation for details).
         *
         * Leave a gap in the stack frame at 4(sp) for the muldiv handler to
         * store zero into.
         */
        stw   ra,  0(sp)
  24:	dfc00015 	stw	ra,0(sp)
        stw   r1,   8(sp)
  28:	d8400215 	stw	at,8(sp)
        stw   r2,  12(sp)
  2c:	d8800315 	stw	r2,12(sp)
        stw   r3,  16(sp)
  30:	d8c00415 	stw	r3,16(sp)
        stw   r4,  20(sp)
  34:	d9000515 	stw	r4,20(sp)
        stw   r5,  24(sp)
  38:	d9400615 	stw	r5,24(sp)
        stw   r6,  28(sp)
  3c:	d9800715 	stw	r6,28(sp)
        stw   r7,  32(sp)
  40:	d9c00815 	stw	r7,32(sp)
        rdctl r5, estatus   /* Read early to avoid usage stall */
  44:	000b307a 	rdctl	r5,estatus
        stw   r8,  36(sp)
  48:	da000915 	stw	r8,36(sp)
        stw   r9,  40(sp)
  4c:	da400a15 	stw	r9,40(sp)
        stw   r10, 44(sp)
  50:	da800b15 	stw	r10,44(sp)
        stw   r11, 48(sp)
  54:	dac00c15 	stw	r11,48(sp)
        stw   r12, 52(sp)
  58:	db000d15 	stw	r12,52(sp)
        stw   r13, 56(sp)
  5c:	db400e15 	stw	r13,56(sp)
        stw   r14, 60(sp)
  60:	db800f15 	stw	r14,60(sp)
        stw   r15, 64(sp)
  64:	dbc01015 	stw	r15,64(sp)
        /*
         * ea-4 contains the address of the instruction being executed
         * when the exception occured. For interrupt exceptions, we will
         * will be re-issue the isntruction. Store it in 72(sp)
         */
        stw   r5,  68(sp)  /* estatus */
  68:	d9401115 	stw	r5,68(sp)
        addi  r15, ea, -4  /* instruction that caused exception */
  6c:	ebffff04 	addi	r15,ea,-4
        stw   r15,  72(sp)
  70:	dbc01215 	stw	r15,72(sp)
#else
        /*
         * Test to see if the exception was a software exception or caused 
         * by an external interrupt, and vector accordingly.
         */
        rdctl r4, ipending
  74:	0009313a 	rdctl	r4,ipending
        andi  r2, r5, 1
  78:	2880004c 	andi	r2,r5,1
        beq   r2, zero, .Lnot_irq
  7c:	10000326 	beq	r2,zero,8c <OSCtxSw_SWITCH_PC+0x4c>
        beq   r4, zero, .Lnot_irq
  80:	20000226 	beq	r4,zero,8c <OSCtxSw_SWITCH_PC+0x4c>
        /*
         * Now that all necessary registers have been preserved, call 
         * alt_irq_handler() to process the interrupts.
         */

        call alt_irq_handler
  84:	00000fc0 	call	fc <alt_irq_handler>

        .section .exceptions.irqreturn, "xa"

        br    .Lexception_exit
  88:	00000706 	br	a8 <OSCtxSw_SWITCH_PC+0x68>
         * upon completion, so we write ea (address of instruction *after*
         * the one where the exception occured) into 72(sp). The actual
         * instruction that caused the exception is written in r2, which these
         * handlers will utilize.
         */
        stw   ea,  72(sp)  /* Don't re-issue */
  8c:	df401215 	stw	ea,72(sp)
        ldhu.n  r2, 0(r4)
        ldhu.n  r3, 2(r4)
        slli.n  r3, r3, 16
        or.n    r2, r2, r3 /* Instruction that caused exception */
#else
        ldw   r2, -4(ea)   /* Instruction that caused exception */
  90:	e8bfff17 	ldw	r2,-4(ea)
         * debugger is present) or go into an infinite loop since the
         * handling behavior is undefined; in that case we will not return here.
         */

        /* Load exception-causing address as first argument (r4) */
        addi   r4, ea, -4
  94:	e93fff04 	addi	r4,ea,-4

        /* Call the instruction-exception entry */
        call   alt_instruction_exception_entry
  98:	00001d00 	call	1d0 <alt_instruction_exception_entry>
         * instruction
         *
         * Return code was 0: Skip. The instruction after the exception is
         * already stored in 72(sp).
         */
        bne   r2, r0, .Lexception_exit
  9c:	1000021e 	bne	r2,zero,a8 <OSCtxSw_SWITCH_PC+0x68>

        /*
         * Otherwise, modify 72(sp) to re-issue the instruction that caused the
         * exception.
         */
        addi  r15, ea, -4  /* instruction that caused exception */
  a0:	ebffff04 	addi	r15,ea,-4
        stw   r15,  72(sp)
  a4:	dbc01215 	stw	r15,72(sp)
        /* 
         * Restore the saved registers, so that all general purpose registers 
         * have been restored to their state at the time the interrupt occured.
         */

        ldw   r5,  68(sp)
  a8:	d9401117 	ldw	r5,68(sp)
        ldw   ea,  72(sp)  /* This becomes the PC once eret is executed */
  ac:	df401217 	ldw	ea,72(sp)
        ldw   ra,   0(sp)
  b0:	dfc00017 	ldw	ra,0(sp)

        wrctl estatus, r5
  b4:	2801707a 	wrctl	estatus,r5

        ldw   r1,   8(sp)
  b8:	d8400217 	ldw	at,8(sp)
        ldw   r2,  12(sp)
  bc:	d8800317 	ldw	r2,12(sp)
        ldw   r3,  16(sp)
  c0:	d8c00417 	ldw	r3,16(sp)
        ldw   r4,  20(sp)
  c4:	d9000517 	ldw	r4,20(sp)
        ldw   r5,  24(sp)
  c8:	d9400617 	ldw	r5,24(sp)
        ldw   r6,  28(sp)
  cc:	d9800717 	ldw	r6,28(sp)
        ldw   r7,  32(sp)
  d0:	d9c00817 	ldw	r7,32(sp)

#if defined(ALT_EXCEPTION_STACK) && defined(ALT_STACK_CHECK)
        ldw   et, %gprel(alt_exception_old_stack_limit)(gp)
#endif

        ldw   r8,  36(sp)
  d4:	da000917 	ldw	r8,36(sp)
        ldw   r9,  40(sp)
  d8:	da400a17 	ldw	r9,40(sp)
        ldw   r10, 44(sp)
  dc:	da800b17 	ldw	r10,44(sp)
        ldw   r11, 48(sp)
  e0:	dac00c17 	ldw	r11,48(sp)
        ldw   r12, 52(sp)
  e4:	db000d17 	ldw	r12,52(sp)
        ldw   r13, 56(sp)
  e8:	db400e17 	ldw	r13,56(sp)
        ldw   r14, 60(sp)
  ec:	db800f17 	ldw	r14,60(sp)
        ldw   r15, 64(sp)
  f0:	dbc01017 	ldw	r15,64(sp)
        stw   et, %gprel(alt_stack_limit_value)(gp)
        stw   zero, %gprel(alt_exception_old_stack_limit)(gp)
#endif /* ALT_STACK_CHECK */
        ldw   sp,  76(sp)
#else /* ALT_EXCEPTION_STACK disabled */
        addi  sp, sp, 76
  f4:	dec01304 	addi	sp,sp,76

        /*
         * Return to the interrupted instruction.
         */

        eret
  f8:	ef80083a 	eret

000000fc <alt_irq_handler>:
 * instruction is present if the macro ALT_CI_INTERRUPT_VECTOR defined.
 */

void alt_irq_handler (void) __attribute__ ((section (".exceptions")));
void alt_irq_handler (void)
{
  fc:	defff904 	addi	sp,sp,-28
 100:	dfc00615 	stw	ra,24(sp)
 104:	df000515 	stw	fp,20(sp)
 108:	df000504 	addi	fp,sp,20
  
  /*
   * Notify the operating system that we are at interrupt level.
   */ 
  
  ALT_OS_INT_ENTER();
 10c:	00116d00 	call	116d0 <OSIntEnter>
#ifndef NIOS2_EIC_PRESENT
static ALT_INLINE alt_u32 ALT_ALWAYS_INLINE alt_irq_pending (void)
{
  alt_u32 active;

  NIOS2_READ_IPENDING (active);
 110:	0005313a 	rdctl	r2,ipending
 114:	e0bffe15 	stw	r2,-8(fp)

  return active;
 118:	e0bffe17 	ldw	r2,-8(fp)
   * Consider the case where the high priority interupt is asserted during
   * the interrupt entry sequence for a lower priority interrupt to see why
   * this is the case.
   */

  active = alt_irq_pending ();
 11c:	e0bffb15 	stw	r2,-20(fp)

  do
  {
    i = 0;
 120:	e03ffd15 	stw	zero,-12(fp)
    mask = 1;
 124:	00800044 	movi	r2,1
 128:	e0bffc15 	stw	r2,-16(fp)
     * called to clear the interrupt condition.
     */

    do
    {
      if (active & mask)
 12c:	e0fffb17 	ldw	r3,-20(fp)
 130:	e0bffc17 	ldw	r2,-16(fp)
 134:	1884703a 	and	r2,r3,r2
 138:	10001526 	beq	r2,zero,190 <alt_irq_handler+0x94>
      { 
#ifdef ALT_ENHANCED_INTERRUPT_API_PRESENT
        alt_irq[i].handler(alt_irq[i].context); 
#else
        alt_irq[i].handler(alt_irq[i].context, i); 
 13c:	008000f4 	movhi	r2,3
 140:	10a20204 	addi	r2,r2,-30712
 144:	e0fffd17 	ldw	r3,-12(fp)
 148:	180690fa 	slli	r3,r3,3
 14c:	10c5883a 	add	r2,r2,r3
 150:	10c00017 	ldw	r3,0(r2)
 154:	008000f4 	movhi	r2,3
 158:	10a20204 	addi	r2,r2,-30712
 15c:	e13ffd17 	ldw	r4,-12(fp)
 160:	200890fa 	slli	r4,r4,3
 164:	21000104 	addi	r4,r4,4
 168:	1105883a 	add	r2,r2,r4
 16c:	10800017 	ldw	r2,0(r2)
 170:	1009883a 	mov	r4,r2
 174:	e17ffd17 	ldw	r5,-12(fp)
 178:	183ee83a 	callr	r3
#endif
        break;
 17c:	0001883a 	nop
#ifndef NIOS2_EIC_PRESENT
static ALT_INLINE alt_u32 ALT_ALWAYS_INLINE alt_irq_pending (void)
{
  alt_u32 active;

  NIOS2_READ_IPENDING (active);
 180:	0005313a 	rdctl	r2,ipending
 184:	e0bfff15 	stw	r2,-4(fp)

  return active;
 188:	e0bfff17 	ldw	r2,-4(fp)
 18c:	00000706 	br	1ac <alt_irq_handler+0xb0>
      }
      mask <<= 1;
 190:	e0bffc17 	ldw	r2,-16(fp)
 194:	1085883a 	add	r2,r2,r2
 198:	e0bffc15 	stw	r2,-16(fp)
      i++;
 19c:	e0bffd17 	ldw	r2,-12(fp)
 1a0:	10800044 	addi	r2,r2,1
 1a4:	e0bffd15 	stw	r2,-12(fp)

    } while (1);
 1a8:	003fe006 	br	12c <__alt_mem_Flash_flash_data+0xf400012c>

    active = alt_irq_pending ();
 1ac:	e0bffb15 	stw	r2,-20(fp)
    
  } while (active);
 1b0:	e0bffb17 	ldw	r2,-20(fp)
 1b4:	103fda1e 	bne	r2,zero,120 <__alt_mem_Flash_flash_data+0xf4000120>

  /*
   * Notify the operating system that interrupt processing is complete.
   */ 

  ALT_OS_INT_EXIT();
 1b8:	001174c0 	call	1174c <OSIntExit>
}
 1bc:	e037883a 	mov	sp,fp
 1c0:	dfc00117 	ldw	ra,4(sp)
 1c4:	df000017 	ldw	fp,0(sp)
 1c8:	dec00204 	addi	sp,sp,8
 1cc:	f800283a 	ret

000001d0 <alt_instruction_exception_entry>:
 * that handler if it has been registered. Absent a handler, it will
 * break break or hang as discussed below.
 */
int 
alt_instruction_exception_entry (alt_u32 exception_pc)
{
 1d0:	defffb04 	addi	sp,sp,-20
 1d4:	dfc00415 	stw	ra,16(sp)
 1d8:	df000315 	stw	fp,12(sp)
 1dc:	df000304 	addi	fp,sp,12
 1e0:	e13fff15 	stw	r4,-4(fp)
 * NIOS2_EXCEPTION_CAUSE_NOT_PRESENT. Your handling routine should
 * check the validity of the cause argument before proceeding.
 */
#ifdef NIOS2_HAS_EXTRA_EXCEPTION_INFO
  /* Get exception cause & "badaddr" */
  NIOS2_READ_EXCEPTION(cause);
 1e4:	000531fa 	rdctl	r2,exception
 1e8:	e0bffd15 	stw	r2,-12(fp)
  cause = ( (cause & NIOS2_EXCEPTION_REG_CAUSE_MASK) >>
 1ec:	e0bffd17 	ldw	r2,-12(fp)
 1f0:	10801f0c 	andi	r2,r2,124
 1f4:	1004d0ba 	srli	r2,r2,2
 1f8:	e0bffd15 	stw	r2,-12(fp)
              NIOS2_EXCEPTION_REG_CAUSE_OFST );

  NIOS2_READ_BADADDR(badaddr);
 1fc:	0005333a 	rdctl	r2,badaddr
 200:	e0bffe15 	stw	r2,-8(fp)
#else
  cause = NIOS2_EXCEPTION_CAUSE_NOT_PRESENT;
  badaddr = 0;
#endif /* NIOS2_HAS_EXTRA_EXCEPTION_INFO */

  if(alt_instruction_exception_handler) {
 204:	d0a82017 	ldw	r2,-24448(gp)
 208:	10000726 	beq	r2,zero,228 <alt_instruction_exception_entry+0x58>
     * Call handler. Its return value indicates whether the exception-causing
     * instruction should be re-issued. The code that called us,
     * alt_eceptions_entry.S, will look at this value and adjust the ea
     * register as necessary
     */
    return alt_instruction_exception_handler(cause, exception_pc, badaddr);
 20c:	d0a82017 	ldw	r2,-24448(gp)
 210:	e0fffd17 	ldw	r3,-12(fp)
 214:	1809883a 	mov	r4,r3
 218:	e17fff17 	ldw	r5,-4(fp)
 21c:	e1bffe17 	ldw	r6,-8(fp)
 220:	103ee83a 	callr	r2
 224:	00000206 	br	230 <alt_instruction_exception_entry+0x60>
   *    (a peripheral which negates its interrupt output before its
   *    interrupt handler has been executed will cause spurious interrupts)
   */
  else {
#ifdef NIOS2_HAS_DEBUG_STUB
    NIOS2_BREAK();
 228:	003da03a 	break	0
      ;
#endif /* NIOS2_HAS_DEBUG_STUB */
  }

  /* We should not get here. Remove compiler warning. */
  return NIOS2_EXCEPTION_RETURN_REISSUE_INST;
 22c:	0005883a 	mov	r2,zero
}
 230:	e037883a 	mov	sp,fp
 234:	dfc00117 	ldw	ra,4(sp)
 238:	df000017 	ldw	fp,0(sp)
 23c:	dec00204 	addi	sp,sp,8
 240:	f800283a 	ret

Disassembly of section .text:

00000244 <_start>:

    /*
     * Now that the caches are initialized, set up the stack pointer and global pointer.
     * The values provided by the linker are assumed to be correctly aligned.
     */
    movhi sp, %hi(__alt_stack_pointer)
     244:	06c10034 	movhi	sp,1024
    ori sp, sp, %lo(__alt_stack_pointer)
     248:	dec00014 	ori	sp,sp,0
    movhi gp, %hi(_gp)
     24c:	068000b4 	movhi	gp,2
    ori gp, gp, %lo(_gp)
     250:	d6abdb14 	ori	gp,gp,44908
 */
#ifndef ALT_SIM_OPTIMIZE
    /* Log that the BSS is about to be cleared. */
    ALT_LOG_PUTS(alt_log_msg_bss)

    movhi r2, %hi(__bss_start)
     254:	008000b4 	movhi	r2,2
    ori r2, r2, %lo(__bss_start)
     258:	1093c814 	ori	r2,r2,20256

    movhi r3, %hi(__bss_end)
     25c:	00c000b4 	movhi	r3,2
    ori r3, r3, %lo(__bss_end)
     260:	18e24214 	ori	r3,r3,35080

    beq r2, r3, 1f
     264:	10c00326 	beq	r2,r3,274 <_start+0x30>

0:
    stw zero, (r2)
     268:	10000015 	stw	zero,0(r2)
    addi r2, r2, 4
     26c:	10800104 	addi	r2,r2,4
    bltu r2, r3, 0b
     270:	10fffd36 	bltu	r2,r3,268 <__alt_mem_Flash_flash_data+0xf4000268>
     * section aren't defined until alt_load() has been called).
     */
    mov   et, zero
#endif

    call alt_load
     274:	00104e80 	call	104e8 <alt_load>

    /* Log that alt_main is about to be called. */
    ALT_LOG_PUTS(alt_log_msg_alt_main)

    /* Call the C entry point. It should never return. */
    call alt_main
     278:	001068c0 	call	1068c <alt_main>

0000027c <alt_after_alt_main>:

    /* Wait in infinite loop in case alt_main does return. */
alt_after_alt_main:
    br alt_after_alt_main
     27c:	003fff06 	br	27c <__alt_mem_Flash_flash_data+0xf400027c>

00000280 <read_file>:
			{""},
			{""},
};

void read_file()
{
     280:	defffa04 	addi	sp,sp,-24
     284:	dfc00515 	stw	ra,20(sp)
     288:	df000415 	stw	fp,16(sp)
     28c:	df000404 	addi	fp,sp,16
	short int Read;
	Read = alt_up_sd_card_fopen("hoi.txt", false);
     290:	010000b4 	movhi	r4,2
     294:	21028a04 	addi	r4,r4,2600
     298:	000b883a 	mov	r5,zero
     29c:	001c1a40 	call	1c1a4 <alt_up_sd_card_fopen>
     2a0:	e0bfff0d 	sth	r2,-4(fp)

	int i = 0;
     2a4:	e03ffc15 	stw	zero,-16(fp)

	char buffer[1] = "";
     2a8:	e03fff85 	stb	zero,-2(fp)
	short int c = 1;
     2ac:	00800044 	movi	r2,1
     2b0:	e0bffd0d 	sth	r2,-12(fp)

	c = alt_up_sd_card_read(Read);
     2b4:	e0bfff0f 	ldh	r2,-4(fp)
     2b8:	1009883a 	mov	r4,r2
     2bc:	001c6340 	call	1c634 <alt_up_sd_card_read>
     2c0:	e0bffd0d 	sth	r2,-12(fp)

	while (c != -1){
     2c4:	00001b06 	br	334 <read_file+0xb4>
		if(c == '|'){		//check voor komma
     2c8:	e0bffd0f 	ldh	r2,-12(fp)
     2cc:	10801f18 	cmpnei	r2,r2,124
     2d0:	1000041e 	bne	r2,zero,2e4 <read_file+0x64>
			i++;
     2d4:	e0bffc17 	ldw	r2,-16(fp)
     2d8:	10800044 	addi	r2,r2,1
     2dc:	e0bffc15 	stw	r2,-16(fp)
     2e0:	00001006 	br	324 <read_file+0xa4>
		}else{
			sprintf(buffer, "%c", c);
     2e4:	e0bffd0f 	ldh	r2,-12(fp)
     2e8:	e0ffff84 	addi	r3,fp,-2
     2ec:	1809883a 	mov	r4,r3
     2f0:	014000b4 	movhi	r5,2
     2f4:	29428c04 	addi	r5,r5,2608
     2f8:	100d883a 	mov	r6,r2
     2fc:	0000a240 	call	a24 <sprintf>
			strcat(highscores[i], buffer);
     300:	e0bffc17 	ldw	r2,-16(fp)
     304:	10c00524 	muli	r3,r2,20
     308:	008000b4 	movhi	r2,2
     30c:	1093fc04 	addi	r2,r2,20464
     310:	1887883a 	add	r3,r3,r2
     314:	e0bfff84 	addi	r2,fp,-2
     318:	1809883a 	mov	r4,r3
     31c:	100b883a 	mov	r5,r2
     320:	0000a900 	call	a90 <strcat>
		}
		c = alt_up_sd_card_read(Read);		//lees volgende char
     324:	e0bfff0f 	ldh	r2,-4(fp)
     328:	1009883a 	mov	r4,r2
     32c:	001c6340 	call	1c634 <alt_up_sd_card_read>
     330:	e0bffd0d 	sth	r2,-12(fp)
	char buffer[1] = "";
	short int c = 1;

	c = alt_up_sd_card_read(Read);

	while (c != -1){
     334:	e0bffd0f 	ldh	r2,-12(fp)
     338:	10bfffd8 	cmpnei	r2,r2,-1
     33c:	103fe21e 	bne	r2,zero,2c8 <__alt_mem_Flash_flash_data+0xf40002c8>
		}
		c = alt_up_sd_card_read(Read);		//lees volgende char
	}

	int j;
	for(j = 0; j < 5; j++){
     340:	e03ffe15 	stw	zero,-8(fp)
     344:	00000d06 	br	37c <read_file+0xfc>
		printf("Number is : %d data :%s\n",j , highscores[j]);
     348:	e0bffe17 	ldw	r2,-8(fp)
     34c:	10c00524 	muli	r3,r2,20
     350:	008000b4 	movhi	r2,2
     354:	1093fc04 	addi	r2,r2,20464
     358:	1885883a 	add	r2,r3,r2
     35c:	010000b4 	movhi	r4,2
     360:	21028d04 	addi	r4,r4,2612
     364:	e17ffe17 	ldw	r5,-8(fp)
     368:	100d883a 	mov	r6,r2
     36c:	00008b40 	call	8b4 <printf>
		}
		c = alt_up_sd_card_read(Read);		//lees volgende char
	}

	int j;
	for(j = 0; j < 5; j++){
     370:	e0bffe17 	ldw	r2,-8(fp)
     374:	10800044 	addi	r2,r2,1
     378:	e0bffe15 	stw	r2,-8(fp)
     37c:	e0bffe17 	ldw	r2,-8(fp)
     380:	10800150 	cmplti	r2,r2,5
     384:	103ff01e 	bne	r2,zero,348 <__alt_mem_Flash_flash_data+0xf4000348>
		printf("Number is : %d data :%s\n",j , highscores[j]);
	}

	//alt_up_sd_card_fclose(Read);						//sluit het bestand
}
     388:	e037883a 	mov	sp,fp
     38c:	dfc00117 	ldw	ra,4(sp)
     390:	df000017 	ldw	fp,0(sp)
     394:	dec00204 	addi	sp,sp,8
     398:	f800283a 	ret

0000039c <write_file>:

void write_file(char input[]){
     39c:	defffb04 	addi	sp,sp,-20
     3a0:	dfc00415 	stw	ra,16(sp)
     3a4:	df000315 	stw	fp,12(sp)
     3a8:	df000304 	addi	fp,sp,12
     3ac:	e13fff15 	stw	r4,-4(fp)
	short int Write;
	Write = alt_up_sd_card_fopen("hoi.txt", false);
     3b0:	010000b4 	movhi	r4,2
     3b4:	21028a04 	addi	r4,r4,2600
     3b8:	000b883a 	mov	r5,zero
     3bc:	001c1a40 	call	1c1a4 <alt_up_sd_card_fopen>
     3c0:	e0bffe0d 	sth	r2,-8(fp)
	int i = 0;
     3c4:	e03ffd15 	stw	zero,-12(fp)
	bool writing;
	if(Write < 0){
     3c8:	e0bffe0f 	ldh	r2,-8(fp)
     3cc:	1000040e 	bge	r2,zero,3e0 <write_file+0x44>
		printf("Can't open\n");
     3d0:	010000b4 	movhi	r4,2
     3d4:	21029404 	addi	r4,r4,2640
     3d8:	00009b80 	call	9b8 <puts>
     3dc:	00002606 	br	478 <write_file+0xdc>
	}else{
		while(input[i] != '\0'){
     3e0:	00001706 	br	440 <write_file+0xa4>
			writing = alt_up_sd_card_write(Write, input[i]);
     3e4:	e13ffe0f 	ldh	r4,-8(fp)
     3e8:	e0bffd17 	ldw	r2,-12(fp)
     3ec:	e0ffff17 	ldw	r3,-4(fp)
     3f0:	1885883a 	add	r2,r3,r2
     3f4:	10800003 	ldbu	r2,0(r2)
     3f8:	10803fcc 	andi	r2,r2,255
     3fc:	1080201c 	xori	r2,r2,128
     400:	10bfe004 	addi	r2,r2,-128
     404:	100b883a 	mov	r5,r2
     408:	001c9ac0 	call	1c9ac <alt_up_sd_card_write>
     40c:	e0bffe85 	stb	r2,-6(fp)
			printf("%c", input[i]);
     410:	e0bffd17 	ldw	r2,-12(fp)
     414:	e0ffff17 	ldw	r3,-4(fp)
     418:	1885883a 	add	r2,r3,r2
     41c:	10800003 	ldbu	r2,0(r2)
     420:	10803fcc 	andi	r2,r2,255
     424:	1080201c 	xori	r2,r2,128
     428:	10bfe004 	addi	r2,r2,-128
     42c:	1009883a 	mov	r4,r2
     430:	00008f80 	call	8f8 <putchar>
			i++;
     434:	e0bffd17 	ldw	r2,-12(fp)
     438:	10800044 	addi	r2,r2,1
     43c:	e0bffd15 	stw	r2,-12(fp)
	int i = 0;
	bool writing;
	if(Write < 0){
		printf("Can't open\n");
	}else{
		while(input[i] != '\0'){
     440:	e0bffd17 	ldw	r2,-12(fp)
     444:	e0ffff17 	ldw	r3,-4(fp)
     448:	1885883a 	add	r2,r3,r2
     44c:	10800003 	ldbu	r2,0(r2)
     450:	10803fcc 	andi	r2,r2,255
     454:	1080201c 	xori	r2,r2,128
     458:	10bfe004 	addi	r2,r2,-128
     45c:	103fe11e 	bne	r2,zero,3e4 <__alt_mem_Flash_flash_data+0xf40003e4>
			writing = alt_up_sd_card_write(Write, input[i]);
			printf("%c", input[i]);
			i++;
		}
		alt_up_sd_card_fclose(Write);
     460:	e0bffe0f 	ldh	r2,-8(fp)
     464:	1009883a 	mov	r4,r2
     468:	001cfd00 	call	1cfd0 <alt_up_sd_card_fclose>
		printf("\nFile is geschreven\n");
     46c:	010000b4 	movhi	r4,2
     470:	21029704 	addi	r4,r4,2652
     474:	00009b80 	call	9b8 <puts>
	}

}
     478:	e037883a 	mov	sp,fp
     47c:	dfc00117 	ldw	ra,4(sp)
     480:	df000017 	ldw	fp,0(sp)
     484:	dec00204 	addi	sp,sp,8
     488:	f800283a 	ret

0000048c <sorteer>:

void sorteer(){
     48c:	defff204 	addi	sp,sp,-56
     490:	dfc00d15 	stw	ra,52(sp)
     494:	df000c15 	stw	fp,48(sp)
     498:	df000c04 	addi	fp,sp,48
	int score3 = 102;
     49c:	00801984 	movi	r2,102
     4a0:	e0bff715 	stw	r2,-36(fp)
	int i, j, k;
	int hoogste;

	char letter1, letter2, letter3;
	char letters[4] = {'A','B','C'};
     4a4:	e03ff915 	stw	zero,-28(fp)
     4a8:	00801044 	movi	r2,65
     4ac:	e0bff905 	stb	r2,-28(fp)
     4b0:	00801084 	movi	r2,66
     4b4:	e0bff945 	stb	r2,-27(fp)
     4b8:	008010c4 	movi	r2,67
     4bc:	e0bff985 	stb	r2,-26(fp)
	char cijfers[4];

	cijfers[0] = score3 /100;
     4c0:	e0fff717 	ldw	r3,-36(fp)
     4c4:	00801904 	movi	r2,100
     4c8:	1885283a 	div	r2,r3,r2
     4cc:	e0bffa05 	stb	r2,-24(fp)
	cijfers[1] = score3 /10 %10;
     4d0:	e0fff717 	ldw	r3,-36(fp)
     4d4:	00800284 	movi	r2,10
     4d8:	1885283a 	div	r2,r3,r2
     4dc:	00c00284 	movi	r3,10
     4e0:	10c7283a 	div	r3,r2,r3
     4e4:	18c002a4 	muli	r3,r3,10
     4e8:	10c5c83a 	sub	r2,r2,r3
     4ec:	e0bffa45 	stb	r2,-23(fp)
	cijfers[3] = score3 %10;
     4f0:	e0bff717 	ldw	r2,-36(fp)
     4f4:	00c00284 	movi	r3,10
     4f8:	10c7283a 	div	r3,r2,r3
     4fc:	18c002a4 	muli	r3,r3,10
     500:	10c5c83a 	sub	r2,r2,r3
     504:	e0bffac5 	stb	r2,-21(fp)

	char nieuw[20] = "";
     508:	e03ffb15 	stw	zero,-20(fp)
     50c:	e03ffc15 	stw	zero,-16(fp)
     510:	e03ffd15 	stw	zero,-12(fp)
     514:	e03ffe15 	stw	zero,-8(fp)
     518:	e03fff15 	stw	zero,-4(fp)

	for(i = 0; i < 5; i++){
     51c:	e03ff415 	stw	zero,-48(fp)
     520:	00006406 	br	6b4 <sorteer+0x228>
		hoogste = ((highscores[i][4] - '0') *100) +
     524:	008000b4 	movhi	r2,2
     528:	1093fc04 	addi	r2,r2,20464
     52c:	e0fff417 	ldw	r3,-48(fp)
     530:	18c00524 	muli	r3,r3,20
     534:	18c00104 	addi	r3,r3,4
     538:	10c5883a 	add	r2,r2,r3
     53c:	10800003 	ldbu	r2,0(r2)
     540:	10803fcc 	andi	r2,r2,255
     544:	1080201c 	xori	r2,r2,128
     548:	10bfe004 	addi	r2,r2,-128
     54c:	10bff404 	addi	r2,r2,-48
     550:	10c01924 	muli	r3,r2,100
				   ((highscores[i][5] - '0') *10) +
     554:	008000b4 	movhi	r2,2
     558:	1093fc04 	addi	r2,r2,20464
     55c:	e13ff417 	ldw	r4,-48(fp)
     560:	21000524 	muli	r4,r4,20
     564:	21000144 	addi	r4,r4,5
     568:	1105883a 	add	r2,r2,r4
     56c:	10800003 	ldbu	r2,0(r2)
     570:	10803fcc 	andi	r2,r2,255
     574:	1080201c 	xori	r2,r2,128
     578:	10bfe004 	addi	r2,r2,-128
     57c:	10bff404 	addi	r2,r2,-48
     580:	108002a4 	muli	r2,r2,10
	cijfers[3] = score3 %10;

	char nieuw[20] = "";

	for(i = 0; i < 5; i++){
		hoogste = ((highscores[i][4] - '0') *100) +
     584:	1887883a 	add	r3,r3,r2
				   ((highscores[i][5] - '0') *10) +
				   (highscores[i][6] - '0');
     588:	008000b4 	movhi	r2,2
     58c:	1093fc04 	addi	r2,r2,20464
     590:	e13ff417 	ldw	r4,-48(fp)
     594:	21000524 	muli	r4,r4,20
     598:	21000184 	addi	r4,r4,6
     59c:	1105883a 	add	r2,r2,r4
     5a0:	10800003 	ldbu	r2,0(r2)
     5a4:	10803fcc 	andi	r2,r2,255
     5a8:	1080201c 	xori	r2,r2,128
     5ac:	10bfe004 	addi	r2,r2,-128
     5b0:	10bff404 	addi	r2,r2,-48
	cijfers[3] = score3 %10;

	char nieuw[20] = "";

	for(i = 0; i < 5; i++){
		hoogste = ((highscores[i][4] - '0') *100) +
     5b4:	1885883a 	add	r2,r3,r2
     5b8:	e0bff815 	stw	r2,-32(fp)
				   ((highscores[i][5] - '0') *10) +
				   (highscores[i][6] - '0');
		if(hoogste < score3){
     5bc:	e0fff817 	ldw	r3,-32(fp)
     5c0:	e0bff717 	ldw	r2,-36(fp)
     5c4:	1880350e 	bge	r3,r2,69c <sorteer+0x210>

			schuifScores(i);
     5c8:	e13ff417 	ldw	r4,-48(fp)
     5cc:	00006d80 	call	6d8 <schuifScores>
			printf("score = hoger dan %de score\n", i);
     5d0:	010000b4 	movhi	r4,2
     5d4:	21029c04 	addi	r4,r4,2672
     5d8:	e17ff417 	ldw	r5,-48(fp)
     5dc:	00008b40 	call	8b4 <printf>
			for(j = 0; j < 3; j++){
     5e0:	e03ff515 	stw	zero,-44(fp)
     5e4:	00000f06 	br	624 <sorteer+0x198>
				highscores[i][j] = letters[j];
     5e8:	e0fff904 	addi	r3,fp,-28
     5ec:	e0bff517 	ldw	r2,-44(fp)
     5f0:	1885883a 	add	r2,r3,r2
     5f4:	10c00003 	ldbu	r3,0(r2)
     5f8:	008000b4 	movhi	r2,2
     5fc:	1093fc04 	addi	r2,r2,20464
     600:	e13ff417 	ldw	r4,-48(fp)
     604:	21400524 	muli	r5,r4,20
     608:	e13ff517 	ldw	r4,-44(fp)
     60c:	2909883a 	add	r4,r5,r4
     610:	1105883a 	add	r2,r2,r4
     614:	10c00005 	stb	r3,0(r2)
				   (highscores[i][6] - '0');
		if(hoogste < score3){

			schuifScores(i);
			printf("score = hoger dan %de score\n", i);
			for(j = 0; j < 3; j++){
     618:	e0bff517 	ldw	r2,-44(fp)
     61c:	10800044 	addi	r2,r2,1
     620:	e0bff515 	stw	r2,-44(fp)
     624:	e0bff517 	ldw	r2,-44(fp)
     628:	108000d0 	cmplti	r2,r2,3
     62c:	103fee1e 	bne	r2,zero,5e8 <__alt_mem_Flash_flash_data+0xf40005e8>
				highscores[i][j] = letters[j];
			}
			for(k = 0; k < 3; k++){
     630:	e03ff615 	stw	zero,-40(fp)
     634:	00001206 	br	680 <sorteer+0x1f4>
				highscores[i][4 + k] = cijfers[k] + '0';
     638:	e0bff617 	ldw	r2,-40(fp)
     63c:	10c00104 	addi	r3,r2,4
     640:	e13ffa04 	addi	r4,fp,-24
     644:	e0bff617 	ldw	r2,-40(fp)
     648:	2085883a 	add	r2,r4,r2
     64c:	10800003 	ldbu	r2,0(r2)
     650:	10800c04 	addi	r2,r2,48
     654:	100b883a 	mov	r5,r2
     658:	008000b4 	movhi	r2,2
     65c:	1093fc04 	addi	r2,r2,20464
     660:	e13ff417 	ldw	r4,-48(fp)
     664:	21000524 	muli	r4,r4,20
     668:	20c7883a 	add	r3,r4,r3
     66c:	10c5883a 	add	r2,r2,r3
     670:	11400005 	stb	r5,0(r2)
			schuifScores(i);
			printf("score = hoger dan %de score\n", i);
			for(j = 0; j < 3; j++){
				highscores[i][j] = letters[j];
			}
			for(k = 0; k < 3; k++){
     674:	e0bff617 	ldw	r2,-40(fp)
     678:	10800044 	addi	r2,r2,1
     67c:	e0bff615 	stw	r2,-40(fp)
     680:	e0bff617 	ldw	r2,-40(fp)
     684:	108000d0 	cmplti	r2,r2,3
     688:	103feb1e 	bne	r2,zero,638 <__alt_mem_Flash_flash_data+0xf4000638>
				highscores[i][4 + k] = cijfers[k] + '0';
			}
			write_file(highscores);
     68c:	010000b4 	movhi	r4,2
     690:	2113fc04 	addi	r4,r4,20464
     694:	000039c0 	call	39c <write_file>
			break;
     698:	00000906 	br	6c0 <sorteer+0x234>
		}

		else{
			printf("score is niet hoger\n");
     69c:	010000b4 	movhi	r4,2
     6a0:	2102a404 	addi	r4,r4,2704
     6a4:	00009b80 	call	9b8 <puts>
	cijfers[1] = score3 /10 %10;
	cijfers[3] = score3 %10;

	char nieuw[20] = "";

	for(i = 0; i < 5; i++){
     6a8:	e0bff417 	ldw	r2,-48(fp)
     6ac:	10800044 	addi	r2,r2,1
     6b0:	e0bff415 	stw	r2,-48(fp)
     6b4:	e0bff417 	ldw	r2,-48(fp)
     6b8:	10800150 	cmplti	r2,r2,5
     6bc:	103f991e 	bne	r2,zero,524 <__alt_mem_Flash_flash_data+0xf4000524>
			printf("score is niet hoger\n");
		}


	}
	read_file();
     6c0:	00002800 	call	280 <read_file>

}
     6c4:	e037883a 	mov	sp,fp
     6c8:	dfc00117 	ldw	ra,4(sp)
     6cc:	df000017 	ldw	fp,0(sp)
     6d0:	dec00204 	addi	sp,sp,8
     6d4:	f800283a 	ret

000006d8 <schuifScores>:

void schuifScores(int nummer){
     6d8:	defffc04 	addi	sp,sp,-16
     6dc:	dfc00315 	stw	ra,12(sp)
     6e0:	df000215 	stw	fp,8(sp)
     6e4:	df000204 	addi	fp,sp,8
     6e8:	e13fff15 	stw	r4,-4(fp)
	int i;
	for(i = 5; i > nummer; i--){
     6ec:	00800144 	movi	r2,5
     6f0:	e0bffe15 	stw	r2,-8(fp)
     6f4:	00001006 	br	738 <schuifScores+0x60>
		strcpy(highscores[i], highscores[i-1]);
     6f8:	e0bffe17 	ldw	r2,-8(fp)
     6fc:	10c00524 	muli	r3,r2,20
     700:	008000b4 	movhi	r2,2
     704:	1093fc04 	addi	r2,r2,20464
     708:	1889883a 	add	r4,r3,r2
     70c:	e0bffe17 	ldw	r2,-8(fp)
     710:	10bfffc4 	addi	r2,r2,-1
     714:	10c00524 	muli	r3,r2,20
     718:	008000b4 	movhi	r2,2
     71c:	1093fc04 	addi	r2,r2,20464
     720:	1885883a 	add	r2,r3,r2
     724:	100b883a 	mov	r5,r2
     728:	0000b180 	call	b18 <strcpy>

}

void schuifScores(int nummer){
	int i;
	for(i = 5; i > nummer; i--){
     72c:	e0bffe17 	ldw	r2,-8(fp)
     730:	10bfffc4 	addi	r2,r2,-1
     734:	e0bffe15 	stw	r2,-8(fp)
     738:	e0bffe17 	ldw	r2,-8(fp)
     73c:	e0ffff17 	ldw	r3,-4(fp)
     740:	18bfed16 	blt	r3,r2,6f8 <__alt_mem_Flash_flash_data+0xf40006f8>
		strcpy(highscores[i], highscores[i-1]);
	}


}
     744:	e037883a 	mov	sp,fp
     748:	dfc00117 	ldw	ra,4(sp)
     74c:	df000017 	ldw	fp,0(sp)
     750:	dec00204 	addi	sp,sp,8
     754:	f800283a 	ret

00000758 <main>:


int main (void){
     758:	defff004 	addi	sp,sp,-64
     75c:	dfc00f15 	stw	ra,60(sp)
     760:	df000e15 	stw	fp,56(sp)
     764:	df000e04 	addi	fp,sp,56

	alt_up_sd_card_dev * sd_card;
	sd_card = alt_up_sd_card_open_dev("/dev/SD_Card");
     768:	010000b4 	movhi	r4,2
     76c:	2102a904 	addi	r4,r4,2724
     770:	001bb380 	call	1bb38 <alt_up_sd_card_open_dev>
     774:	e0bff215 	stw	r2,-56(fp)

 	 if (sd_card!=NULL){
     778:	e0bff217 	ldw	r2,-56(fp)
     77c:	10003c26 	beq	r2,zero,870 <main+0x118>
		if (alt_up_sd_card_is_Present()){
     780:	001bbf80 	call	1bbf8 <alt_up_sd_card_is_Present>
     784:	10803fcc 	andi	r2,r2,255
     788:	10000726 	beq	r2,zero,7a8 <main+0x50>
			printf("An SD Card was found!\n");
     78c:	010000b4 	movhi	r4,2
     790:	2102ad04 	addi	r4,r4,2740
     794:	00009b80 	call	9b8 <puts>
		else {
			printf("No SD Card Found. \n Exiting the program.");
			return -1;
		}

 		if (alt_up_sd_card_is_FAT16()){
     798:	001bcbc0 	call	1bcbc <alt_up_sd_card_is_FAT16>
     79c:	10803fcc 	andi	r2,r2,255
     7a0:	10002e26 	beq	r2,zero,85c <main+0x104>
     7a4:	00000506 	br	7bc <main+0x64>
		if (alt_up_sd_card_is_Present()){
			printf("An SD Card was found!\n");

		}
		else {
			printf("No SD Card Found. \n Exiting the program.");
     7a8:	010000b4 	movhi	r4,2
     7ac:	2102b304 	addi	r4,r4,2764
     7b0:	00008b40 	call	8b4 <printf>
			return -1;
     7b4:	00bfffc4 	movi	r2,-1
     7b8:	00002e06 	br	874 <main+0x11c>
		}

 		if (alt_up_sd_card_is_FAT16()){
			printf("FAT-16 partiton found!\n");
     7bc:	010000b4 	movhi	r4,2
     7c0:	2102be04 	addi	r4,r4,2808
     7c4:	00009b80 	call	9b8 <puts>
			return -1;
		}


 		char input[50];
 		strcpy(input, "HOI 125|DOE 100|GAY 075|PIT 002|KUT 001|");
     7c8:	e0bff304 	addi	r2,fp,-52
     7cc:	00c81274 	movhi	r3,8265
     7d0:	18d3d204 	addi	r3,r3,20296
     7d4:	10c00015 	stw	r3,0(r2)
     7d8:	00df0d74 	movhi	r3,31797
     7dc:	18cc8c44 	addi	r3,r3,12849
     7e0:	10c00115 	stw	r3,4(r2)
     7e4:	00c81174 	movhi	r3,8261
     7e8:	18d3d104 	addi	r3,r3,20292
     7ec:	10c00215 	stw	r3,8(r2)
     7f0:	00df0c34 	movhi	r3,31792
     7f4:	18cc0c44 	addi	r3,r3,12337
     7f8:	10c00315 	stw	r3,12(r2)
     7fc:	00c81674 	movhi	r3,8281
     800:	18d051c4 	addi	r3,r3,16711
     804:	10c00415 	stw	r3,16(r2)
     808:	00df0d74 	movhi	r3,31797
     80c:	18cdcc04 	addi	r3,r3,14128
     810:	10c00515 	stw	r3,20(r2)
     814:	00c81534 	movhi	r3,8276
     818:	18d25404 	addi	r3,r3,18768
     81c:	10c00615 	stw	r3,24(r2)
     820:	00df0cb4 	movhi	r3,31794
     824:	18cc0c04 	addi	r3,r3,12336
     828:	10c00715 	stw	r3,28(r2)
     82c:	00c81534 	movhi	r3,8276
     830:	18d552c4 	addi	r3,r3,21835
     834:	10c00815 	stw	r3,32(r2)
     838:	00df0c74 	movhi	r3,31793
     83c:	18cc0c04 	addi	r3,r3,12336
     840:	10c00915 	stw	r3,36(r2)
     844:	10000a05 	stb	zero,40(r2)

 		write_file(input);
     848:	e0bff304 	addi	r2,fp,-52
     84c:	1009883a 	mov	r4,r2
     850:	000039c0 	call	39c <write_file>

 		read_file();
     854:	00002800 	call	280 <read_file>
     858:	00000506 	br	870 <main+0x118>

 		if (alt_up_sd_card_is_FAT16()){
			printf("FAT-16 partiton found!\n");
		}
		else{
			printf("No FAT-16 partition found - Exiting!\n");
     85c:	010000b4 	movhi	r4,2
     860:	2102c404 	addi	r4,r4,2832
     864:	00009b80 	call	9b8 <puts>
			return -1;
     868:	00bfffc4 	movi	r2,-1
     86c:	00000106 	br	874 <main+0x11c>
 		read_file();

 		//sorteer();
	}

	return 0;
     870:	0005883a 	mov	r2,zero
}
     874:	e037883a 	mov	sp,fp
     878:	dfc00117 	ldw	ra,4(sp)
     87c:	df000017 	ldw	fp,0(sp)
     880:	dec00204 	addi	sp,sp,8
     884:	f800283a 	ret

00000888 <_printf_r>:
     888:	defffd04 	addi	sp,sp,-12
     88c:	dfc00015 	stw	ra,0(sp)
     890:	d9800115 	stw	r6,4(sp)
     894:	d9c00215 	stw	r7,8(sp)
     898:	280d883a 	mov	r6,r5
     89c:	21400217 	ldw	r5,8(r4)
     8a0:	d9c00104 	addi	r7,sp,4
     8a4:	0002bd00 	call	2bd0 <___vfprintf_internal_r>
     8a8:	dfc00017 	ldw	ra,0(sp)
     8ac:	dec00304 	addi	sp,sp,12
     8b0:	f800283a 	ret

000008b4 <printf>:
     8b4:	defffc04 	addi	sp,sp,-16
     8b8:	dfc00015 	stw	ra,0(sp)
     8bc:	d9400115 	stw	r5,4(sp)
     8c0:	d9800215 	stw	r6,8(sp)
     8c4:	d9c00315 	stw	r7,12(sp)
     8c8:	008000b4 	movhi	r2,2
     8cc:	108bdc04 	addi	r2,r2,12144
     8d0:	10800017 	ldw	r2,0(r2)
     8d4:	200b883a 	mov	r5,r4
     8d8:	d9800104 	addi	r6,sp,4
     8dc:	11000217 	ldw	r4,8(r2)
     8e0:	0004b200 	call	4b20 <__vfprintf_internal>
     8e4:	dfc00017 	ldw	ra,0(sp)
     8e8:	dec00404 	addi	sp,sp,16
     8ec:	f800283a 	ret

000008f0 <_putchar_r>:
     8f0:	21800217 	ldw	r6,8(r4)
     8f4:	000958c1 	jmpi	958c <_putc_r>

000008f8 <putchar>:
     8f8:	008000b4 	movhi	r2,2
     8fc:	108bdc04 	addi	r2,r2,12144
     900:	200b883a 	mov	r5,r4
     904:	11000017 	ldw	r4,0(r2)
     908:	21800217 	ldw	r6,8(r4)
     90c:	000958c1 	jmpi	958c <_putc_r>

00000910 <_puts_r>:
     910:	defff604 	addi	sp,sp,-40
     914:	dc000715 	stw	r16,28(sp)
     918:	2021883a 	mov	r16,r4
     91c:	2809883a 	mov	r4,r5
     920:	dc400815 	stw	r17,32(sp)
     924:	dfc00915 	stw	ra,36(sp)
     928:	2823883a 	mov	r17,r5
     92c:	0000ba80 	call	ba8 <strlen>
     930:	81400217 	ldw	r5,8(r16)
     934:	11000044 	addi	r4,r2,1
     938:	d8800115 	stw	r2,4(sp)
     93c:	008000b4 	movhi	r2,2
     940:	2980030b 	ldhu	r6,12(r5)
     944:	1082ce04 	addi	r2,r2,2872
     948:	d8800215 	stw	r2,8(sp)
     94c:	00800044 	movi	r2,1
     950:	d8800315 	stw	r2,12(sp)
     954:	00800084 	movi	r2,2
     958:	d8800515 	stw	r2,20(sp)
     95c:	dc400015 	stw	r17,0(sp)
     960:	d9000615 	stw	r4,24(sp)
     964:	dec00415 	stw	sp,16(sp)
     968:	3088000c 	andi	r2,r6,8192
     96c:	1000061e 	bne	r2,zero,988 <_puts_r+0x78>
     970:	29001917 	ldw	r4,100(r5)
     974:	00b7ffc4 	movi	r2,-8193
     978:	31880014 	ori	r6,r6,8192
     97c:	2084703a 	and	r2,r4,r2
     980:	2980030d 	sth	r6,12(r5)
     984:	28801915 	stw	r2,100(r5)
     988:	8009883a 	mov	r4,r16
     98c:	d9800404 	addi	r6,sp,16
     990:	00070c40 	call	70c4 <__sfvwrite_r>
     994:	1000061e 	bne	r2,zero,9b0 <_puts_r+0xa0>
     998:	00800284 	movi	r2,10
     99c:	dfc00917 	ldw	ra,36(sp)
     9a0:	dc400817 	ldw	r17,32(sp)
     9a4:	dc000717 	ldw	r16,28(sp)
     9a8:	dec00a04 	addi	sp,sp,40
     9ac:	f800283a 	ret
     9b0:	00bfffc4 	movi	r2,-1
     9b4:	003ff906 	br	99c <__alt_mem_Flash_flash_data+0xf400099c>

000009b8 <puts>:
     9b8:	008000b4 	movhi	r2,2
     9bc:	108bdc04 	addi	r2,r2,12144
     9c0:	200b883a 	mov	r5,r4
     9c4:	11000017 	ldw	r4,0(r2)
     9c8:	00009101 	jmpi	910 <_puts_r>

000009cc <_sprintf_r>:
     9cc:	deffe404 	addi	sp,sp,-112
     9d0:	2807883a 	mov	r3,r5
     9d4:	dfc01a15 	stw	ra,104(sp)
     9d8:	d9c01b15 	stw	r7,108(sp)
     9dc:	00a00034 	movhi	r2,32768
     9e0:	10bfffc4 	addi	r2,r2,-1
     9e4:	02008204 	movi	r8,520
     9e8:	d8800215 	stw	r2,8(sp)
     9ec:	d8800515 	stw	r2,20(sp)
     9f0:	d80b883a 	mov	r5,sp
     9f4:	d9c01b04 	addi	r7,sp,108
     9f8:	00bfffc4 	movi	r2,-1
     9fc:	d8c00015 	stw	r3,0(sp)
     a00:	d8c00415 	stw	r3,16(sp)
     a04:	da00030d 	sth	r8,12(sp)
     a08:	d880038d 	sth	r2,14(sp)
     a0c:	0000c400 	call	c40 <___svfprintf_internal_r>
     a10:	d8c00017 	ldw	r3,0(sp)
     a14:	18000005 	stb	zero,0(r3)
     a18:	dfc01a17 	ldw	ra,104(sp)
     a1c:	dec01c04 	addi	sp,sp,112
     a20:	f800283a 	ret

00000a24 <sprintf>:
     a24:	deffe304 	addi	sp,sp,-116
     a28:	2007883a 	mov	r3,r4
     a2c:	dfc01a15 	stw	ra,104(sp)
     a30:	d9801b15 	stw	r6,108(sp)
     a34:	d9c01c15 	stw	r7,112(sp)
     a38:	010000b4 	movhi	r4,2
     a3c:	210bdc04 	addi	r4,r4,12144
     a40:	21000017 	ldw	r4,0(r4)
     a44:	00a00034 	movhi	r2,32768
     a48:	10bfffc4 	addi	r2,r2,-1
     a4c:	280d883a 	mov	r6,r5
     a50:	02008204 	movi	r8,520
     a54:	d8800215 	stw	r2,8(sp)
     a58:	d8800515 	stw	r2,20(sp)
     a5c:	d80b883a 	mov	r5,sp
     a60:	d9c01b04 	addi	r7,sp,108
     a64:	00bfffc4 	movi	r2,-1
     a68:	d8c00015 	stw	r3,0(sp)
     a6c:	d8c00415 	stw	r3,16(sp)
     a70:	da00030d 	sth	r8,12(sp)
     a74:	d880038d 	sth	r2,14(sp)
     a78:	0000c400 	call	c40 <___svfprintf_internal_r>
     a7c:	d8c00017 	ldw	r3,0(sp)
     a80:	18000005 	stb	zero,0(r3)
     a84:	dfc01a17 	ldw	ra,104(sp)
     a88:	dec01d04 	addi	sp,sp,116
     a8c:	f800283a 	ret

00000a90 <strcat>:
     a90:	defffe04 	addi	sp,sp,-8
     a94:	dc000015 	stw	r16,0(sp)
     a98:	dfc00115 	stw	ra,4(sp)
     a9c:	208000cc 	andi	r2,r4,3
     aa0:	2021883a 	mov	r16,r4
     aa4:	1000111e 	bne	r2,zero,aec <strcat+0x5c>
     aa8:	20800017 	ldw	r2,0(r4)
     aac:	027fbff4 	movhi	r9,65279
     ab0:	4a7fbfc4 	addi	r9,r9,-257
     ab4:	0086303a 	nor	r3,zero,r2
     ab8:	02202074 	movhi	r8,32897
     abc:	1245883a 	add	r2,r2,r9
     ac0:	42202004 	addi	r8,r8,-32640
     ac4:	10c4703a 	and	r2,r2,r3
     ac8:	1204703a 	and	r2,r2,r8
     acc:	1000071e 	bne	r2,zero,aec <strcat+0x5c>
     ad0:	21000104 	addi	r4,r4,4
     ad4:	21800017 	ldw	r6,0(r4)
     ad8:	324f883a 	add	r7,r6,r9
     adc:	018c303a 	nor	r6,zero,r6
     ae0:	398c703a 	and	r6,r7,r6
     ae4:	320c703a 	and	r6,r6,r8
     ae8:	303ff926 	beq	r6,zero,ad0 <__alt_mem_Flash_flash_data+0xf4000ad0>
     aec:	20800007 	ldb	r2,0(r4)
     af0:	10000326 	beq	r2,zero,b00 <strcat+0x70>
     af4:	21000044 	addi	r4,r4,1
     af8:	21800007 	ldb	r6,0(r4)
     afc:	303ffd1e 	bne	r6,zero,af4 <__alt_mem_Flash_flash_data+0xf4000af4>
     b00:	0000b180 	call	b18 <strcpy>
     b04:	8005883a 	mov	r2,r16
     b08:	dfc00117 	ldw	ra,4(sp)
     b0c:	dc000017 	ldw	r16,0(sp)
     b10:	dec00204 	addi	sp,sp,8
     b14:	f800283a 	ret

00000b18 <strcpy>:
     b18:	2906b03a 	or	r3,r5,r4
     b1c:	18c000cc 	andi	r3,r3,3
     b20:	2005883a 	mov	r2,r4
     b24:	1800161e 	bne	r3,zero,b80 <strcpy+0x68>
     b28:	29c00017 	ldw	r7,0(r5)
     b2c:	02ffbff4 	movhi	r11,65279
     b30:	5affbfc4 	addi	r11,r11,-257
     b34:	02a02074 	movhi	r10,32897
     b38:	01c8303a 	nor	r4,zero,r7
     b3c:	3ac7883a 	add	r3,r7,r11
     b40:	52a02004 	addi	r10,r10,-32640
     b44:	20c6703a 	and	r3,r4,r3
     b48:	1a86703a 	and	r3,r3,r10
     b4c:	18000c1e 	bne	r3,zero,b80 <strcpy+0x68>
     b50:	1011883a 	mov	r8,r2
     b54:	41c00015 	stw	r7,0(r8)
     b58:	29400104 	addi	r5,r5,4
     b5c:	29c00017 	ldw	r7,0(r5)
     b60:	41800104 	addi	r6,r8,4
     b64:	3011883a 	mov	r8,r6
     b68:	01d2303a 	nor	r9,zero,r7
     b6c:	3ac7883a 	add	r3,r7,r11
     b70:	48c6703a 	and	r3,r9,r3
     b74:	1a86703a 	and	r3,r3,r10
     b78:	183ff626 	beq	r3,zero,b54 <__alt_mem_Flash_flash_data+0xf4000b54>
     b7c:	00000106 	br	b84 <strcpy+0x6c>
     b80:	100d883a 	mov	r6,r2
     b84:	28c00003 	ldbu	r3,0(r5)
     b88:	31800044 	addi	r6,r6,1
     b8c:	29400044 	addi	r5,r5,1
     b90:	30ffffc5 	stb	r3,-1(r6)
     b94:	18c03fcc 	andi	r3,r3,255
     b98:	18c0201c 	xori	r3,r3,128
     b9c:	18ffe004 	addi	r3,r3,-128
     ba0:	183ff81e 	bne	r3,zero,b84 <__alt_mem_Flash_flash_data+0xf4000b84>
     ba4:	f800283a 	ret

00000ba8 <strlen>:
     ba8:	208000cc 	andi	r2,r4,3
     bac:	10002026 	beq	r2,zero,c30 <strlen+0x88>
     bb0:	20800007 	ldb	r2,0(r4)
     bb4:	10002026 	beq	r2,zero,c38 <strlen+0x90>
     bb8:	2005883a 	mov	r2,r4
     bbc:	00000206 	br	bc8 <strlen+0x20>
     bc0:	10c00007 	ldb	r3,0(r2)
     bc4:	18001826 	beq	r3,zero,c28 <strlen+0x80>
     bc8:	10800044 	addi	r2,r2,1
     bcc:	10c000cc 	andi	r3,r2,3
     bd0:	183ffb1e 	bne	r3,zero,bc0 <__alt_mem_Flash_flash_data+0xf4000bc0>
     bd4:	10c00017 	ldw	r3,0(r2)
     bd8:	01ffbff4 	movhi	r7,65279
     bdc:	39ffbfc4 	addi	r7,r7,-257
     be0:	00ca303a 	nor	r5,zero,r3
     be4:	01a02074 	movhi	r6,32897
     be8:	19c7883a 	add	r3,r3,r7
     bec:	31a02004 	addi	r6,r6,-32640
     bf0:	1946703a 	and	r3,r3,r5
     bf4:	1986703a 	and	r3,r3,r6
     bf8:	1800091e 	bne	r3,zero,c20 <strlen+0x78>
     bfc:	10800104 	addi	r2,r2,4
     c00:	10c00017 	ldw	r3,0(r2)
     c04:	19cb883a 	add	r5,r3,r7
     c08:	00c6303a 	nor	r3,zero,r3
     c0c:	28c6703a 	and	r3,r5,r3
     c10:	1986703a 	and	r3,r3,r6
     c14:	183ff926 	beq	r3,zero,bfc <__alt_mem_Flash_flash_data+0xf4000bfc>
     c18:	00000106 	br	c20 <strlen+0x78>
     c1c:	10800044 	addi	r2,r2,1
     c20:	10c00007 	ldb	r3,0(r2)
     c24:	183ffd1e 	bne	r3,zero,c1c <__alt_mem_Flash_flash_data+0xf4000c1c>
     c28:	1105c83a 	sub	r2,r2,r4
     c2c:	f800283a 	ret
     c30:	2005883a 	mov	r2,r4
     c34:	003fe706 	br	bd4 <__alt_mem_Flash_flash_data+0xf4000bd4>
     c38:	0005883a 	mov	r2,zero
     c3c:	f800283a 	ret

00000c40 <___svfprintf_internal_r>:
     c40:	deffb504 	addi	sp,sp,-300
     c44:	dfc04a15 	stw	ra,296(sp)
     c48:	ddc04815 	stw	r23,288(sp)
     c4c:	d9002f15 	stw	r4,188(sp)
     c50:	282f883a 	mov	r23,r5
     c54:	d9802915 	stw	r6,164(sp)
     c58:	d9c02d15 	stw	r7,180(sp)
     c5c:	df004915 	stw	fp,292(sp)
     c60:	dd804715 	stw	r22,284(sp)
     c64:	dd404615 	stw	r21,280(sp)
     c68:	dd004515 	stw	r20,276(sp)
     c6c:	dcc04415 	stw	r19,272(sp)
     c70:	dc804315 	stw	r18,268(sp)
     c74:	dc404215 	stw	r17,264(sp)
     c78:	dc004115 	stw	r16,260(sp)
     c7c:	00077b80 	call	77b8 <_localeconv_r>
     c80:	10800017 	ldw	r2,0(r2)
     c84:	1009883a 	mov	r4,r2
     c88:	d8803515 	stw	r2,212(sp)
     c8c:	0000ba80 	call	ba8 <strlen>
     c90:	d8803915 	stw	r2,228(sp)
     c94:	b880030b 	ldhu	r2,12(r23)
     c98:	1080200c 	andi	r2,r2,128
     c9c:	10000226 	beq	r2,zero,ca8 <___svfprintf_internal_r+0x68>
     ca0:	b8800417 	ldw	r2,16(r23)
     ca4:	10065f26 	beq	r2,zero,2624 <___svfprintf_internal_r+0x19e4>
     ca8:	db001dc4 	addi	r12,sp,119
     cac:	dd801e04 	addi	r22,sp,120
     cb0:	d8800404 	addi	r2,sp,16
     cb4:	050000b4 	movhi	r20,2
     cb8:	b317c83a 	sub	r11,r22,r12
     cbc:	a502df84 	addi	r20,r20,2942
     cc0:	db002815 	stw	r12,160(sp)
     cc4:	d8801e15 	stw	r2,120(sp)
     cc8:	d8002015 	stw	zero,128(sp)
     ccc:	d8001f15 	stw	zero,124(sp)
     cd0:	d8003315 	stw	zero,204(sp)
     cd4:	d8003715 	stw	zero,220(sp)
     cd8:	d8003815 	stw	zero,224(sp)
     cdc:	1011883a 	mov	r8,r2
     ce0:	d8003b15 	stw	zero,236(sp)
     ce4:	d8003a15 	stw	zero,232(sp)
     ce8:	d8003015 	stw	zero,192(sp)
     cec:	dac03d15 	stw	r11,244(sp)
     cf0:	db002917 	ldw	r12,164(sp)
     cf4:	60800007 	ldb	r2,0(r12)
     cf8:	1000ab26 	beq	r2,zero,fa8 <___svfprintf_internal_r+0x368>
     cfc:	00c00944 	movi	r3,37
     d00:	10c0a926 	beq	r2,r3,fa8 <___svfprintf_internal_r+0x368>
     d04:	6021883a 	mov	r16,r12
     d08:	00000106 	br	d10 <___svfprintf_internal_r+0xd0>
     d0c:	10c08426 	beq	r2,r3,f20 <___svfprintf_internal_r+0x2e0>
     d10:	84000044 	addi	r16,r16,1
     d14:	80800007 	ldb	r2,0(r16)
     d18:	103ffc1e 	bne	r2,zero,d0c <__alt_mem_Flash_flash_data+0xf4000d0c>
     d1c:	dac02917 	ldw	r11,164(sp)
     d20:	82e3c83a 	sub	r17,r16,r11
     d24:	88000f26 	beq	r17,zero,d64 <___svfprintf_internal_r+0x124>
     d28:	d8c02017 	ldw	r3,128(sp)
     d2c:	d8801f17 	ldw	r2,124(sp)
     d30:	dac02917 	ldw	r11,164(sp)
     d34:	1c47883a 	add	r3,r3,r17
     d38:	10800044 	addi	r2,r2,1
     d3c:	d8c02015 	stw	r3,128(sp)
     d40:	42c00015 	stw	r11,0(r8)
     d44:	44400115 	stw	r17,4(r8)
     d48:	d8801f15 	stw	r2,124(sp)
     d4c:	00c001c4 	movi	r3,7
     d50:	18807616 	blt	r3,r2,f2c <___svfprintf_internal_r+0x2ec>
     d54:	42000204 	addi	r8,r8,8
     d58:	db003017 	ldw	r12,192(sp)
     d5c:	6459883a 	add	r12,r12,r17
     d60:	db003015 	stw	r12,192(sp)
     d64:	80800007 	ldb	r2,0(r16)
     d68:	10007726 	beq	r2,zero,f48 <___svfprintf_internal_r+0x308>
     d6c:	80800044 	addi	r2,r16,1
     d70:	84000047 	ldb	r16,1(r16)
     d74:	d8002785 	stb	zero,158(sp)
     d78:	000d883a 	mov	r6,zero
     d7c:	027fffc4 	movi	r9,-1
     d80:	d8002e15 	stw	zero,184(sp)
     d84:	0023883a 	mov	r17,zero
     d88:	01001604 	movi	r4,88
     d8c:	01400244 	movi	r5,9
     d90:	02800a84 	movi	r10,42
     d94:	01c01b04 	movi	r7,108
     d98:	10c00044 	addi	r3,r2,1
     d9c:	80bff804 	addi	r2,r16,-32
     da0:	2082e636 	bltu	r4,r2,193c <___svfprintf_internal_r+0xcfc>
     da4:	100490ba 	slli	r2,r2,2
     da8:	02c00034 	movhi	r11,0
     dac:	5ac36f04 	addi	r11,r11,3516
     db0:	12c5883a 	add	r2,r2,r11
     db4:	10800017 	ldw	r2,0(r2)
     db8:	1000683a 	jmp	r2
     dbc:	0000171c 	xori	zero,zero,92
     dc0:	0000193c 	xorhi	zero,zero,100
     dc4:	0000193c 	xorhi	zero,zero,100
     dc8:	0000173c 	xorhi	zero,zero,92
     dcc:	0000193c 	xorhi	zero,zero,100
     dd0:	0000193c 	xorhi	zero,zero,100
     dd4:	0000193c 	xorhi	zero,zero,100
     dd8:	0000193c 	xorhi	zero,zero,100
     ddc:	0000193c 	xorhi	zero,zero,100
     de0:	0000193c 	xorhi	zero,zero,100
     de4:	0000174c 	andi	zero,zero,93
     de8:	00001778 	rdprs	zero,zero,93
     dec:	0000193c 	xorhi	zero,zero,100
     df0:	00000fb0 	cmpltui	zero,zero,62
     df4:	00000fc0 	call	fc <alt_irq_handler>
     df8:	0000193c 	xorhi	zero,zero,100
     dfc:	00001000 	call	100 <alt_irq_handler+0x4>
     e00:	000015e0 	cmpeqi	zero,zero,87
     e04:	000015e0 	cmpeqi	zero,zero,87
     e08:	000015e0 	cmpeqi	zero,zero,87
     e0c:	000015e0 	cmpeqi	zero,zero,87
     e10:	000015e0 	cmpeqi	zero,zero,87
     e14:	000015e0 	cmpeqi	zero,zero,87
     e18:	000015e0 	cmpeqi	zero,zero,87
     e1c:	000015e0 	cmpeqi	zero,zero,87
     e20:	000015e0 	cmpeqi	zero,zero,87
     e24:	0000193c 	xorhi	zero,zero,100
     e28:	0000193c 	xorhi	zero,zero,100
     e2c:	0000193c 	xorhi	zero,zero,100
     e30:	0000193c 	xorhi	zero,zero,100
     e34:	0000193c 	xorhi	zero,zero,100
     e38:	0000193c 	xorhi	zero,zero,100
     e3c:	0000193c 	xorhi	zero,zero,100
     e40:	0000193c 	xorhi	zero,zero,100
     e44:	0000193c 	xorhi	zero,zero,100
     e48:	0000193c 	xorhi	zero,zero,100
     e4c:	00001010 	cmplti	zero,zero,64
     e50:	00001490 	cmplti	zero,zero,82
     e54:	0000193c 	xorhi	zero,zero,100
     e58:	00001490 	cmplti	zero,zero,82
     e5c:	0000193c 	xorhi	zero,zero,100
     e60:	0000193c 	xorhi	zero,zero,100
     e64:	0000193c 	xorhi	zero,zero,100
     e68:	0000193c 	xorhi	zero,zero,100
     e6c:	00001534 	movhi	zero,84
     e70:	0000193c 	xorhi	zero,zero,100
     e74:	0000193c 	xorhi	zero,zero,100
     e78:	000018d0 	cmplti	zero,zero,99
     e7c:	0000193c 	xorhi	zero,zero,100
     e80:	0000193c 	xorhi	zero,zero,100
     e84:	0000193c 	xorhi	zero,zero,100
     e88:	0000193c 	xorhi	zero,zero,100
     e8c:	0000193c 	xorhi	zero,zero,100
     e90:	00001544 	movi	zero,85
     e94:	0000193c 	xorhi	zero,zero,100
     e98:	0000193c 	xorhi	zero,zero,100
     e9c:	00001584 	movi	zero,86
     ea0:	0000193c 	xorhi	zero,zero,100
     ea4:	0000193c 	xorhi	zero,zero,100
     ea8:	0000193c 	xorhi	zero,zero,100
     eac:	0000193c 	xorhi	zero,zero,100
     eb0:	0000193c 	xorhi	zero,zero,100
     eb4:	0000193c 	xorhi	zero,zero,100
     eb8:	0000193c 	xorhi	zero,zero,100
     ebc:	0000193c 	xorhi	zero,zero,100
     ec0:	0000193c 	xorhi	zero,zero,100
     ec4:	0000193c 	xorhi	zero,zero,100
     ec8:	00001828 	cmpgeui	zero,zero,96
     ecc:	00001868 	cmpgeui	zero,zero,97
     ed0:	00001490 	cmplti	zero,zero,82
     ed4:	00001490 	cmplti	zero,zero,82
     ed8:	00001490 	cmplti	zero,zero,82
     edc:	00001788 	cmpgei	zero,zero,94
     ee0:	00001868 	cmpgeui	zero,zero,97
     ee4:	0000193c 	xorhi	zero,zero,100
     ee8:	0000193c 	xorhi	zero,zero,100
     eec:	00001798 	cmpnei	zero,zero,94
     ef0:	0000193c 	xorhi	zero,zero,100
     ef4:	000017ac 	andhi	zero,zero,94
     ef8:	00001900 	call	190 <alt_irq_handler+0x94>
     efc:	000017e0 	cmpeqi	zero,zero,95
     f00:	00001614 	movui	zero,88
     f04:	0000193c 	xorhi	zero,zero,100
     f08:	00001624 	muli	zero,zero,88
     f0c:	0000193c 	xorhi	zero,zero,100
     f10:	0000169c 	xori	zero,zero,90
     f14:	0000193c 	xorhi	zero,zero,100
     f18:	0000193c 	xorhi	zero,zero,100
     f1c:	000016dc 	xori	zero,zero,91
     f20:	db002917 	ldw	r12,164(sp)
     f24:	8323c83a 	sub	r17,r16,r12
     f28:	003f7e06 	br	d24 <__alt_mem_Flash_flash_data+0xf4000d24>
     f2c:	d9002f17 	ldw	r4,188(sp)
     f30:	b80b883a 	mov	r5,r23
     f34:	b00d883a 	mov	r6,r22
     f38:	0009f080 	call	9f08 <__ssprint_r>
     f3c:	1000081e 	bne	r2,zero,f60 <___svfprintf_internal_r+0x320>
     f40:	da000404 	addi	r8,sp,16
     f44:	003f8406 	br	d58 <__alt_mem_Flash_flash_data+0xf4000d58>
     f48:	d8802017 	ldw	r2,128(sp)
     f4c:	10000426 	beq	r2,zero,f60 <___svfprintf_internal_r+0x320>
     f50:	d9002f17 	ldw	r4,188(sp)
     f54:	b80b883a 	mov	r5,r23
     f58:	d9801e04 	addi	r6,sp,120
     f5c:	0009f080 	call	9f08 <__ssprint_r>
     f60:	b880030b 	ldhu	r2,12(r23)
     f64:	1080100c 	andi	r2,r2,64
     f68:	10000d1e 	bne	r2,zero,fa0 <___svfprintf_internal_r+0x360>
     f6c:	d8803017 	ldw	r2,192(sp)
     f70:	dfc04a17 	ldw	ra,296(sp)
     f74:	df004917 	ldw	fp,292(sp)
     f78:	ddc04817 	ldw	r23,288(sp)
     f7c:	dd804717 	ldw	r22,284(sp)
     f80:	dd404617 	ldw	r21,280(sp)
     f84:	dd004517 	ldw	r20,276(sp)
     f88:	dcc04417 	ldw	r19,272(sp)
     f8c:	dc804317 	ldw	r18,268(sp)
     f90:	dc404217 	ldw	r17,264(sp)
     f94:	dc004117 	ldw	r16,260(sp)
     f98:	dec04b04 	addi	sp,sp,300
     f9c:	f800283a 	ret
     fa0:	00bfffc4 	movi	r2,-1
     fa4:	003ff206 	br	f70 <__alt_mem_Flash_flash_data+0xf4000f70>
     fa8:	dc002917 	ldw	r16,164(sp)
     fac:	003f6d06 	br	d64 <__alt_mem_Flash_flash_data+0xf4000d64>
     fb0:	1805883a 	mov	r2,r3
     fb4:	8c400114 	ori	r17,r17,4
     fb8:	1c000007 	ldb	r16,0(r3)
     fbc:	003f7606 	br	d98 <__alt_mem_Flash_flash_data+0xf4000d98>
     fc0:	1c000007 	ldb	r16,0(r3)
     fc4:	18800044 	addi	r2,r3,1
     fc8:	8286e726 	beq	r16,r10,2b68 <___svfprintf_internal_r+0x1f28>
     fcc:	82fff404 	addi	r11,r16,-48
     fd0:	1007883a 	mov	r3,r2
     fd4:	0013883a 	mov	r9,zero
     fd8:	2aff7036 	bltu	r5,r11,d9c <__alt_mem_Flash_flash_data+0xf4000d9c>
     fdc:	1c000007 	ldb	r16,0(r3)
     fe0:	4a4002a4 	muli	r9,r9,10
     fe4:	18c00044 	addi	r3,r3,1
     fe8:	5a53883a 	add	r9,r11,r9
     fec:	82fff404 	addi	r11,r16,-48
     ff0:	2afffa2e 	bgeu	r5,r11,fdc <__alt_mem_Flash_flash_data+0xf4000fdc>
     ff4:	483f690e 	bge	r9,zero,d9c <__alt_mem_Flash_flash_data+0xf4000d9c>
     ff8:	027fffc4 	movi	r9,-1
     ffc:	003f6706 	br	d9c <__alt_mem_Flash_flash_data+0xf4000d9c>
    1000:	8c402014 	ori	r17,r17,128
    1004:	1805883a 	mov	r2,r3
    1008:	1c000007 	ldb	r16,0(r3)
    100c:	003f6206 	br	d98 <__alt_mem_Flash_flash_data+0xf4000d98>
    1010:	8c400414 	ori	r17,r17,16
    1014:	d8c02915 	stw	r3,164(sp)
    1018:	d9802785 	stb	r6,158(sp)
    101c:	8880080c 	andi	r2,r17,32
    1020:	d8c02d17 	ldw	r3,180(sp)
    1024:	10021526 	beq	r2,zero,187c <___svfprintf_internal_r+0xc3c>
    1028:	db002d17 	ldw	r12,180(sp)
    102c:	18800117 	ldw	r2,4(r3)
    1030:	1cc00017 	ldw	r19,0(r3)
    1034:	63000204 	addi	r12,r12,8
    1038:	db002d15 	stw	r12,180(sp)
    103c:	1039883a 	mov	fp,r2
    1040:	10021916 	blt	r2,zero,18a8 <___svfprintf_internal_r+0xc68>
    1044:	dd402783 	ldbu	r21,158(sp)
    1048:	da403215 	stw	r9,200(sp)
    104c:	00800044 	movi	r2,1
    1050:	9f06b03a 	or	r3,r19,fp
    1054:	48000216 	blt	r9,zero,1060 <___svfprintf_internal_r+0x420>
    1058:	013fdfc4 	movi	r4,-129
    105c:	8922703a 	and	r17,r17,r4
    1060:	1802461e 	bne	r3,zero,197c <___svfprintf_internal_r+0xd3c>
    1064:	48035426 	beq	r9,zero,1db8 <___svfprintf_internal_r+0x1178>
    1068:	10803fcc 	andi	r2,r2,255
    106c:	00c00044 	movi	r3,1
    1070:	10c26726 	beq	r2,r3,1a10 <___svfprintf_internal_r+0xdd0>
    1074:	00c00084 	movi	r3,2
    1078:	10c2ea26 	beq	r2,r3,1c24 <___svfprintf_internal_r+0xfe4>
    107c:	b007883a 	mov	r3,r22
    1080:	9808d0fa 	srli	r4,r19,3
    1084:	e00a977a 	slli	r5,fp,29
    1088:	e038d0fa 	srli	fp,fp,3
    108c:	9cc001cc 	andi	r19,r19,7
    1090:	98800c04 	addi	r2,r19,48
    1094:	18ffffc4 	addi	r3,r3,-1
    1098:	2926b03a 	or	r19,r5,r4
    109c:	18800005 	stb	r2,0(r3)
    10a0:	9f08b03a 	or	r4,r19,fp
    10a4:	203ff61e 	bne	r4,zero,1080 <__alt_mem_Flash_flash_data+0xf4001080>
    10a8:	8900004c 	andi	r4,r17,1
    10ac:	d8c03115 	stw	r3,196(sp)
    10b0:	2002ea26 	beq	r4,zero,1c5c <___svfprintf_internal_r+0x101c>
    10b4:	10803fcc 	andi	r2,r2,255
    10b8:	1080201c 	xori	r2,r2,128
    10bc:	10bfe004 	addi	r2,r2,-128
    10c0:	01000c04 	movi	r4,48
    10c4:	11057526 	beq	r2,r4,269c <___svfprintf_internal_r+0x1a5c>
    10c8:	dac03117 	ldw	r11,196(sp)
    10cc:	193fffc5 	stb	r4,-1(r3)
    10d0:	5affffc4 	addi	r11,r11,-1
    10d4:	dac03115 	stw	r11,196(sp)
    10d8:	b2e5c83a 	sub	r18,r22,r11
    10dc:	9005883a 	mov	r2,r18
    10e0:	9240010e 	bge	r18,r9,10e8 <___svfprintf_internal_r+0x4a8>
    10e4:	4805883a 	mov	r2,r9
    10e8:	d8802a15 	stw	r2,168(sp)
    10ec:	d8003415 	stw	zero,208(sp)
    10f0:	a8803fcc 	andi	r2,r21,255
    10f4:	1080201c 	xori	r2,r2,128
    10f8:	10bfe004 	addi	r2,r2,-128
    10fc:	10000326 	beq	r2,zero,110c <___svfprintf_internal_r+0x4cc>
    1100:	d8c02a17 	ldw	r3,168(sp)
    1104:	18c00044 	addi	r3,r3,1
    1108:	d8c02a15 	stw	r3,168(sp)
    110c:	8ac0008c 	andi	r11,r17,2
    1110:	dac02b15 	stw	r11,172(sp)
    1114:	58000326 	beq	r11,zero,1124 <___svfprintf_internal_r+0x4e4>
    1118:	db002a17 	ldw	r12,168(sp)
    111c:	63000084 	addi	r12,r12,2
    1120:	db002a15 	stw	r12,168(sp)
    1124:	88c0210c 	andi	r3,r17,132
    1128:	d8c02c15 	stw	r3,176(sp)
    112c:	1802111e 	bne	r3,zero,1974 <___svfprintf_internal_r+0xd34>
    1130:	dac02e17 	ldw	r11,184(sp)
    1134:	db002a17 	ldw	r12,168(sp)
    1138:	5b39c83a 	sub	fp,r11,r12
    113c:	07020d0e 	bge	zero,fp,1974 <___svfprintf_internal_r+0xd34>
    1140:	02400404 	movi	r9,16
    1144:	d8c02017 	ldw	r3,128(sp)
    1148:	d8801f17 	ldw	r2,124(sp)
    114c:	4f058c0e 	bge	r9,fp,2780 <___svfprintf_internal_r+0x1b40>
    1150:	014000b4 	movhi	r5,2
    1154:	e009883a 	mov	r4,fp
    1158:	2942e384 	addi	r5,r5,2958
    115c:	dc003c15 	stw	r16,240(sp)
    1160:	9039883a 	mov	fp,r18
    1164:	d9403615 	stw	r5,216(sp)
    1168:	8825883a 	mov	r18,r17
    116c:	482b883a 	mov	r21,r9
    1170:	04c001c4 	movi	r19,7
    1174:	dc002f17 	ldw	r16,188(sp)
    1178:	2023883a 	mov	r17,r4
    117c:	00000306 	br	118c <___svfprintf_internal_r+0x54c>
    1180:	8c7ffc04 	addi	r17,r17,-16
    1184:	42000204 	addi	r8,r8,8
    1188:	ac40130e 	bge	r21,r17,11d8 <___svfprintf_internal_r+0x598>
    118c:	02c000b4 	movhi	r11,2
    1190:	18c00404 	addi	r3,r3,16
    1194:	10800044 	addi	r2,r2,1
    1198:	5ac2e384 	addi	r11,r11,2958
    119c:	42c00015 	stw	r11,0(r8)
    11a0:	45400115 	stw	r21,4(r8)
    11a4:	d8c02015 	stw	r3,128(sp)
    11a8:	d8801f15 	stw	r2,124(sp)
    11ac:	98bff40e 	bge	r19,r2,1180 <__alt_mem_Flash_flash_data+0xf4001180>
    11b0:	8009883a 	mov	r4,r16
    11b4:	b80b883a 	mov	r5,r23
    11b8:	b00d883a 	mov	r6,r22
    11bc:	0009f080 	call	9f08 <__ssprint_r>
    11c0:	103f671e 	bne	r2,zero,f60 <__alt_mem_Flash_flash_data+0xf4000f60>
    11c4:	8c7ffc04 	addi	r17,r17,-16
    11c8:	d8c02017 	ldw	r3,128(sp)
    11cc:	d8801f17 	ldw	r2,124(sp)
    11d0:	da000404 	addi	r8,sp,16
    11d4:	ac7fed16 	blt	r21,r17,118c <__alt_mem_Flash_flash_data+0xf400118c>
    11d8:	dc003c17 	ldw	r16,240(sp)
    11dc:	8809883a 	mov	r4,r17
    11e0:	9023883a 	mov	r17,r18
    11e4:	e025883a 	mov	r18,fp
    11e8:	2039883a 	mov	fp,r4
    11ec:	db003617 	ldw	r12,216(sp)
    11f0:	e0c7883a 	add	r3,fp,r3
    11f4:	10800044 	addi	r2,r2,1
    11f8:	43000015 	stw	r12,0(r8)
    11fc:	47000115 	stw	fp,4(r8)
    1200:	d8c02015 	stw	r3,128(sp)
    1204:	d8801f15 	stw	r2,124(sp)
    1208:	010001c4 	movi	r4,7
    120c:	20834416 	blt	r4,r2,1f20 <___svfprintf_internal_r+0x12e0>
    1210:	d8802787 	ldb	r2,158(sp)
    1214:	42000204 	addi	r8,r8,8
    1218:	10000c26 	beq	r2,zero,124c <___svfprintf_internal_r+0x60c>
    121c:	d8801f17 	ldw	r2,124(sp)
    1220:	d9002784 	addi	r4,sp,158
    1224:	18c00044 	addi	r3,r3,1
    1228:	10800044 	addi	r2,r2,1
    122c:	41000015 	stw	r4,0(r8)
    1230:	01000044 	movi	r4,1
    1234:	41000115 	stw	r4,4(r8)
    1238:	d8c02015 	stw	r3,128(sp)
    123c:	d8801f15 	stw	r2,124(sp)
    1240:	010001c4 	movi	r4,7
    1244:	2082f616 	blt	r4,r2,1e20 <___svfprintf_internal_r+0x11e0>
    1248:	42000204 	addi	r8,r8,8
    124c:	dac02b17 	ldw	r11,172(sp)
    1250:	58000c26 	beq	r11,zero,1284 <___svfprintf_internal_r+0x644>
    1254:	d8801f17 	ldw	r2,124(sp)
    1258:	d9002704 	addi	r4,sp,156
    125c:	18c00084 	addi	r3,r3,2
    1260:	10800044 	addi	r2,r2,1
    1264:	41000015 	stw	r4,0(r8)
    1268:	01000084 	movi	r4,2
    126c:	41000115 	stw	r4,4(r8)
    1270:	d8c02015 	stw	r3,128(sp)
    1274:	d8801f15 	stw	r2,124(sp)
    1278:	010001c4 	movi	r4,7
    127c:	2082e016 	blt	r4,r2,1e00 <___svfprintf_internal_r+0x11c0>
    1280:	42000204 	addi	r8,r8,8
    1284:	db002c17 	ldw	r12,176(sp)
    1288:	00802004 	movi	r2,128
    128c:	60822f26 	beq	r12,r2,1b4c <___svfprintf_internal_r+0xf0c>
    1290:	db003217 	ldw	r12,200(sp)
    1294:	64abc83a 	sub	r21,r12,r18
    1298:	0540310e 	bge	zero,r21,1360 <___svfprintf_internal_r+0x720>
    129c:	07000404 	movi	fp,16
    12a0:	d8801f17 	ldw	r2,124(sp)
    12a4:	e544270e 	bge	fp,r21,2344 <___svfprintf_internal_r+0x1704>
    12a8:	014000b4 	movhi	r5,2
    12ac:	a809883a 	mov	r4,r21
    12b0:	2942df84 	addi	r5,r5,2942
    12b4:	dc002c15 	stw	r16,176(sp)
    12b8:	902b883a 	mov	r21,r18
    12bc:	d9402b15 	stw	r5,172(sp)
    12c0:	8825883a 	mov	r18,r17
    12c4:	04c001c4 	movi	r19,7
    12c8:	dc002f17 	ldw	r16,188(sp)
    12cc:	2023883a 	mov	r17,r4
    12d0:	00000306 	br	12e0 <___svfprintf_internal_r+0x6a0>
    12d4:	8c7ffc04 	addi	r17,r17,-16
    12d8:	42000204 	addi	r8,r8,8
    12dc:	e440110e 	bge	fp,r17,1324 <___svfprintf_internal_r+0x6e4>
    12e0:	18c00404 	addi	r3,r3,16
    12e4:	10800044 	addi	r2,r2,1
    12e8:	45000015 	stw	r20,0(r8)
    12ec:	47000115 	stw	fp,4(r8)
    12f0:	d8c02015 	stw	r3,128(sp)
    12f4:	d8801f15 	stw	r2,124(sp)
    12f8:	98bff60e 	bge	r19,r2,12d4 <__alt_mem_Flash_flash_data+0xf40012d4>
    12fc:	8009883a 	mov	r4,r16
    1300:	b80b883a 	mov	r5,r23
    1304:	b00d883a 	mov	r6,r22
    1308:	0009f080 	call	9f08 <__ssprint_r>
    130c:	103f141e 	bne	r2,zero,f60 <__alt_mem_Flash_flash_data+0xf4000f60>
    1310:	8c7ffc04 	addi	r17,r17,-16
    1314:	d8c02017 	ldw	r3,128(sp)
    1318:	d8801f17 	ldw	r2,124(sp)
    131c:	da000404 	addi	r8,sp,16
    1320:	e47fef16 	blt	fp,r17,12e0 <__alt_mem_Flash_flash_data+0xf40012e0>
    1324:	dc002c17 	ldw	r16,176(sp)
    1328:	8809883a 	mov	r4,r17
    132c:	9023883a 	mov	r17,r18
    1330:	a825883a 	mov	r18,r21
    1334:	202b883a 	mov	r21,r4
    1338:	dac02b17 	ldw	r11,172(sp)
    133c:	1d47883a 	add	r3,r3,r21
    1340:	10800044 	addi	r2,r2,1
    1344:	42c00015 	stw	r11,0(r8)
    1348:	45400115 	stw	r21,4(r8)
    134c:	d8c02015 	stw	r3,128(sp)
    1350:	d8801f15 	stw	r2,124(sp)
    1354:	010001c4 	movi	r4,7
    1358:	2082a116 	blt	r4,r2,1de0 <___svfprintf_internal_r+0x11a0>
    135c:	42000204 	addi	r8,r8,8
    1360:	8880400c 	andi	r2,r17,256
    1364:	1001b01e 	bne	r2,zero,1a28 <___svfprintf_internal_r+0xde8>
    1368:	d8801f17 	ldw	r2,124(sp)
    136c:	db003117 	ldw	r12,196(sp)
    1370:	1c87883a 	add	r3,r3,r18
    1374:	10800044 	addi	r2,r2,1
    1378:	43000015 	stw	r12,0(r8)
    137c:	44800115 	stw	r18,4(r8)
    1380:	d8c02015 	stw	r3,128(sp)
    1384:	d8801f15 	stw	r2,124(sp)
    1388:	010001c4 	movi	r4,7
    138c:	20828216 	blt	r4,r2,1d98 <___svfprintf_internal_r+0x1158>
    1390:	42000204 	addi	r8,r8,8
    1394:	8c40010c 	andi	r17,r17,4
    1398:	88003226 	beq	r17,zero,1464 <___svfprintf_internal_r+0x824>
    139c:	db002e17 	ldw	r12,184(sp)
    13a0:	dac02a17 	ldw	r11,168(sp)
    13a4:	62e1c83a 	sub	r16,r12,r11
    13a8:	04002e0e 	bge	zero,r16,1464 <___svfprintf_internal_r+0x824>
    13ac:	04400404 	movi	r17,16
    13b0:	d8801f17 	ldw	r2,124(sp)
    13b4:	8c05330e 	bge	r17,r16,2884 <___svfprintf_internal_r+0x1c44>
    13b8:	010000b4 	movhi	r4,2
    13bc:	2102e384 	addi	r4,r4,2958
    13c0:	d9003615 	stw	r4,216(sp)
    13c4:	048001c4 	movi	r18,7
    13c8:	dcc02f17 	ldw	r19,188(sp)
    13cc:	00000306 	br	13dc <___svfprintf_internal_r+0x79c>
    13d0:	843ffc04 	addi	r16,r16,-16
    13d4:	42000204 	addi	r8,r8,8
    13d8:	8c00130e 	bge	r17,r16,1428 <___svfprintf_internal_r+0x7e8>
    13dc:	014000b4 	movhi	r5,2
    13e0:	18c00404 	addi	r3,r3,16
    13e4:	10800044 	addi	r2,r2,1
    13e8:	2942e384 	addi	r5,r5,2958
    13ec:	41400015 	stw	r5,0(r8)
    13f0:	44400115 	stw	r17,4(r8)
    13f4:	d8c02015 	stw	r3,128(sp)
    13f8:	d8801f15 	stw	r2,124(sp)
    13fc:	90bff40e 	bge	r18,r2,13d0 <__alt_mem_Flash_flash_data+0xf40013d0>
    1400:	9809883a 	mov	r4,r19
    1404:	b80b883a 	mov	r5,r23
    1408:	b00d883a 	mov	r6,r22
    140c:	0009f080 	call	9f08 <__ssprint_r>
    1410:	103ed31e 	bne	r2,zero,f60 <__alt_mem_Flash_flash_data+0xf4000f60>
    1414:	843ffc04 	addi	r16,r16,-16
    1418:	d8c02017 	ldw	r3,128(sp)
    141c:	d8801f17 	ldw	r2,124(sp)
    1420:	da000404 	addi	r8,sp,16
    1424:	8c3fed16 	blt	r17,r16,13dc <__alt_mem_Flash_flash_data+0xf40013dc>
    1428:	dac03617 	ldw	r11,216(sp)
    142c:	1c07883a 	add	r3,r3,r16
    1430:	10800044 	addi	r2,r2,1
    1434:	42c00015 	stw	r11,0(r8)
    1438:	44000115 	stw	r16,4(r8)
    143c:	d8c02015 	stw	r3,128(sp)
    1440:	d8801f15 	stw	r2,124(sp)
    1444:	010001c4 	movi	r4,7
    1448:	2080060e 	bge	r4,r2,1464 <___svfprintf_internal_r+0x824>
    144c:	d9002f17 	ldw	r4,188(sp)
    1450:	b80b883a 	mov	r5,r23
    1454:	b00d883a 	mov	r6,r22
    1458:	0009f080 	call	9f08 <__ssprint_r>
    145c:	103ec01e 	bne	r2,zero,f60 <__alt_mem_Flash_flash_data+0xf4000f60>
    1460:	d8c02017 	ldw	r3,128(sp)
    1464:	d8802a17 	ldw	r2,168(sp)
    1468:	db002e17 	ldw	r12,184(sp)
    146c:	1300010e 	bge	r2,r12,1474 <___svfprintf_internal_r+0x834>
    1470:	6005883a 	mov	r2,r12
    1474:	dac03017 	ldw	r11,192(sp)
    1478:	5897883a 	add	r11,r11,r2
    147c:	dac03015 	stw	r11,192(sp)
    1480:	1802331e 	bne	r3,zero,1d50 <___svfprintf_internal_r+0x1110>
    1484:	d8001f15 	stw	zero,124(sp)
    1488:	da000404 	addi	r8,sp,16
    148c:	003e1806 	br	cf0 <__alt_mem_Flash_flash_data+0xf4000cf0>
    1490:	db002d17 	ldw	r12,180(sp)
    1494:	dac02d17 	ldw	r11,180(sp)
    1498:	d8c02915 	stw	r3,164(sp)
    149c:	63000017 	ldw	r12,0(r12)
    14a0:	5ac00117 	ldw	r11,4(r11)
    14a4:	d9802785 	stb	r6,158(sp)
    14a8:	6009883a 	mov	r4,r12
    14ac:	580b883a 	mov	r5,r11
    14b0:	db003715 	stw	r12,220(sp)
    14b4:	da004015 	stw	r8,256(sp)
    14b8:	da403f15 	stw	r9,252(sp)
    14bc:	dac03815 	stw	r11,224(sp)
    14c0:	0009c600 	call	9c60 <__fpclassifyd>
    14c4:	db002d17 	ldw	r12,180(sp)
    14c8:	04800044 	movi	r18,1
    14cc:	da004017 	ldw	r8,256(sp)
    14d0:	64c00204 	addi	r19,r12,8
    14d4:	da403f17 	ldw	r9,252(sp)
    14d8:	d9003717 	ldw	r4,220(sp)
    14dc:	d9403817 	ldw	r5,224(sp)
    14e0:	1483561e 	bne	r2,r18,223c <___svfprintf_internal_r+0x15fc>
    14e4:	000d883a 	mov	r6,zero
    14e8:	000f883a 	mov	r7,zero
    14ec:	000ee100 	call	ee10 <__ledf2>
    14f0:	da004017 	ldw	r8,256(sp)
    14f4:	1004ee16 	blt	r2,zero,28b0 <___svfprintf_internal_r+0x1c70>
    14f8:	dd402783 	ldbu	r21,158(sp)
    14fc:	008011c4 	movi	r2,71
    1500:	1404440e 	bge	r2,r16,2614 <___svfprintf_internal_r+0x19d4>
    1504:	00c000b4 	movhi	r3,2
    1508:	18c2d004 	addi	r3,r3,2880
    150c:	d8c03115 	stw	r3,196(sp)
    1510:	02c000c4 	movi	r11,3
    1514:	00bfdfc4 	movi	r2,-129
    1518:	dac02a15 	stw	r11,168(sp)
    151c:	88a2703a 	and	r17,r17,r2
    1520:	dcc02d15 	stw	r19,180(sp)
    1524:	5825883a 	mov	r18,r11
    1528:	d8003215 	stw	zero,200(sp)
    152c:	d8003415 	stw	zero,208(sp)
    1530:	003eef06 	br	10f0 <__alt_mem_Flash_flash_data+0xf40010f0>
    1534:	8c400214 	ori	r17,r17,8
    1538:	1805883a 	mov	r2,r3
    153c:	1c000007 	ldb	r16,0(r3)
    1540:	003e1506 	br	d98 <__alt_mem_Flash_flash_data+0xf4000d98>
    1544:	8c400414 	ori	r17,r17,16
    1548:	d8c02915 	stw	r3,164(sp)
    154c:	88c0080c 	andi	r3,r17,32
    1550:	d8802d17 	ldw	r2,180(sp)
    1554:	18005526 	beq	r3,zero,16ac <___svfprintf_internal_r+0xa6c>
    1558:	dac02d17 	ldw	r11,180(sp)
    155c:	14c00017 	ldw	r19,0(r2)
    1560:	17000117 	ldw	fp,4(r2)
    1564:	5ac00204 	addi	r11,r11,8
    1568:	dac02d15 	stw	r11,180(sp)
    156c:	00800044 	movi	r2,1
    1570:	9f06b03a 	or	r3,r19,fp
    1574:	d8002785 	stb	zero,158(sp)
    1578:	da403215 	stw	r9,200(sp)
    157c:	002b883a 	mov	r21,zero
    1580:	003eb406 	br	1054 <__alt_mem_Flash_flash_data+0xf4001054>
    1584:	030000b4 	movhi	r12,2
    1588:	6302d304 	addi	r12,r12,2892
    158c:	d8c02915 	stw	r3,164(sp)
    1590:	d9802785 	stb	r6,158(sp)
    1594:	db003b15 	stw	r12,236(sp)
    1598:	88c0080c 	andi	r3,r17,32
    159c:	d8802d17 	ldw	r2,180(sp)
    15a0:	18005626 	beq	r3,zero,16fc <___svfprintf_internal_r+0xabc>
    15a4:	dac02d17 	ldw	r11,180(sp)
    15a8:	14c00017 	ldw	r19,0(r2)
    15ac:	17000117 	ldw	fp,4(r2)
    15b0:	5ac00204 	addi	r11,r11,8
    15b4:	dac02d15 	stw	r11,180(sp)
    15b8:	8880004c 	andi	r2,r17,1
    15bc:	10029326 	beq	r2,zero,200c <___svfprintf_internal_r+0x13cc>
    15c0:	9f06b03a 	or	r3,r19,fp
    15c4:	18033526 	beq	r3,zero,229c <___svfprintf_internal_r+0x165c>
    15c8:	00800c04 	movi	r2,48
    15cc:	d8802705 	stb	r2,156(sp)
    15d0:	dc002745 	stb	r16,157(sp)
    15d4:	8c400094 	ori	r17,r17,2
    15d8:	00800084 	movi	r2,2
    15dc:	003fe506 	br	1574 <__alt_mem_Flash_flash_data+0xf4001574>
    15e0:	1805883a 	mov	r2,r3
    15e4:	d8002e15 	stw	zero,184(sp)
    15e8:	82fff404 	addi	r11,r16,-48
    15ec:	0019883a 	mov	r12,zero
    15f0:	14000007 	ldb	r16,0(r2)
    15f4:	630002a4 	muli	r12,r12,10
    15f8:	18c00044 	addi	r3,r3,1
    15fc:	1805883a 	mov	r2,r3
    1600:	62d9883a 	add	r12,r12,r11
    1604:	82fff404 	addi	r11,r16,-48
    1608:	2afff92e 	bgeu	r5,r11,15f0 <__alt_mem_Flash_flash_data+0xf40015f0>
    160c:	db002e15 	stw	r12,184(sp)
    1610:	003de206 	br	d9c <__alt_mem_Flash_flash_data+0xf4000d9c>
    1614:	8c400814 	ori	r17,r17,32
    1618:	1805883a 	mov	r2,r3
    161c:	1c000007 	ldb	r16,0(r3)
    1620:	003ddd06 	br	d98 <__alt_mem_Flash_flash_data+0xf4000d98>
    1624:	dac02d17 	ldw	r11,180(sp)
    1628:	db002d17 	ldw	r12,180(sp)
    162c:	d8c02915 	stw	r3,164(sp)
    1630:	5ac00017 	ldw	r11,0(r11)
    1634:	d8002785 	stb	zero,158(sp)
    1638:	64c00104 	addi	r19,r12,4
    163c:	dac03115 	stw	r11,196(sp)
    1640:	58048126 	beq	r11,zero,2848 <___svfprintf_internal_r+0x1c08>
    1644:	d9003117 	ldw	r4,196(sp)
    1648:	48041716 	blt	r9,zero,26a8 <___svfprintf_internal_r+0x1a68>
    164c:	480d883a 	mov	r6,r9
    1650:	000b883a 	mov	r5,zero
    1654:	da004015 	stw	r8,256(sp)
    1658:	da403f15 	stw	r9,252(sp)
    165c:	000814c0 	call	814c <memchr>
    1660:	da004017 	ldw	r8,256(sp)
    1664:	da403f17 	ldw	r9,252(sp)
    1668:	1004db26 	beq	r2,zero,29d8 <___svfprintf_internal_r+0x1d98>
    166c:	d8c03117 	ldw	r3,196(sp)
    1670:	10e5c83a 	sub	r18,r2,r3
    1674:	4c80010e 	bge	r9,r18,167c <___svfprintf_internal_r+0xa3c>
    1678:	4825883a 	mov	r18,r9
    167c:	9005883a 	mov	r2,r18
    1680:	90040e16 	blt	r18,zero,26bc <___svfprintf_internal_r+0x1a7c>
    1684:	dd402783 	ldbu	r21,158(sp)
    1688:	d8802a15 	stw	r2,168(sp)
    168c:	dcc02d15 	stw	r19,180(sp)
    1690:	d8003215 	stw	zero,200(sp)
    1694:	d8003415 	stw	zero,208(sp)
    1698:	003e9506 	br	10f0 <__alt_mem_Flash_flash_data+0xf40010f0>
    169c:	d8c02915 	stw	r3,164(sp)
    16a0:	88c0080c 	andi	r3,r17,32
    16a4:	d8802d17 	ldw	r2,180(sp)
    16a8:	183fab1e 	bne	r3,zero,1558 <__alt_mem_Flash_flash_data+0xf4001558>
    16ac:	88c0040c 	andi	r3,r17,16
    16b0:	1802681e 	bne	r3,zero,2054 <___svfprintf_internal_r+0x1414>
    16b4:	88c0100c 	andi	r3,r17,64
    16b8:	18026626 	beq	r3,zero,2054 <___svfprintf_internal_r+0x1414>
    16bc:	dac02d17 	ldw	r11,180(sp)
    16c0:	14c0000b 	ldhu	r19,0(r2)
    16c4:	0039883a 	mov	fp,zero
    16c8:	5ac00104 	addi	r11,r11,4
    16cc:	dac02d15 	stw	r11,180(sp)
    16d0:	00800044 	movi	r2,1
    16d4:	9807883a 	mov	r3,r19
    16d8:	003fa606 	br	1574 <__alt_mem_Flash_flash_data+0xf4001574>
    16dc:	008000b4 	movhi	r2,2
    16e0:	1082d804 	addi	r2,r2,2912
    16e4:	d8c02915 	stw	r3,164(sp)
    16e8:	d8803b15 	stw	r2,236(sp)
    16ec:	d9802785 	stb	r6,158(sp)
    16f0:	88c0080c 	andi	r3,r17,32
    16f4:	d8802d17 	ldw	r2,180(sp)
    16f8:	183faa1e 	bne	r3,zero,15a4 <__alt_mem_Flash_flash_data+0xf40015a4>
    16fc:	88c0040c 	andi	r3,r17,16
    1700:	1802e826 	beq	r3,zero,22a4 <___svfprintf_internal_r+0x1664>
    1704:	db002d17 	ldw	r12,180(sp)
    1708:	14c00017 	ldw	r19,0(r2)
    170c:	0039883a 	mov	fp,zero
    1710:	63000104 	addi	r12,r12,4
    1714:	db002d15 	stw	r12,180(sp)
    1718:	003fa706 	br	15b8 <__alt_mem_Flash_flash_data+0xf40015b8>
    171c:	30803fcc 	andi	r2,r6,255
    1720:	1080201c 	xori	r2,r2,128
    1724:	10bfe004 	addi	r2,r2,-128
    1728:	1002d91e 	bne	r2,zero,2290 <___svfprintf_internal_r+0x1650>
    172c:	1805883a 	mov	r2,r3
    1730:	01800804 	movi	r6,32
    1734:	1c000007 	ldb	r16,0(r3)
    1738:	003d9706 	br	d98 <__alt_mem_Flash_flash_data+0xf4000d98>
    173c:	8c400054 	ori	r17,r17,1
    1740:	1805883a 	mov	r2,r3
    1744:	1c000007 	ldb	r16,0(r3)
    1748:	003d9306 	br	d98 <__alt_mem_Flash_flash_data+0xf4000d98>
    174c:	dac02d17 	ldw	r11,180(sp)
    1750:	db002d17 	ldw	r12,180(sp)
    1754:	5ac00017 	ldw	r11,0(r11)
    1758:	dac02e15 	stw	r11,184(sp)
    175c:	62c00104 	addi	r11,r12,4
    1760:	db002e17 	ldw	r12,184(sp)
    1764:	60033e16 	blt	r12,zero,2460 <___svfprintf_internal_r+0x1820>
    1768:	dac02d15 	stw	r11,180(sp)
    176c:	1805883a 	mov	r2,r3
    1770:	1c000007 	ldb	r16,0(r3)
    1774:	003d8806 	br	d98 <__alt_mem_Flash_flash_data+0xf4000d98>
    1778:	1805883a 	mov	r2,r3
    177c:	01800ac4 	movi	r6,43
    1780:	1c000007 	ldb	r16,0(r3)
    1784:	003d8406 	br	d98 <__alt_mem_Flash_flash_data+0xf4000d98>
    1788:	8c401014 	ori	r17,r17,64
    178c:	1805883a 	mov	r2,r3
    1790:	1c000007 	ldb	r16,0(r3)
    1794:	003d8006 	br	d98 <__alt_mem_Flash_flash_data+0xf4000d98>
    1798:	1c000007 	ldb	r16,0(r3)
    179c:	81c33626 	beq	r16,r7,2478 <___svfprintf_internal_r+0x1838>
    17a0:	8c400414 	ori	r17,r17,16
    17a4:	1805883a 	mov	r2,r3
    17a8:	003d7b06 	br	d98 <__alt_mem_Flash_flash_data+0xf4000d98>
    17ac:	d8c02915 	stw	r3,164(sp)
    17b0:	d9802785 	stb	r6,158(sp)
    17b4:	8880080c 	andi	r2,r17,32
    17b8:	1002c226 	beq	r2,zero,22c4 <___svfprintf_internal_r+0x1684>
    17bc:	db002d17 	ldw	r12,180(sp)
    17c0:	dac03017 	ldw	r11,192(sp)
    17c4:	60800017 	ldw	r2,0(r12)
    17c8:	5807d7fa 	srai	r3,r11,31
    17cc:	63000104 	addi	r12,r12,4
    17d0:	db002d15 	stw	r12,180(sp)
    17d4:	12c00015 	stw	r11,0(r2)
    17d8:	10c00115 	stw	r3,4(r2)
    17dc:	003d4406 	br	cf0 <__alt_mem_Flash_flash_data+0xf4000cf0>
    17e0:	db002d17 	ldw	r12,180(sp)
    17e4:	00800c04 	movi	r2,48
    17e8:	d8802705 	stb	r2,156(sp)
    17ec:	64c00017 	ldw	r19,0(r12)
    17f0:	00801e04 	movi	r2,120
    17f4:	d8802745 	stb	r2,157(sp)
    17f8:	008000b4 	movhi	r2,2
    17fc:	1082d804 	addi	r2,r2,2912
    1800:	63000104 	addi	r12,r12,4
    1804:	d8c02915 	stw	r3,164(sp)
    1808:	d8803b15 	stw	r2,236(sp)
    180c:	0039883a 	mov	fp,zero
    1810:	8c400094 	ori	r17,r17,2
    1814:	db002d15 	stw	r12,180(sp)
    1818:	00800084 	movi	r2,2
    181c:	04001e04 	movi	r16,120
    1820:	9807883a 	mov	r3,r19
    1824:	003f5306 	br	1574 <__alt_mem_Flash_flash_data+0xf4001574>
    1828:	db002d17 	ldw	r12,180(sp)
    182c:	d8c02915 	stw	r3,164(sp)
    1830:	dac01404 	addi	r11,sp,80
    1834:	60800017 	ldw	r2,0(r12)
    1838:	00c00044 	movi	r3,1
    183c:	63000104 	addi	r12,r12,4
    1840:	d8801405 	stb	r2,80(sp)
    1844:	d8c02a15 	stw	r3,168(sp)
    1848:	d8002785 	stb	zero,158(sp)
    184c:	db002d15 	stw	r12,180(sp)
    1850:	1825883a 	mov	r18,r3
    1854:	d8003215 	stw	zero,200(sp)
    1858:	d8003415 	stw	zero,208(sp)
    185c:	dac03115 	stw	r11,196(sp)
    1860:	0005883a 	mov	r2,zero
    1864:	003e2906 	br	110c <__alt_mem_Flash_flash_data+0xf400110c>
    1868:	d8c02915 	stw	r3,164(sp)
    186c:	d9802785 	stb	r6,158(sp)
    1870:	8880080c 	andi	r2,r17,32
    1874:	d8c02d17 	ldw	r3,180(sp)
    1878:	103deb1e 	bne	r2,zero,1028 <__alt_mem_Flash_flash_data+0xf4001028>
    187c:	8880040c 	andi	r2,r17,16
    1880:	1001e51e 	bne	r2,zero,2018 <___svfprintf_internal_r+0x13d8>
    1884:	8880100c 	andi	r2,r17,64
    1888:	1001e326 	beq	r2,zero,2018 <___svfprintf_internal_r+0x13d8>
    188c:	1cc0000f 	ldh	r19,0(r3)
    1890:	db002d17 	ldw	r12,180(sp)
    1894:	9839d7fa 	srai	fp,r19,31
    1898:	63000104 	addi	r12,r12,4
    189c:	db002d15 	stw	r12,180(sp)
    18a0:	e005883a 	mov	r2,fp
    18a4:	103de70e 	bge	r2,zero,1044 <__alt_mem_Flash_flash_data+0xf4001044>
    18a8:	04e7c83a 	sub	r19,zero,r19
    18ac:	9804c03a 	cmpne	r2,r19,zero
    18b0:	0739c83a 	sub	fp,zero,fp
    18b4:	e0b9c83a 	sub	fp,fp,r2
    18b8:	05400b44 	movi	r21,45
    18bc:	dd402785 	stb	r21,158(sp)
    18c0:	da403215 	stw	r9,200(sp)
    18c4:	00800044 	movi	r2,1
    18c8:	9f06b03a 	or	r3,r19,fp
    18cc:	003de106 	br	1054 <__alt_mem_Flash_flash_data+0xf4001054>
    18d0:	8c400414 	ori	r17,r17,16
    18d4:	d8c02915 	stw	r3,164(sp)
    18d8:	8880080c 	andi	r2,r17,32
    18dc:	10000b26 	beq	r2,zero,190c <___svfprintf_internal_r+0xccc>
    18e0:	db002d17 	ldw	r12,180(sp)
    18e4:	0005883a 	mov	r2,zero
    18e8:	64c00017 	ldw	r19,0(r12)
    18ec:	67000117 	ldw	fp,4(r12)
    18f0:	63000204 	addi	r12,r12,8
    18f4:	db002d15 	stw	r12,180(sp)
    18f8:	9f06b03a 	or	r3,r19,fp
    18fc:	003f1d06 	br	1574 <__alt_mem_Flash_flash_data+0xf4001574>
    1900:	d8c02915 	stw	r3,164(sp)
    1904:	8880080c 	andi	r2,r17,32
    1908:	103ff51e 	bne	r2,zero,18e0 <__alt_mem_Flash_flash_data+0xf40018e0>
    190c:	8880040c 	andi	r2,r17,16
    1910:	1001c81e 	bne	r2,zero,2034 <___svfprintf_internal_r+0x13f4>
    1914:	8880100c 	andi	r2,r17,64
    1918:	1001c626 	beq	r2,zero,2034 <___svfprintf_internal_r+0x13f4>
    191c:	db002d17 	ldw	r12,180(sp)
    1920:	0039883a 	mov	fp,zero
    1924:	0005883a 	mov	r2,zero
    1928:	64c0000b 	ldhu	r19,0(r12)
    192c:	63000104 	addi	r12,r12,4
    1930:	db002d15 	stw	r12,180(sp)
    1934:	9807883a 	mov	r3,r19
    1938:	003f0e06 	br	1574 <__alt_mem_Flash_flash_data+0xf4001574>
    193c:	d8c02915 	stw	r3,164(sp)
    1940:	d9802785 	stb	r6,158(sp)
    1944:	803d8026 	beq	r16,zero,f48 <__alt_mem_Flash_flash_data+0xf4000f48>
    1948:	02c00044 	movi	r11,1
    194c:	db001404 	addi	r12,sp,80
    1950:	dac02a15 	stw	r11,168(sp)
    1954:	dc001405 	stb	r16,80(sp)
    1958:	d8002785 	stb	zero,158(sp)
    195c:	5825883a 	mov	r18,r11
    1960:	d8003215 	stw	zero,200(sp)
    1964:	d8003415 	stw	zero,208(sp)
    1968:	db003115 	stw	r12,196(sp)
    196c:	0005883a 	mov	r2,zero
    1970:	003de606 	br	110c <__alt_mem_Flash_flash_data+0xf400110c>
    1974:	d8c02017 	ldw	r3,128(sp)
    1978:	003e2706 	br	1218 <__alt_mem_Flash_flash_data+0xf4001218>
    197c:	10803fcc 	andi	r2,r2,255
    1980:	00c00044 	movi	r3,1
    1984:	10fdbb1e 	bne	r2,r3,1074 <__alt_mem_Flash_flash_data+0xf4001074>
    1988:	e000021e 	bne	fp,zero,1994 <___svfprintf_internal_r+0xd54>
    198c:	00800244 	movi	r2,9
    1990:	14c01f2e 	bgeu	r2,r19,1a10 <___svfprintf_internal_r+0xdd0>
    1994:	dc002a15 	stw	r16,168(sp)
    1998:	dc402b15 	stw	r17,172(sp)
    199c:	9821883a 	mov	r16,r19
    19a0:	e023883a 	mov	r17,fp
    19a4:	b025883a 	mov	r18,r22
    19a8:	4827883a 	mov	r19,r9
    19ac:	4039883a 	mov	fp,r8
    19b0:	8009883a 	mov	r4,r16
    19b4:	880b883a 	mov	r5,r17
    19b8:	01800284 	movi	r6,10
    19bc:	000f883a 	mov	r7,zero
    19c0:	000d4880 	call	d488 <__umoddi3>
    19c4:	10800c04 	addi	r2,r2,48
    19c8:	94bfffc4 	addi	r18,r18,-1
    19cc:	8009883a 	mov	r4,r16
    19d0:	880b883a 	mov	r5,r17
    19d4:	01800284 	movi	r6,10
    19d8:	000f883a 	mov	r7,zero
    19dc:	90800005 	stb	r2,0(r18)
    19e0:	000cec80 	call	cec8 <__udivdi3>
    19e4:	1021883a 	mov	r16,r2
    19e8:	10c4b03a 	or	r2,r2,r3
    19ec:	1823883a 	mov	r17,r3
    19f0:	103fef1e 	bne	r2,zero,19b0 <__alt_mem_Flash_flash_data+0xf40019b0>
    19f4:	dc803115 	stw	r18,196(sp)
    19f8:	dc002a17 	ldw	r16,168(sp)
    19fc:	dc402b17 	ldw	r17,172(sp)
    1a00:	9813883a 	mov	r9,r19
    1a04:	e011883a 	mov	r8,fp
    1a08:	b4a5c83a 	sub	r18,r22,r18
    1a0c:	003db306 	br	10dc <__alt_mem_Flash_flash_data+0xf40010dc>
    1a10:	9cc00c04 	addi	r19,r19,48
    1a14:	db001dc4 	addi	r12,sp,119
    1a18:	dcc01dc5 	stb	r19,119(sp)
    1a1c:	dc803d17 	ldw	r18,244(sp)
    1a20:	db003115 	stw	r12,196(sp)
    1a24:	003dad06 	br	10dc <__alt_mem_Flash_flash_data+0xf40010dc>
    1a28:	00801944 	movi	r2,101
    1a2c:	14008d0e 	bge	r2,r16,1c64 <___svfprintf_internal_r+0x1024>
    1a30:	d9003717 	ldw	r4,220(sp)
    1a34:	d9403817 	ldw	r5,224(sp)
    1a38:	000d883a 	mov	r6,zero
    1a3c:	000f883a 	mov	r7,zero
    1a40:	d8c03e15 	stw	r3,248(sp)
    1a44:	da004015 	stw	r8,256(sp)
    1a48:	000ecac0 	call	ecac <__eqdf2>
    1a4c:	d8c03e17 	ldw	r3,248(sp)
    1a50:	da004017 	ldw	r8,256(sp)
    1a54:	1000fd1e 	bne	r2,zero,1e4c <___svfprintf_internal_r+0x120c>
    1a58:	d8801f17 	ldw	r2,124(sp)
    1a5c:	010000b4 	movhi	r4,2
    1a60:	2102df04 	addi	r4,r4,2940
    1a64:	18c00044 	addi	r3,r3,1
    1a68:	10800044 	addi	r2,r2,1
    1a6c:	41000015 	stw	r4,0(r8)
    1a70:	01000044 	movi	r4,1
    1a74:	41000115 	stw	r4,4(r8)
    1a78:	d8c02015 	stw	r3,128(sp)
    1a7c:	d8801f15 	stw	r2,124(sp)
    1a80:	010001c4 	movi	r4,7
    1a84:	20823316 	blt	r4,r2,2354 <___svfprintf_internal_r+0x1714>
    1a88:	42000204 	addi	r8,r8,8
    1a8c:	d8802617 	ldw	r2,152(sp)
    1a90:	dac03317 	ldw	r11,204(sp)
    1a94:	12c00216 	blt	r2,r11,1aa0 <___svfprintf_internal_r+0xe60>
    1a98:	8880004c 	andi	r2,r17,1
    1a9c:	103e3d26 	beq	r2,zero,1394 <__alt_mem_Flash_flash_data+0xf4001394>
    1aa0:	db003917 	ldw	r12,228(sp)
    1aa4:	d8801f17 	ldw	r2,124(sp)
    1aa8:	dac03517 	ldw	r11,212(sp)
    1aac:	1b07883a 	add	r3,r3,r12
    1ab0:	10800044 	addi	r2,r2,1
    1ab4:	42c00015 	stw	r11,0(r8)
    1ab8:	43000115 	stw	r12,4(r8)
    1abc:	d8c02015 	stw	r3,128(sp)
    1ac0:	d8801f15 	stw	r2,124(sp)
    1ac4:	010001c4 	movi	r4,7
    1ac8:	20826f16 	blt	r4,r2,2488 <___svfprintf_internal_r+0x1848>
    1acc:	42000204 	addi	r8,r8,8
    1ad0:	db003317 	ldw	r12,204(sp)
    1ad4:	643fffc4 	addi	r16,r12,-1
    1ad8:	043e2e0e 	bge	zero,r16,1394 <__alt_mem_Flash_flash_data+0xf4001394>
    1adc:	04800404 	movi	r18,16
    1ae0:	d8801f17 	ldw	r2,124(sp)
    1ae4:	9400a00e 	bge	r18,r16,1d68 <___svfprintf_internal_r+0x1128>
    1ae8:	014000b4 	movhi	r5,2
    1aec:	2942df84 	addi	r5,r5,2942
    1af0:	d9402b15 	stw	r5,172(sp)
    1af4:	054001c4 	movi	r21,7
    1af8:	dcc02f17 	ldw	r19,188(sp)
    1afc:	00000306 	br	1b0c <___svfprintf_internal_r+0xecc>
    1b00:	42000204 	addi	r8,r8,8
    1b04:	843ffc04 	addi	r16,r16,-16
    1b08:	94009a0e 	bge	r18,r16,1d74 <___svfprintf_internal_r+0x1134>
    1b0c:	18c00404 	addi	r3,r3,16
    1b10:	10800044 	addi	r2,r2,1
    1b14:	45000015 	stw	r20,0(r8)
    1b18:	44800115 	stw	r18,4(r8)
    1b1c:	d8c02015 	stw	r3,128(sp)
    1b20:	d8801f15 	stw	r2,124(sp)
    1b24:	a8bff60e 	bge	r21,r2,1b00 <__alt_mem_Flash_flash_data+0xf4001b00>
    1b28:	9809883a 	mov	r4,r19
    1b2c:	b80b883a 	mov	r5,r23
    1b30:	b00d883a 	mov	r6,r22
    1b34:	0009f080 	call	9f08 <__ssprint_r>
    1b38:	103d091e 	bne	r2,zero,f60 <__alt_mem_Flash_flash_data+0xf4000f60>
    1b3c:	d8c02017 	ldw	r3,128(sp)
    1b40:	d8801f17 	ldw	r2,124(sp)
    1b44:	da000404 	addi	r8,sp,16
    1b48:	003fee06 	br	1b04 <__alt_mem_Flash_flash_data+0xf4001b04>
    1b4c:	dac02e17 	ldw	r11,184(sp)
    1b50:	db002a17 	ldw	r12,168(sp)
    1b54:	5b2bc83a 	sub	r21,r11,r12
    1b58:	057dcd0e 	bge	zero,r21,1290 <__alt_mem_Flash_flash_data+0xf4001290>
    1b5c:	07000404 	movi	fp,16
    1b60:	d8801f17 	ldw	r2,124(sp)
    1b64:	e5435d0e 	bge	fp,r21,28dc <___svfprintf_internal_r+0x1c9c>
    1b68:	014000b4 	movhi	r5,2
    1b6c:	a809883a 	mov	r4,r21
    1b70:	2942df84 	addi	r5,r5,2942
    1b74:	dc002c15 	stw	r16,176(sp)
    1b78:	902b883a 	mov	r21,r18
    1b7c:	d9402b15 	stw	r5,172(sp)
    1b80:	8825883a 	mov	r18,r17
    1b84:	04c001c4 	movi	r19,7
    1b88:	dc002f17 	ldw	r16,188(sp)
    1b8c:	2023883a 	mov	r17,r4
    1b90:	00000306 	br	1ba0 <___svfprintf_internal_r+0xf60>
    1b94:	8c7ffc04 	addi	r17,r17,-16
    1b98:	42000204 	addi	r8,r8,8
    1b9c:	e440110e 	bge	fp,r17,1be4 <___svfprintf_internal_r+0xfa4>
    1ba0:	18c00404 	addi	r3,r3,16
    1ba4:	10800044 	addi	r2,r2,1
    1ba8:	45000015 	stw	r20,0(r8)
    1bac:	47000115 	stw	fp,4(r8)
    1bb0:	d8c02015 	stw	r3,128(sp)
    1bb4:	d8801f15 	stw	r2,124(sp)
    1bb8:	98bff60e 	bge	r19,r2,1b94 <__alt_mem_Flash_flash_data+0xf4001b94>
    1bbc:	8009883a 	mov	r4,r16
    1bc0:	b80b883a 	mov	r5,r23
    1bc4:	b00d883a 	mov	r6,r22
    1bc8:	0009f080 	call	9f08 <__ssprint_r>
    1bcc:	103ce41e 	bne	r2,zero,f60 <__alt_mem_Flash_flash_data+0xf4000f60>
    1bd0:	8c7ffc04 	addi	r17,r17,-16
    1bd4:	d8c02017 	ldw	r3,128(sp)
    1bd8:	d8801f17 	ldw	r2,124(sp)
    1bdc:	da000404 	addi	r8,sp,16
    1be0:	e47fef16 	blt	fp,r17,1ba0 <__alt_mem_Flash_flash_data+0xf4001ba0>
    1be4:	dc002c17 	ldw	r16,176(sp)
    1be8:	8809883a 	mov	r4,r17
    1bec:	9023883a 	mov	r17,r18
    1bf0:	a825883a 	mov	r18,r21
    1bf4:	202b883a 	mov	r21,r4
    1bf8:	dac02b17 	ldw	r11,172(sp)
    1bfc:	1d47883a 	add	r3,r3,r21
    1c00:	10800044 	addi	r2,r2,1
    1c04:	42c00015 	stw	r11,0(r8)
    1c08:	45400115 	stw	r21,4(r8)
    1c0c:	d8c02015 	stw	r3,128(sp)
    1c10:	d8801f15 	stw	r2,124(sp)
    1c14:	010001c4 	movi	r4,7
    1c18:	20818016 	blt	r4,r2,221c <___svfprintf_internal_r+0x15dc>
    1c1c:	42000204 	addi	r8,r8,8
    1c20:	003d9b06 	br	1290 <__alt_mem_Flash_flash_data+0xf4001290>
    1c24:	d9403b17 	ldw	r5,236(sp)
    1c28:	b007883a 	mov	r3,r22
    1c2c:	988003cc 	andi	r2,r19,15
    1c30:	e008973a 	slli	r4,fp,28
    1c34:	2885883a 	add	r2,r5,r2
    1c38:	9826d13a 	srli	r19,r19,4
    1c3c:	10800003 	ldbu	r2,0(r2)
    1c40:	e038d13a 	srli	fp,fp,4
    1c44:	18ffffc4 	addi	r3,r3,-1
    1c48:	24e6b03a 	or	r19,r4,r19
    1c4c:	18800005 	stb	r2,0(r3)
    1c50:	9f04b03a 	or	r2,r19,fp
    1c54:	103ff51e 	bne	r2,zero,1c2c <__alt_mem_Flash_flash_data+0xf4001c2c>
    1c58:	d8c03115 	stw	r3,196(sp)
    1c5c:	b0e5c83a 	sub	r18,r22,r3
    1c60:	003d1e06 	br	10dc <__alt_mem_Flash_flash_data+0xf40010dc>
    1c64:	db003317 	ldw	r12,204(sp)
    1c68:	00800044 	movi	r2,1
    1c6c:	18c00044 	addi	r3,r3,1
    1c70:	13014b0e 	bge	r2,r12,21a0 <___svfprintf_internal_r+0x1560>
    1c74:	dc001f17 	ldw	r16,124(sp)
    1c78:	dac03117 	ldw	r11,196(sp)
    1c7c:	00800044 	movi	r2,1
    1c80:	84000044 	addi	r16,r16,1
    1c84:	40800115 	stw	r2,4(r8)
    1c88:	42c00015 	stw	r11,0(r8)
    1c8c:	d8c02015 	stw	r3,128(sp)
    1c90:	dc001f15 	stw	r16,124(sp)
    1c94:	008001c4 	movi	r2,7
    1c98:	14014e16 	blt	r2,r16,21d4 <___svfprintf_internal_r+0x1594>
    1c9c:	42000204 	addi	r8,r8,8
    1ca0:	db003917 	ldw	r12,228(sp)
    1ca4:	dac03517 	ldw	r11,212(sp)
    1ca8:	84000044 	addi	r16,r16,1
    1cac:	1b07883a 	add	r3,r3,r12
    1cb0:	42c00015 	stw	r11,0(r8)
    1cb4:	43000115 	stw	r12,4(r8)
    1cb8:	d8c02015 	stw	r3,128(sp)
    1cbc:	dc001f15 	stw	r16,124(sp)
    1cc0:	008001c4 	movi	r2,7
    1cc4:	14014c16 	blt	r2,r16,21f8 <___svfprintf_internal_r+0x15b8>
    1cc8:	44800204 	addi	r18,r8,8
    1ccc:	d9003717 	ldw	r4,220(sp)
    1cd0:	d9403817 	ldw	r5,224(sp)
    1cd4:	000d883a 	mov	r6,zero
    1cd8:	000f883a 	mov	r7,zero
    1cdc:	d8c03e15 	stw	r3,248(sp)
    1ce0:	000ecac0 	call	ecac <__eqdf2>
    1ce4:	d8c03e17 	ldw	r3,248(sp)
    1ce8:	db003317 	ldw	r12,204(sp)
    1cec:	10009526 	beq	r2,zero,1f44 <___svfprintf_internal_r+0x1304>
    1cf0:	dac03117 	ldw	r11,196(sp)
    1cf4:	60bfffc4 	addi	r2,r12,-1
    1cf8:	1887883a 	add	r3,r3,r2
    1cfc:	59000044 	addi	r4,r11,1
    1d00:	84000044 	addi	r16,r16,1
    1d04:	90800115 	stw	r2,4(r18)
    1d08:	91000015 	stw	r4,0(r18)
    1d0c:	d8c02015 	stw	r3,128(sp)
    1d10:	dc001f15 	stw	r16,124(sp)
    1d14:	008001c4 	movi	r2,7
    1d18:	1400b316 	blt	r2,r16,1fe8 <___svfprintf_internal_r+0x13a8>
    1d1c:	94800204 	addi	r18,r18,8
    1d20:	dac03a17 	ldw	r11,232(sp)
    1d24:	dd4022c4 	addi	r21,sp,139
    1d28:	84000044 	addi	r16,r16,1
    1d2c:	1ac7883a 	add	r3,r3,r11
    1d30:	95400015 	stw	r21,0(r18)
    1d34:	92c00115 	stw	r11,4(r18)
    1d38:	d8c02015 	stw	r3,128(sp)
    1d3c:	dc001f15 	stw	r16,124(sp)
    1d40:	008001c4 	movi	r2,7
    1d44:	14001416 	blt	r2,r16,1d98 <___svfprintf_internal_r+0x1158>
    1d48:	92000204 	addi	r8,r18,8
    1d4c:	003d9106 	br	1394 <__alt_mem_Flash_flash_data+0xf4001394>
    1d50:	d9002f17 	ldw	r4,188(sp)
    1d54:	b80b883a 	mov	r5,r23
    1d58:	b00d883a 	mov	r6,r22
    1d5c:	0009f080 	call	9f08 <__ssprint_r>
    1d60:	103dc826 	beq	r2,zero,1484 <__alt_mem_Flash_flash_data+0xf4001484>
    1d64:	003c7e06 	br	f60 <__alt_mem_Flash_flash_data+0xf4000f60>
    1d68:	010000b4 	movhi	r4,2
    1d6c:	2102df84 	addi	r4,r4,2942
    1d70:	d9002b15 	stw	r4,172(sp)
    1d74:	dac02b17 	ldw	r11,172(sp)
    1d78:	1c07883a 	add	r3,r3,r16
    1d7c:	44000115 	stw	r16,4(r8)
    1d80:	42c00015 	stw	r11,0(r8)
    1d84:	10800044 	addi	r2,r2,1
    1d88:	d8c02015 	stw	r3,128(sp)
    1d8c:	d8801f15 	stw	r2,124(sp)
    1d90:	010001c4 	movi	r4,7
    1d94:	20bd7e0e 	bge	r4,r2,1390 <__alt_mem_Flash_flash_data+0xf4001390>
    1d98:	d9002f17 	ldw	r4,188(sp)
    1d9c:	b80b883a 	mov	r5,r23
    1da0:	b00d883a 	mov	r6,r22
    1da4:	0009f080 	call	9f08 <__ssprint_r>
    1da8:	103c6d1e 	bne	r2,zero,f60 <__alt_mem_Flash_flash_data+0xf4000f60>
    1dac:	d8c02017 	ldw	r3,128(sp)
    1db0:	da000404 	addi	r8,sp,16
    1db4:	003d7706 	br	1394 <__alt_mem_Flash_flash_data+0xf4001394>
    1db8:	10803fcc 	andi	r2,r2,255
    1dbc:	1000201e 	bne	r2,zero,1e40 <___svfprintf_internal_r+0x1200>
    1dc0:	8880004c 	andi	r2,r17,1
    1dc4:	10001e26 	beq	r2,zero,1e40 <___svfprintf_internal_r+0x1200>
    1dc8:	00800c04 	movi	r2,48
    1dcc:	d8c01dc4 	addi	r3,sp,119
    1dd0:	d8801dc5 	stb	r2,119(sp)
    1dd4:	dc803d17 	ldw	r18,244(sp)
    1dd8:	d8c03115 	stw	r3,196(sp)
    1ddc:	003cbf06 	br	10dc <__alt_mem_Flash_flash_data+0xf40010dc>
    1de0:	d9002f17 	ldw	r4,188(sp)
    1de4:	b80b883a 	mov	r5,r23
    1de8:	b00d883a 	mov	r6,r22
    1dec:	0009f080 	call	9f08 <__ssprint_r>
    1df0:	103c5b1e 	bne	r2,zero,f60 <__alt_mem_Flash_flash_data+0xf4000f60>
    1df4:	d8c02017 	ldw	r3,128(sp)
    1df8:	da000404 	addi	r8,sp,16
    1dfc:	003d5806 	br	1360 <__alt_mem_Flash_flash_data+0xf4001360>
    1e00:	d9002f17 	ldw	r4,188(sp)
    1e04:	b80b883a 	mov	r5,r23
    1e08:	b00d883a 	mov	r6,r22
    1e0c:	0009f080 	call	9f08 <__ssprint_r>
    1e10:	103c531e 	bne	r2,zero,f60 <__alt_mem_Flash_flash_data+0xf4000f60>
    1e14:	d8c02017 	ldw	r3,128(sp)
    1e18:	da000404 	addi	r8,sp,16
    1e1c:	003d1906 	br	1284 <__alt_mem_Flash_flash_data+0xf4001284>
    1e20:	d9002f17 	ldw	r4,188(sp)
    1e24:	b80b883a 	mov	r5,r23
    1e28:	b00d883a 	mov	r6,r22
    1e2c:	0009f080 	call	9f08 <__ssprint_r>
    1e30:	103c4b1e 	bne	r2,zero,f60 <__alt_mem_Flash_flash_data+0xf4000f60>
    1e34:	d8c02017 	ldw	r3,128(sp)
    1e38:	da000404 	addi	r8,sp,16
    1e3c:	003d0306 	br	124c <__alt_mem_Flash_flash_data+0xf400124c>
    1e40:	0025883a 	mov	r18,zero
    1e44:	dd803115 	stw	r22,196(sp)
    1e48:	003ca406 	br	10dc <__alt_mem_Flash_flash_data+0xf40010dc>
    1e4c:	dc002617 	ldw	r16,152(sp)
    1e50:	0401480e 	bge	zero,r16,2374 <___svfprintf_internal_r+0x1734>
    1e54:	db003117 	ldw	r12,196(sp)
    1e58:	dac03317 	ldw	r11,204(sp)
    1e5c:	62e1883a 	add	r16,r12,r11
    1e60:	db003417 	ldw	r12,208(sp)
    1e64:	5825883a 	mov	r18,r11
    1e68:	62c0010e 	bge	r12,r11,1e70 <___svfprintf_internal_r+0x1230>
    1e6c:	6025883a 	mov	r18,r12
    1e70:	04800b0e 	bge	zero,r18,1ea0 <___svfprintf_internal_r+0x1260>
    1e74:	d8801f17 	ldw	r2,124(sp)
    1e78:	dac03117 	ldw	r11,196(sp)
    1e7c:	1c87883a 	add	r3,r3,r18
    1e80:	10800044 	addi	r2,r2,1
    1e84:	42c00015 	stw	r11,0(r8)
    1e88:	44800115 	stw	r18,4(r8)
    1e8c:	d8c02015 	stw	r3,128(sp)
    1e90:	d8801f15 	stw	r2,124(sp)
    1e94:	010001c4 	movi	r4,7
    1e98:	20823f16 	blt	r4,r2,2798 <___svfprintf_internal_r+0x1b58>
    1e9c:	42000204 	addi	r8,r8,8
    1ea0:	90023b16 	blt	r18,zero,2790 <___svfprintf_internal_r+0x1b50>
    1ea4:	db003417 	ldw	r12,208(sp)
    1ea8:	64a5c83a 	sub	r18,r12,r18
    1eac:	0480780e 	bge	zero,r18,2090 <___svfprintf_internal_r+0x1450>
    1eb0:	05400404 	movi	r21,16
    1eb4:	d8801f17 	ldw	r2,124(sp)
    1eb8:	ac81140e 	bge	r21,r18,230c <___svfprintf_internal_r+0x16cc>
    1ebc:	014000b4 	movhi	r5,2
    1ec0:	2942df84 	addi	r5,r5,2942
    1ec4:	d9402b15 	stw	r5,172(sp)
    1ec8:	070001c4 	movi	fp,7
    1ecc:	dcc02f17 	ldw	r19,188(sp)
    1ed0:	00000306 	br	1ee0 <___svfprintf_internal_r+0x12a0>
    1ed4:	42000204 	addi	r8,r8,8
    1ed8:	94bffc04 	addi	r18,r18,-16
    1edc:	ac810e0e 	bge	r21,r18,2318 <___svfprintf_internal_r+0x16d8>
    1ee0:	18c00404 	addi	r3,r3,16
    1ee4:	10800044 	addi	r2,r2,1
    1ee8:	45000015 	stw	r20,0(r8)
    1eec:	45400115 	stw	r21,4(r8)
    1ef0:	d8c02015 	stw	r3,128(sp)
    1ef4:	d8801f15 	stw	r2,124(sp)
    1ef8:	e0bff60e 	bge	fp,r2,1ed4 <__alt_mem_Flash_flash_data+0xf4001ed4>
    1efc:	9809883a 	mov	r4,r19
    1f00:	b80b883a 	mov	r5,r23
    1f04:	b00d883a 	mov	r6,r22
    1f08:	0009f080 	call	9f08 <__ssprint_r>
    1f0c:	103c141e 	bne	r2,zero,f60 <__alt_mem_Flash_flash_data+0xf4000f60>
    1f10:	d8c02017 	ldw	r3,128(sp)
    1f14:	d8801f17 	ldw	r2,124(sp)
    1f18:	da000404 	addi	r8,sp,16
    1f1c:	003fee06 	br	1ed8 <__alt_mem_Flash_flash_data+0xf4001ed8>
    1f20:	d9002f17 	ldw	r4,188(sp)
    1f24:	b80b883a 	mov	r5,r23
    1f28:	b00d883a 	mov	r6,r22
    1f2c:	0009f080 	call	9f08 <__ssprint_r>
    1f30:	103c0b1e 	bne	r2,zero,f60 <__alt_mem_Flash_flash_data+0xf4000f60>
    1f34:	d8c02017 	ldw	r3,128(sp)
    1f38:	d8802787 	ldb	r2,158(sp)
    1f3c:	da000404 	addi	r8,sp,16
    1f40:	003cb506 	br	1218 <__alt_mem_Flash_flash_data+0xf4001218>
    1f44:	657fffc4 	addi	r21,r12,-1
    1f48:	057f750e 	bge	zero,r21,1d20 <__alt_mem_Flash_flash_data+0xf4001d20>
    1f4c:	07000404 	movi	fp,16
    1f50:	e542ed0e 	bge	fp,r21,2b08 <___svfprintf_internal_r+0x1ec8>
    1f54:	010000b4 	movhi	r4,2
    1f58:	2102df84 	addi	r4,r4,2942
    1f5c:	d9002b15 	stw	r4,172(sp)
    1f60:	01c001c4 	movi	r7,7
    1f64:	dcc02f17 	ldw	r19,188(sp)
    1f68:	00000306 	br	1f78 <___svfprintf_internal_r+0x1338>
    1f6c:	ad7ffc04 	addi	r21,r21,-16
    1f70:	94800204 	addi	r18,r18,8
    1f74:	e540130e 	bge	fp,r21,1fc4 <___svfprintf_internal_r+0x1384>
    1f78:	18c00404 	addi	r3,r3,16
    1f7c:	84000044 	addi	r16,r16,1
    1f80:	95000015 	stw	r20,0(r18)
    1f84:	97000115 	stw	fp,4(r18)
    1f88:	d8c02015 	stw	r3,128(sp)
    1f8c:	dc001f15 	stw	r16,124(sp)
    1f90:	3c3ff60e 	bge	r7,r16,1f6c <__alt_mem_Flash_flash_data+0xf4001f6c>
    1f94:	9809883a 	mov	r4,r19
    1f98:	b80b883a 	mov	r5,r23
    1f9c:	b00d883a 	mov	r6,r22
    1fa0:	d9c03e15 	stw	r7,248(sp)
    1fa4:	0009f080 	call	9f08 <__ssprint_r>
    1fa8:	d9c03e17 	ldw	r7,248(sp)
    1fac:	103bec1e 	bne	r2,zero,f60 <__alt_mem_Flash_flash_data+0xf4000f60>
    1fb0:	ad7ffc04 	addi	r21,r21,-16
    1fb4:	d8c02017 	ldw	r3,128(sp)
    1fb8:	dc001f17 	ldw	r16,124(sp)
    1fbc:	dc800404 	addi	r18,sp,16
    1fc0:	e57fed16 	blt	fp,r21,1f78 <__alt_mem_Flash_flash_data+0xf4001f78>
    1fc4:	dac02b17 	ldw	r11,172(sp)
    1fc8:	1d47883a 	add	r3,r3,r21
    1fcc:	84000044 	addi	r16,r16,1
    1fd0:	92c00015 	stw	r11,0(r18)
    1fd4:	95400115 	stw	r21,4(r18)
    1fd8:	d8c02015 	stw	r3,128(sp)
    1fdc:	dc001f15 	stw	r16,124(sp)
    1fe0:	008001c4 	movi	r2,7
    1fe4:	143f4d0e 	bge	r2,r16,1d1c <__alt_mem_Flash_flash_data+0xf4001d1c>
    1fe8:	d9002f17 	ldw	r4,188(sp)
    1fec:	b80b883a 	mov	r5,r23
    1ff0:	b00d883a 	mov	r6,r22
    1ff4:	0009f080 	call	9f08 <__ssprint_r>
    1ff8:	103bd91e 	bne	r2,zero,f60 <__alt_mem_Flash_flash_data+0xf4000f60>
    1ffc:	d8c02017 	ldw	r3,128(sp)
    2000:	dc001f17 	ldw	r16,124(sp)
    2004:	dc800404 	addi	r18,sp,16
    2008:	003f4506 	br	1d20 <__alt_mem_Flash_flash_data+0xf4001d20>
    200c:	00800084 	movi	r2,2
    2010:	9f06b03a 	or	r3,r19,fp
    2014:	003d5706 	br	1574 <__alt_mem_Flash_flash_data+0xf4001574>
    2018:	1cc00017 	ldw	r19,0(r3)
    201c:	dac02d17 	ldw	r11,180(sp)
    2020:	9839d7fa 	srai	fp,r19,31
    2024:	5ac00104 	addi	r11,r11,4
    2028:	dac02d15 	stw	r11,180(sp)
    202c:	e005883a 	mov	r2,fp
    2030:	003c0306 	br	1040 <__alt_mem_Flash_flash_data+0xf4001040>
    2034:	dac02d17 	ldw	r11,180(sp)
    2038:	0039883a 	mov	fp,zero
    203c:	0005883a 	mov	r2,zero
    2040:	5cc00017 	ldw	r19,0(r11)
    2044:	5ac00104 	addi	r11,r11,4
    2048:	dac02d15 	stw	r11,180(sp)
    204c:	9807883a 	mov	r3,r19
    2050:	003d4806 	br	1574 <__alt_mem_Flash_flash_data+0xf4001574>
    2054:	db002d17 	ldw	r12,180(sp)
    2058:	14c00017 	ldw	r19,0(r2)
    205c:	0039883a 	mov	fp,zero
    2060:	63000104 	addi	r12,r12,4
    2064:	db002d15 	stw	r12,180(sp)
    2068:	00800044 	movi	r2,1
    206c:	9807883a 	mov	r3,r19
    2070:	003d4006 	br	1574 <__alt_mem_Flash_flash_data+0xf4001574>
    2074:	d9002f17 	ldw	r4,188(sp)
    2078:	b80b883a 	mov	r5,r23
    207c:	b00d883a 	mov	r6,r22
    2080:	0009f080 	call	9f08 <__ssprint_r>
    2084:	103bb61e 	bne	r2,zero,f60 <__alt_mem_Flash_flash_data+0xf4000f60>
    2088:	d8c02017 	ldw	r3,128(sp)
    208c:	da000404 	addi	r8,sp,16
    2090:	db003117 	ldw	r12,196(sp)
    2094:	dac03417 	ldw	r11,208(sp)
    2098:	d8802617 	ldw	r2,152(sp)
    209c:	62e5883a 	add	r18,r12,r11
    20a0:	db003317 	ldw	r12,204(sp)
    20a4:	13000216 	blt	r2,r12,20b0 <___svfprintf_internal_r+0x1470>
    20a8:	8900004c 	andi	r4,r17,1
    20ac:	20000c26 	beq	r4,zero,20e0 <___svfprintf_internal_r+0x14a0>
    20b0:	dac03917 	ldw	r11,228(sp)
    20b4:	d9001f17 	ldw	r4,124(sp)
    20b8:	db003517 	ldw	r12,212(sp)
    20bc:	1ac7883a 	add	r3,r3,r11
    20c0:	21000044 	addi	r4,r4,1
    20c4:	43000015 	stw	r12,0(r8)
    20c8:	42c00115 	stw	r11,4(r8)
    20cc:	d8c02015 	stw	r3,128(sp)
    20d0:	d9001f15 	stw	r4,124(sp)
    20d4:	014001c4 	movi	r5,7
    20d8:	2901b716 	blt	r5,r4,27b8 <___svfprintf_internal_r+0x1b78>
    20dc:	42000204 	addi	r8,r8,8
    20e0:	dac03317 	ldw	r11,204(sp)
    20e4:	8489c83a 	sub	r4,r16,r18
    20e8:	5885c83a 	sub	r2,r11,r2
    20ec:	1021883a 	mov	r16,r2
    20f0:	2080010e 	bge	r4,r2,20f8 <___svfprintf_internal_r+0x14b8>
    20f4:	2021883a 	mov	r16,r4
    20f8:	04000a0e 	bge	zero,r16,2124 <___svfprintf_internal_r+0x14e4>
    20fc:	d9001f17 	ldw	r4,124(sp)
    2100:	1c07883a 	add	r3,r3,r16
    2104:	44800015 	stw	r18,0(r8)
    2108:	21000044 	addi	r4,r4,1
    210c:	44000115 	stw	r16,4(r8)
    2110:	d8c02015 	stw	r3,128(sp)
    2114:	d9001f15 	stw	r4,124(sp)
    2118:	014001c4 	movi	r5,7
    211c:	2901bf16 	blt	r5,r4,281c <___svfprintf_internal_r+0x1bdc>
    2120:	42000204 	addi	r8,r8,8
    2124:	8001bb16 	blt	r16,zero,2814 <___svfprintf_internal_r+0x1bd4>
    2128:	1421c83a 	sub	r16,r2,r16
    212c:	043c990e 	bge	zero,r16,1394 <__alt_mem_Flash_flash_data+0xf4001394>
    2130:	04800404 	movi	r18,16
    2134:	d8801f17 	ldw	r2,124(sp)
    2138:	943f0b0e 	bge	r18,r16,1d68 <__alt_mem_Flash_flash_data+0xf4001d68>
    213c:	014000b4 	movhi	r5,2
    2140:	2942df84 	addi	r5,r5,2942
    2144:	d9402b15 	stw	r5,172(sp)
    2148:	054001c4 	movi	r21,7
    214c:	dcc02f17 	ldw	r19,188(sp)
    2150:	00000306 	br	2160 <___svfprintf_internal_r+0x1520>
    2154:	42000204 	addi	r8,r8,8
    2158:	843ffc04 	addi	r16,r16,-16
    215c:	943f050e 	bge	r18,r16,1d74 <__alt_mem_Flash_flash_data+0xf4001d74>
    2160:	18c00404 	addi	r3,r3,16
    2164:	10800044 	addi	r2,r2,1
    2168:	45000015 	stw	r20,0(r8)
    216c:	44800115 	stw	r18,4(r8)
    2170:	d8c02015 	stw	r3,128(sp)
    2174:	d8801f15 	stw	r2,124(sp)
    2178:	a8bff60e 	bge	r21,r2,2154 <__alt_mem_Flash_flash_data+0xf4002154>
    217c:	9809883a 	mov	r4,r19
    2180:	b80b883a 	mov	r5,r23
    2184:	b00d883a 	mov	r6,r22
    2188:	0009f080 	call	9f08 <__ssprint_r>
    218c:	103b741e 	bne	r2,zero,f60 <__alt_mem_Flash_flash_data+0xf4000f60>
    2190:	d8c02017 	ldw	r3,128(sp)
    2194:	d8801f17 	ldw	r2,124(sp)
    2198:	da000404 	addi	r8,sp,16
    219c:	003fee06 	br	2158 <__alt_mem_Flash_flash_data+0xf4002158>
    21a0:	8888703a 	and	r4,r17,r2
    21a4:	203eb31e 	bne	r4,zero,1c74 <__alt_mem_Flash_flash_data+0xf4001c74>
    21a8:	dc001f17 	ldw	r16,124(sp)
    21ac:	db003117 	ldw	r12,196(sp)
    21b0:	40800115 	stw	r2,4(r8)
    21b4:	84000044 	addi	r16,r16,1
    21b8:	43000015 	stw	r12,0(r8)
    21bc:	d8c02015 	stw	r3,128(sp)
    21c0:	dc001f15 	stw	r16,124(sp)
    21c4:	008001c4 	movi	r2,7
    21c8:	143f8716 	blt	r2,r16,1fe8 <__alt_mem_Flash_flash_data+0xf4001fe8>
    21cc:	44800204 	addi	r18,r8,8
    21d0:	003ed306 	br	1d20 <__alt_mem_Flash_flash_data+0xf4001d20>
    21d4:	d9002f17 	ldw	r4,188(sp)
    21d8:	b80b883a 	mov	r5,r23
    21dc:	b00d883a 	mov	r6,r22
    21e0:	0009f080 	call	9f08 <__ssprint_r>
    21e4:	103b5e1e 	bne	r2,zero,f60 <__alt_mem_Flash_flash_data+0xf4000f60>
    21e8:	d8c02017 	ldw	r3,128(sp)
    21ec:	dc001f17 	ldw	r16,124(sp)
    21f0:	da000404 	addi	r8,sp,16
    21f4:	003eaa06 	br	1ca0 <__alt_mem_Flash_flash_data+0xf4001ca0>
    21f8:	d9002f17 	ldw	r4,188(sp)
    21fc:	b80b883a 	mov	r5,r23
    2200:	b00d883a 	mov	r6,r22
    2204:	0009f080 	call	9f08 <__ssprint_r>
    2208:	103b551e 	bne	r2,zero,f60 <__alt_mem_Flash_flash_data+0xf4000f60>
    220c:	d8c02017 	ldw	r3,128(sp)
    2210:	dc001f17 	ldw	r16,124(sp)
    2214:	dc800404 	addi	r18,sp,16
    2218:	003eac06 	br	1ccc <__alt_mem_Flash_flash_data+0xf4001ccc>
    221c:	d9002f17 	ldw	r4,188(sp)
    2220:	b80b883a 	mov	r5,r23
    2224:	b00d883a 	mov	r6,r22
    2228:	0009f080 	call	9f08 <__ssprint_r>
    222c:	103b4c1e 	bne	r2,zero,f60 <__alt_mem_Flash_flash_data+0xf4000f60>
    2230:	d8c02017 	ldw	r3,128(sp)
    2234:	da000404 	addi	r8,sp,16
    2238:	003c1506 	br	1290 <__alt_mem_Flash_flash_data+0xf4001290>
    223c:	da004015 	stw	r8,256(sp)
    2240:	da403f15 	stw	r9,252(sp)
    2244:	0009c600 	call	9c60 <__fpclassifyd>
    2248:	da004017 	ldw	r8,256(sp)
    224c:	da403f17 	ldw	r9,252(sp)
    2250:	1000951e 	bne	r2,zero,24a8 <___svfprintf_internal_r+0x1868>
    2254:	008011c4 	movi	r2,71
    2258:	1400fb16 	blt	r2,r16,2648 <___svfprintf_internal_r+0x1a08>
    225c:	030000b4 	movhi	r12,2
    2260:	6302d104 	addi	r12,r12,2884
    2264:	db003115 	stw	r12,196(sp)
    2268:	00c000c4 	movi	r3,3
    226c:	00bfdfc4 	movi	r2,-129
    2270:	d8c02a15 	stw	r3,168(sp)
    2274:	88a2703a 	and	r17,r17,r2
    2278:	dd402783 	ldbu	r21,158(sp)
    227c:	dcc02d15 	stw	r19,180(sp)
    2280:	1825883a 	mov	r18,r3
    2284:	d8003215 	stw	zero,200(sp)
    2288:	d8003415 	stw	zero,208(sp)
    228c:	003b9806 	br	10f0 <__alt_mem_Flash_flash_data+0xf40010f0>
    2290:	1c000007 	ldb	r16,0(r3)
    2294:	1805883a 	mov	r2,r3
    2298:	003abf06 	br	d98 <__alt_mem_Flash_flash_data+0xf4000d98>
    229c:	00800084 	movi	r2,2
    22a0:	003cb406 	br	1574 <__alt_mem_Flash_flash_data+0xf4001574>
    22a4:	88c0100c 	andi	r3,r17,64
    22a8:	1800f626 	beq	r3,zero,2684 <___svfprintf_internal_r+0x1a44>
    22ac:	dac02d17 	ldw	r11,180(sp)
    22b0:	14c0000b 	ldhu	r19,0(r2)
    22b4:	0039883a 	mov	fp,zero
    22b8:	5ac00104 	addi	r11,r11,4
    22bc:	dac02d15 	stw	r11,180(sp)
    22c0:	003cbd06 	br	15b8 <__alt_mem_Flash_flash_data+0xf40015b8>
    22c4:	8880040c 	andi	r2,r17,16
    22c8:	1000091e 	bne	r2,zero,22f0 <___svfprintf_internal_r+0x16b0>
    22cc:	8c40100c 	andi	r17,r17,64
    22d0:	88000726 	beq	r17,zero,22f0 <___svfprintf_internal_r+0x16b0>
    22d4:	db002d17 	ldw	r12,180(sp)
    22d8:	dac03017 	ldw	r11,192(sp)
    22dc:	60800017 	ldw	r2,0(r12)
    22e0:	63000104 	addi	r12,r12,4
    22e4:	db002d15 	stw	r12,180(sp)
    22e8:	12c0000d 	sth	r11,0(r2)
    22ec:	003a8006 	br	cf0 <__alt_mem_Flash_flash_data+0xf4000cf0>
    22f0:	db002d17 	ldw	r12,180(sp)
    22f4:	dac03017 	ldw	r11,192(sp)
    22f8:	60800017 	ldw	r2,0(r12)
    22fc:	63000104 	addi	r12,r12,4
    2300:	db002d15 	stw	r12,180(sp)
    2304:	12c00015 	stw	r11,0(r2)
    2308:	003a7906 	br	cf0 <__alt_mem_Flash_flash_data+0xf4000cf0>
    230c:	010000b4 	movhi	r4,2
    2310:	2102df84 	addi	r4,r4,2942
    2314:	d9002b15 	stw	r4,172(sp)
    2318:	dac02b17 	ldw	r11,172(sp)
    231c:	1c87883a 	add	r3,r3,r18
    2320:	10800044 	addi	r2,r2,1
    2324:	42c00015 	stw	r11,0(r8)
    2328:	44800115 	stw	r18,4(r8)
    232c:	d8c02015 	stw	r3,128(sp)
    2330:	d8801f15 	stw	r2,124(sp)
    2334:	010001c4 	movi	r4,7
    2338:	20bf4e16 	blt	r4,r2,2074 <__alt_mem_Flash_flash_data+0xf4002074>
    233c:	42000204 	addi	r8,r8,8
    2340:	003f5306 	br	2090 <__alt_mem_Flash_flash_data+0xf4002090>
    2344:	010000b4 	movhi	r4,2
    2348:	2102df84 	addi	r4,r4,2942
    234c:	d9002b15 	stw	r4,172(sp)
    2350:	003bf906 	br	1338 <__alt_mem_Flash_flash_data+0xf4001338>
    2354:	d9002f17 	ldw	r4,188(sp)
    2358:	b80b883a 	mov	r5,r23
    235c:	b00d883a 	mov	r6,r22
    2360:	0009f080 	call	9f08 <__ssprint_r>
    2364:	103afe1e 	bne	r2,zero,f60 <__alt_mem_Flash_flash_data+0xf4000f60>
    2368:	d8c02017 	ldw	r3,128(sp)
    236c:	da000404 	addi	r8,sp,16
    2370:	003dc606 	br	1a8c <__alt_mem_Flash_flash_data+0xf4001a8c>
    2374:	d8801f17 	ldw	r2,124(sp)
    2378:	030000b4 	movhi	r12,2
    237c:	01000044 	movi	r4,1
    2380:	18c00044 	addi	r3,r3,1
    2384:	10800044 	addi	r2,r2,1
    2388:	6302df04 	addi	r12,r12,2940
    238c:	41000115 	stw	r4,4(r8)
    2390:	43000015 	stw	r12,0(r8)
    2394:	d8c02015 	stw	r3,128(sp)
    2398:	d8801f15 	stw	r2,124(sp)
    239c:	010001c4 	movi	r4,7
    23a0:	2080ad16 	blt	r4,r2,2658 <___svfprintf_internal_r+0x1a18>
    23a4:	42000204 	addi	r8,r8,8
    23a8:	8000041e 	bne	r16,zero,23bc <___svfprintf_internal_r+0x177c>
    23ac:	dac03317 	ldw	r11,204(sp)
    23b0:	5800021e 	bne	r11,zero,23bc <___svfprintf_internal_r+0x177c>
    23b4:	8880004c 	andi	r2,r17,1
    23b8:	103bf626 	beq	r2,zero,1394 <__alt_mem_Flash_flash_data+0xf4001394>
    23bc:	db003917 	ldw	r12,228(sp)
    23c0:	d8801f17 	ldw	r2,124(sp)
    23c4:	dac03517 	ldw	r11,212(sp)
    23c8:	1b07883a 	add	r3,r3,r12
    23cc:	10800044 	addi	r2,r2,1
    23d0:	42c00015 	stw	r11,0(r8)
    23d4:	43000115 	stw	r12,4(r8)
    23d8:	d8c02015 	stw	r3,128(sp)
    23dc:	d8801f15 	stw	r2,124(sp)
    23e0:	010001c4 	movi	r4,7
    23e4:	20818616 	blt	r4,r2,2a00 <___svfprintf_internal_r+0x1dc0>
    23e8:	42000204 	addi	r8,r8,8
    23ec:	0421c83a 	sub	r16,zero,r16
    23f0:	0400bc0e 	bge	zero,r16,26e4 <___svfprintf_internal_r+0x1aa4>
    23f4:	04800404 	movi	r18,16
    23f8:	9400f80e 	bge	r18,r16,27dc <___svfprintf_internal_r+0x1b9c>
    23fc:	010000b4 	movhi	r4,2
    2400:	2102df84 	addi	r4,r4,2942
    2404:	d9002b15 	stw	r4,172(sp)
    2408:	054001c4 	movi	r21,7
    240c:	dcc02f17 	ldw	r19,188(sp)
    2410:	00000306 	br	2420 <___svfprintf_internal_r+0x17e0>
    2414:	42000204 	addi	r8,r8,8
    2418:	843ffc04 	addi	r16,r16,-16
    241c:	9400f20e 	bge	r18,r16,27e8 <___svfprintf_internal_r+0x1ba8>
    2420:	18c00404 	addi	r3,r3,16
    2424:	10800044 	addi	r2,r2,1
    2428:	45000015 	stw	r20,0(r8)
    242c:	44800115 	stw	r18,4(r8)
    2430:	d8c02015 	stw	r3,128(sp)
    2434:	d8801f15 	stw	r2,124(sp)
    2438:	a8bff60e 	bge	r21,r2,2414 <__alt_mem_Flash_flash_data+0xf4002414>
    243c:	9809883a 	mov	r4,r19
    2440:	b80b883a 	mov	r5,r23
    2444:	b00d883a 	mov	r6,r22
    2448:	0009f080 	call	9f08 <__ssprint_r>
    244c:	103ac41e 	bne	r2,zero,f60 <__alt_mem_Flash_flash_data+0xf4000f60>
    2450:	d8c02017 	ldw	r3,128(sp)
    2454:	d8801f17 	ldw	r2,124(sp)
    2458:	da000404 	addi	r8,sp,16
    245c:	003fee06 	br	2418 <__alt_mem_Flash_flash_data+0xf4002418>
    2460:	db002e17 	ldw	r12,184(sp)
    2464:	1805883a 	mov	r2,r3
    2468:	dac02d15 	stw	r11,180(sp)
    246c:	0319c83a 	sub	r12,zero,r12
    2470:	db002e15 	stw	r12,184(sp)
    2474:	003acf06 	br	fb4 <__alt_mem_Flash_flash_data+0xf4000fb4>
    2478:	18800044 	addi	r2,r3,1
    247c:	8c400814 	ori	r17,r17,32
    2480:	1c000047 	ldb	r16,1(r3)
    2484:	003a4406 	br	d98 <__alt_mem_Flash_flash_data+0xf4000d98>
    2488:	d9002f17 	ldw	r4,188(sp)
    248c:	b80b883a 	mov	r5,r23
    2490:	b00d883a 	mov	r6,r22
    2494:	0009f080 	call	9f08 <__ssprint_r>
    2498:	103ab11e 	bne	r2,zero,f60 <__alt_mem_Flash_flash_data+0xf4000f60>
    249c:	d8c02017 	ldw	r3,128(sp)
    24a0:	da000404 	addi	r8,sp,16
    24a4:	003d8a06 	br	1ad0 <__alt_mem_Flash_flash_data+0xf4001ad0>
    24a8:	057ff7c4 	movi	r21,-33
    24ac:	00bfffc4 	movi	r2,-1
    24b0:	856a703a 	and	r21,r16,r21
    24b4:	48807126 	beq	r9,r2,267c <___svfprintf_internal_r+0x1a3c>
    24b8:	008011c4 	movi	r2,71
    24bc:	a8814d26 	beq	r21,r2,29f4 <___svfprintf_internal_r+0x1db4>
    24c0:	db003817 	ldw	r12,224(sp)
    24c4:	8ac04014 	ori	r11,r17,256
    24c8:	dac02d15 	stw	r11,180(sp)
    24cc:	60015616 	blt	r12,zero,2a28 <___svfprintf_internal_r+0x1de8>
    24d0:	dc803817 	ldw	r18,224(sp)
    24d4:	d8002a05 	stb	zero,168(sp)
    24d8:	00801984 	movi	r2,102
    24dc:	80808c26 	beq	r16,r2,2710 <___svfprintf_internal_r+0x1ad0>
    24e0:	00801184 	movi	r2,70
    24e4:	80808a26 	beq	r16,r2,2710 <___svfprintf_internal_r+0x1ad0>
    24e8:	00801144 	movi	r2,69
    24ec:	a8815226 	beq	r21,r2,2a38 <___svfprintf_internal_r+0x1df8>
    24f0:	4839883a 	mov	fp,r9
    24f4:	d8802604 	addi	r2,sp,152
    24f8:	d8800115 	stw	r2,4(sp)
    24fc:	d9002f17 	ldw	r4,188(sp)
    2500:	d8802504 	addi	r2,sp,148
    2504:	d9403717 	ldw	r5,220(sp)
    2508:	d8800215 	stw	r2,8(sp)
    250c:	d8802104 	addi	r2,sp,132
    2510:	df000015 	stw	fp,0(sp)
    2514:	d8800315 	stw	r2,12(sp)
    2518:	900d883a 	mov	r6,r18
    251c:	01c00084 	movi	r7,2
    2520:	da004015 	stw	r8,256(sp)
    2524:	da403f15 	stw	r9,252(sp)
    2528:	0004f540 	call	4f54 <_dtoa_r>
    252c:	d8803115 	stw	r2,196(sp)
    2530:	008019c4 	movi	r2,103
    2534:	da004017 	ldw	r8,256(sp)
    2538:	da403f17 	ldw	r9,252(sp)
    253c:	80800226 	beq	r16,r2,2548 <___svfprintf_internal_r+0x1908>
    2540:	008011c4 	movi	r2,71
    2544:	8080841e 	bne	r16,r2,2758 <___svfprintf_internal_r+0x1b18>
    2548:	8880004c 	andi	r2,r17,1
    254c:	10014f26 	beq	r2,zero,2a8c <___svfprintf_internal_r+0x1e4c>
    2550:	db003117 	ldw	r12,196(sp)
    2554:	6715883a 	add	r10,r12,fp
    2558:	d9003717 	ldw	r4,220(sp)
    255c:	900b883a 	mov	r5,r18
    2560:	000d883a 	mov	r6,zero
    2564:	000f883a 	mov	r7,zero
    2568:	da004015 	stw	r8,256(sp)
    256c:	da403f15 	stw	r9,252(sp)
    2570:	da803e15 	stw	r10,248(sp)
    2574:	000ecac0 	call	ecac <__eqdf2>
    2578:	da004017 	ldw	r8,256(sp)
    257c:	da403f17 	ldw	r9,252(sp)
    2580:	da803e17 	ldw	r10,248(sp)
    2584:	1000d926 	beq	r2,zero,28ec <___svfprintf_internal_r+0x1cac>
    2588:	d8802117 	ldw	r2,132(sp)
    258c:	1280062e 	bgeu	r2,r10,25a8 <___svfprintf_internal_r+0x1968>
    2590:	01000c04 	movi	r4,48
    2594:	10c00044 	addi	r3,r2,1
    2598:	d8c02115 	stw	r3,132(sp)
    259c:	11000005 	stb	r4,0(r2)
    25a0:	d8802117 	ldw	r2,132(sp)
    25a4:	12bffb36 	bltu	r2,r10,2594 <__alt_mem_Flash_flash_data+0xf4002594>
    25a8:	db003117 	ldw	r12,196(sp)
    25ac:	1305c83a 	sub	r2,r2,r12
    25b0:	d8803315 	stw	r2,204(sp)
    25b4:	008011c4 	movi	r2,71
    25b8:	a880b626 	beq	r21,r2,2894 <___svfprintf_internal_r+0x1c54>
    25bc:	00801944 	movi	r2,101
    25c0:	14017c0e 	bge	r2,r16,2bb4 <___svfprintf_internal_r+0x1f74>
    25c4:	00801984 	movi	r2,102
    25c8:	80812626 	beq	r16,r2,2a64 <___svfprintf_internal_r+0x1e24>
    25cc:	db002617 	ldw	r12,152(sp)
    25d0:	db003415 	stw	r12,208(sp)
    25d4:	db003417 	ldw	r12,208(sp)
    25d8:	dac03317 	ldw	r11,204(sp)
    25dc:	62c11816 	blt	r12,r11,2a40 <___svfprintf_internal_r+0x1e00>
    25e0:	8c40004c 	andi	r17,r17,1
    25e4:	88013b1e 	bne	r17,zero,2ad4 <___svfprintf_internal_r+0x1e94>
    25e8:	6005883a 	mov	r2,r12
    25ec:	60012516 	blt	r12,zero,2a84 <___svfprintf_internal_r+0x1e44>
    25f0:	dc803417 	ldw	r18,208(sp)
    25f4:	df002a07 	ldb	fp,168(sp)
    25f8:	e000b01e 	bne	fp,zero,28bc <___svfprintf_internal_r+0x1c7c>
    25fc:	dc402d17 	ldw	r17,180(sp)
    2600:	dd402783 	ldbu	r21,158(sp)
    2604:	d8802a15 	stw	r2,168(sp)
    2608:	dcc02d15 	stw	r19,180(sp)
    260c:	d8003215 	stw	zero,200(sp)
    2610:	003ab706 	br	10f0 <__alt_mem_Flash_flash_data+0xf40010f0>
    2614:	008000b4 	movhi	r2,2
    2618:	1082cf04 	addi	r2,r2,2876
    261c:	d8803115 	stw	r2,196(sp)
    2620:	003bbb06 	br	1510 <__alt_mem_Flash_flash_data+0xf4001510>
    2624:	d9002f17 	ldw	r4,188(sp)
    2628:	04001004 	movi	r16,64
    262c:	800b883a 	mov	r5,r16
    2630:	00079a40 	call	79a4 <_malloc_r>
    2634:	b8800015 	stw	r2,0(r23)
    2638:	b8800415 	stw	r2,16(r23)
    263c:	10015f26 	beq	r2,zero,2bbc <___svfprintf_internal_r+0x1f7c>
    2640:	bc000515 	stw	r16,20(r23)
    2644:	00399806 	br	ca8 <__alt_mem_Flash_flash_data+0xf4000ca8>
    2648:	008000b4 	movhi	r2,2
    264c:	1082d204 	addi	r2,r2,2888
    2650:	d8803115 	stw	r2,196(sp)
    2654:	003f0406 	br	2268 <__alt_mem_Flash_flash_data+0xf4002268>
    2658:	d9002f17 	ldw	r4,188(sp)
    265c:	b80b883a 	mov	r5,r23
    2660:	b00d883a 	mov	r6,r22
    2664:	0009f080 	call	9f08 <__ssprint_r>
    2668:	103a3d1e 	bne	r2,zero,f60 <__alt_mem_Flash_flash_data+0xf4000f60>
    266c:	dc002617 	ldw	r16,152(sp)
    2670:	d8c02017 	ldw	r3,128(sp)
    2674:	da000404 	addi	r8,sp,16
    2678:	003f4b06 	br	23a8 <__alt_mem_Flash_flash_data+0xf40023a8>
    267c:	02400184 	movi	r9,6
    2680:	003f8f06 	br	24c0 <__alt_mem_Flash_flash_data+0xf40024c0>
    2684:	db002d17 	ldw	r12,180(sp)
    2688:	14c00017 	ldw	r19,0(r2)
    268c:	0039883a 	mov	fp,zero
    2690:	63000104 	addi	r12,r12,4
    2694:	db002d15 	stw	r12,180(sp)
    2698:	003bc706 	br	15b8 <__alt_mem_Flash_flash_data+0xf40015b8>
    269c:	d8c03117 	ldw	r3,196(sp)
    26a0:	b0e5c83a 	sub	r18,r22,r3
    26a4:	003a8d06 	br	10dc <__alt_mem_Flash_flash_data+0xf40010dc>
    26a8:	da004015 	stw	r8,256(sp)
    26ac:	0000ba80 	call	ba8 <strlen>
    26b0:	1025883a 	mov	r18,r2
    26b4:	da004017 	ldw	r8,256(sp)
    26b8:	903bf20e 	bge	r18,zero,1684 <__alt_mem_Flash_flash_data+0xf4001684>
    26bc:	0005883a 	mov	r2,zero
    26c0:	003bf006 	br	1684 <__alt_mem_Flash_flash_data+0xf4001684>
    26c4:	d9002f17 	ldw	r4,188(sp)
    26c8:	b80b883a 	mov	r5,r23
    26cc:	b00d883a 	mov	r6,r22
    26d0:	0009f080 	call	9f08 <__ssprint_r>
    26d4:	103a221e 	bne	r2,zero,f60 <__alt_mem_Flash_flash_data+0xf4000f60>
    26d8:	d8c02017 	ldw	r3,128(sp)
    26dc:	d8801f17 	ldw	r2,124(sp)
    26e0:	da000404 	addi	r8,sp,16
    26e4:	db003317 	ldw	r12,204(sp)
    26e8:	dac03117 	ldw	r11,196(sp)
    26ec:	10800044 	addi	r2,r2,1
    26f0:	1b07883a 	add	r3,r3,r12
    26f4:	42c00015 	stw	r11,0(r8)
    26f8:	43000115 	stw	r12,4(r8)
    26fc:	d8c02015 	stw	r3,128(sp)
    2700:	d8801f15 	stw	r2,124(sp)
    2704:	010001c4 	movi	r4,7
    2708:	20bb210e 	bge	r4,r2,1390 <__alt_mem_Flash_flash_data+0xf4001390>
    270c:	003da206 	br	1d98 <__alt_mem_Flash_flash_data+0xf4001d98>
    2710:	d8802604 	addi	r2,sp,152
    2714:	d8800115 	stw	r2,4(sp)
    2718:	d9002f17 	ldw	r4,188(sp)
    271c:	d8802504 	addi	r2,sp,148
    2720:	d9403717 	ldw	r5,220(sp)
    2724:	d8800215 	stw	r2,8(sp)
    2728:	d8802104 	addi	r2,sp,132
    272c:	da400015 	stw	r9,0(sp)
    2730:	d8800315 	stw	r2,12(sp)
    2734:	900d883a 	mov	r6,r18
    2738:	01c000c4 	movi	r7,3
    273c:	da004015 	stw	r8,256(sp)
    2740:	da403f15 	stw	r9,252(sp)
    2744:	0004f540 	call	4f54 <_dtoa_r>
    2748:	da403f17 	ldw	r9,252(sp)
    274c:	da004017 	ldw	r8,256(sp)
    2750:	d8803115 	stw	r2,196(sp)
    2754:	4839883a 	mov	fp,r9
    2758:	dac03117 	ldw	r11,196(sp)
    275c:	00801184 	movi	r2,70
    2760:	5f15883a 	add	r10,r11,fp
    2764:	a8bf7c1e 	bne	r21,r2,2558 <__alt_mem_Flash_flash_data+0xf4002558>
    2768:	59000007 	ldb	r4,0(r11)
    276c:	00800c04 	movi	r2,48
    2770:	2080c826 	beq	r4,r2,2a94 <___svfprintf_internal_r+0x1e54>
    2774:	d8c02617 	ldw	r3,152(sp)
    2778:	50d5883a 	add	r10,r10,r3
    277c:	003f7606 	br	2558 <__alt_mem_Flash_flash_data+0xf4002558>
    2780:	010000b4 	movhi	r4,2
    2784:	2102e384 	addi	r4,r4,2958
    2788:	d9003615 	stw	r4,216(sp)
    278c:	003a9706 	br	11ec <__alt_mem_Flash_flash_data+0xf40011ec>
    2790:	0025883a 	mov	r18,zero
    2794:	003dc306 	br	1ea4 <__alt_mem_Flash_flash_data+0xf4001ea4>
    2798:	d9002f17 	ldw	r4,188(sp)
    279c:	b80b883a 	mov	r5,r23
    27a0:	b00d883a 	mov	r6,r22
    27a4:	0009f080 	call	9f08 <__ssprint_r>
    27a8:	1039ed1e 	bne	r2,zero,f60 <__alt_mem_Flash_flash_data+0xf4000f60>
    27ac:	d8c02017 	ldw	r3,128(sp)
    27b0:	da000404 	addi	r8,sp,16
    27b4:	003dba06 	br	1ea0 <__alt_mem_Flash_flash_data+0xf4001ea0>
    27b8:	d9002f17 	ldw	r4,188(sp)
    27bc:	b80b883a 	mov	r5,r23
    27c0:	b00d883a 	mov	r6,r22
    27c4:	0009f080 	call	9f08 <__ssprint_r>
    27c8:	1039e51e 	bne	r2,zero,f60 <__alt_mem_Flash_flash_data+0xf4000f60>
    27cc:	d8802617 	ldw	r2,152(sp)
    27d0:	d8c02017 	ldw	r3,128(sp)
    27d4:	da000404 	addi	r8,sp,16
    27d8:	003e4106 	br	20e0 <__alt_mem_Flash_flash_data+0xf40020e0>
    27dc:	030000b4 	movhi	r12,2
    27e0:	6302df84 	addi	r12,r12,2942
    27e4:	db002b15 	stw	r12,172(sp)
    27e8:	dac02b17 	ldw	r11,172(sp)
    27ec:	1c07883a 	add	r3,r3,r16
    27f0:	10800044 	addi	r2,r2,1
    27f4:	42c00015 	stw	r11,0(r8)
    27f8:	44000115 	stw	r16,4(r8)
    27fc:	d8c02015 	stw	r3,128(sp)
    2800:	d8801f15 	stw	r2,124(sp)
    2804:	010001c4 	movi	r4,7
    2808:	20bfae16 	blt	r4,r2,26c4 <__alt_mem_Flash_flash_data+0xf40026c4>
    280c:	42000204 	addi	r8,r8,8
    2810:	003fb406 	br	26e4 <__alt_mem_Flash_flash_data+0xf40026e4>
    2814:	0021883a 	mov	r16,zero
    2818:	003e4306 	br	2128 <__alt_mem_Flash_flash_data+0xf4002128>
    281c:	d9002f17 	ldw	r4,188(sp)
    2820:	b80b883a 	mov	r5,r23
    2824:	b00d883a 	mov	r6,r22
    2828:	0009f080 	call	9f08 <__ssprint_r>
    282c:	1039cc1e 	bne	r2,zero,f60 <__alt_mem_Flash_flash_data+0xf4000f60>
    2830:	d8802617 	ldw	r2,152(sp)
    2834:	db003317 	ldw	r12,204(sp)
    2838:	d8c02017 	ldw	r3,128(sp)
    283c:	da000404 	addi	r8,sp,16
    2840:	6085c83a 	sub	r2,r12,r2
    2844:	003e3706 	br	2124 <__alt_mem_Flash_flash_data+0xf4002124>
    2848:	00800184 	movi	r2,6
    284c:	1240012e 	bgeu	r2,r9,2854 <___svfprintf_internal_r+0x1c14>
    2850:	1013883a 	mov	r9,r2
    2854:	4825883a 	mov	r18,r9
    2858:	4805883a 	mov	r2,r9
    285c:	4800a216 	blt	r9,zero,2ae8 <___svfprintf_internal_r+0x1ea8>
    2860:	d8802a15 	stw	r2,168(sp)
    2864:	008000b4 	movhi	r2,2
    2868:	1082dd04 	addi	r2,r2,2932
    286c:	d8803115 	stw	r2,196(sp)
    2870:	dcc02d15 	stw	r19,180(sp)
    2874:	d8003215 	stw	zero,200(sp)
    2878:	d8003415 	stw	zero,208(sp)
    287c:	0005883a 	mov	r2,zero
    2880:	003a2206 	br	110c <__alt_mem_Flash_flash_data+0xf400110c>
    2884:	030000b4 	movhi	r12,2
    2888:	6302e384 	addi	r12,r12,2958
    288c:	db003615 	stw	r12,216(sp)
    2890:	003ae506 	br	1428 <__alt_mem_Flash_flash_data+0xf4001428>
    2894:	d8c02617 	ldw	r3,152(sp)
    2898:	00bfff44 	movi	r2,-3
    289c:	18801516 	blt	r3,r2,28f4 <___svfprintf_internal_r+0x1cb4>
    28a0:	48c01416 	blt	r9,r3,28f4 <___svfprintf_internal_r+0x1cb4>
    28a4:	d8c03415 	stw	r3,208(sp)
    28a8:	040019c4 	movi	r16,103
    28ac:	003f4906 	br	25d4 <__alt_mem_Flash_flash_data+0xf40025d4>
    28b0:	05400b44 	movi	r21,45
    28b4:	dd402785 	stb	r21,158(sp)
    28b8:	003b1006 	br	14fc <__alt_mem_Flash_flash_data+0xf40014fc>
    28bc:	00c00b44 	movi	r3,45
    28c0:	d8802a15 	stw	r2,168(sp)
    28c4:	dc402d17 	ldw	r17,180(sp)
    28c8:	d8c02785 	stb	r3,158(sp)
    28cc:	dcc02d15 	stw	r19,180(sp)
    28d0:	d8003215 	stw	zero,200(sp)
    28d4:	00800b44 	movi	r2,45
    28d8:	003a0906 	br	1100 <__alt_mem_Flash_flash_data+0xf4001100>
    28dc:	010000b4 	movhi	r4,2
    28e0:	2102df84 	addi	r4,r4,2942
    28e4:	d9002b15 	stw	r4,172(sp)
    28e8:	003cc306 	br	1bf8 <__alt_mem_Flash_flash_data+0xf4001bf8>
    28ec:	5005883a 	mov	r2,r10
    28f0:	003f2d06 	br	25a8 <__alt_mem_Flash_flash_data+0xf40025a8>
    28f4:	843fff84 	addi	r16,r16,-2
    28f8:	1f3fffc4 	addi	fp,r3,-1
    28fc:	df002615 	stw	fp,152(sp)
    2900:	dc0022c5 	stb	r16,139(sp)
    2904:	e000a016 	blt	fp,zero,2b88 <___svfprintf_internal_r+0x1f48>
    2908:	00800ac4 	movi	r2,43
    290c:	d8802305 	stb	r2,140(sp)
    2910:	00800244 	movi	r2,9
    2914:	1700800e 	bge	r2,fp,2b18 <___svfprintf_internal_r+0x1ed8>
    2918:	dd4022c4 	addi	r21,sp,139
    291c:	dc002b15 	stw	r16,172(sp)
    2920:	4025883a 	mov	r18,r8
    2924:	a821883a 	mov	r16,r21
    2928:	e009883a 	mov	r4,fp
    292c:	01400284 	movi	r5,10
    2930:	000dad80 	call	dad8 <__modsi3>
    2934:	10800c04 	addi	r2,r2,48
    2938:	843fffc4 	addi	r16,r16,-1
    293c:	e009883a 	mov	r4,fp
    2940:	01400284 	movi	r5,10
    2944:	80800005 	stb	r2,0(r16)
    2948:	000da840 	call	da84 <__divsi3>
    294c:	1039883a 	mov	fp,r2
    2950:	00800244 	movi	r2,9
    2954:	173ff416 	blt	r2,fp,2928 <__alt_mem_Flash_flash_data+0xf4002928>
    2958:	9011883a 	mov	r8,r18
    295c:	e0800c04 	addi	r2,fp,48
    2960:	8025883a 	mov	r18,r16
    2964:	913fffc4 	addi	r4,r18,-1
    2968:	90bfffc5 	stb	r2,-1(r18)
    296c:	dc002b17 	ldw	r16,172(sp)
    2970:	25408e2e 	bgeu	r4,r21,2bac <___svfprintf_internal_r+0x1f6c>
    2974:	d9402384 	addi	r5,sp,142
    2978:	2c8bc83a 	sub	r5,r5,r18
    297c:	d8c02344 	addi	r3,sp,141
    2980:	a94b883a 	add	r5,r21,r5
    2984:	00000106 	br	298c <___svfprintf_internal_r+0x1d4c>
    2988:	20800003 	ldbu	r2,0(r4)
    298c:	18800005 	stb	r2,0(r3)
    2990:	18c00044 	addi	r3,r3,1
    2994:	21000044 	addi	r4,r4,1
    2998:	197ffb1e 	bne	r3,r5,2988 <__alt_mem_Flash_flash_data+0xf4002988>
    299c:	d8802304 	addi	r2,sp,140
    29a0:	1485c83a 	sub	r2,r2,r18
    29a4:	d8c02344 	addi	r3,sp,141
    29a8:	1885883a 	add	r2,r3,r2
    29ac:	dac03317 	ldw	r11,204(sp)
    29b0:	156bc83a 	sub	r21,r2,r21
    29b4:	dd403a15 	stw	r21,232(sp)
    29b8:	00800044 	movi	r2,1
    29bc:	5d65883a 	add	r18,r11,r21
    29c0:	12c0770e 	bge	r2,r11,2ba0 <___svfprintf_internal_r+0x1f60>
    29c4:	94800044 	addi	r18,r18,1
    29c8:	9005883a 	mov	r2,r18
    29cc:	90007216 	blt	r18,zero,2b98 <___svfprintf_internal_r+0x1f58>
    29d0:	d8003415 	stw	zero,208(sp)
    29d4:	003f0706 	br	25f4 <__alt_mem_Flash_flash_data+0xf40025f4>
    29d8:	da402a15 	stw	r9,168(sp)
    29dc:	dd402783 	ldbu	r21,158(sp)
    29e0:	4825883a 	mov	r18,r9
    29e4:	dcc02d15 	stw	r19,180(sp)
    29e8:	d8003215 	stw	zero,200(sp)
    29ec:	d8003415 	stw	zero,208(sp)
    29f0:	0039bf06 	br	10f0 <__alt_mem_Flash_flash_data+0xf40010f0>
    29f4:	483eb21e 	bne	r9,zero,24c0 <__alt_mem_Flash_flash_data+0xf40024c0>
    29f8:	9013883a 	mov	r9,r18
    29fc:	003eb006 	br	24c0 <__alt_mem_Flash_flash_data+0xf40024c0>
    2a00:	d9002f17 	ldw	r4,188(sp)
    2a04:	b80b883a 	mov	r5,r23
    2a08:	b00d883a 	mov	r6,r22
    2a0c:	0009f080 	call	9f08 <__ssprint_r>
    2a10:	1039531e 	bne	r2,zero,f60 <__alt_mem_Flash_flash_data+0xf4000f60>
    2a14:	dc002617 	ldw	r16,152(sp)
    2a18:	d8c02017 	ldw	r3,128(sp)
    2a1c:	d8801f17 	ldw	r2,124(sp)
    2a20:	da000404 	addi	r8,sp,16
    2a24:	003e7106 	br	23ec <__alt_mem_Flash_flash_data+0xf40023ec>
    2a28:	00c00b44 	movi	r3,45
    2a2c:	64a0003c 	xorhi	r18,r12,32768
    2a30:	d8c02a05 	stb	r3,168(sp)
    2a34:	003ea806 	br	24d8 <__alt_mem_Flash_flash_data+0xf40024d8>
    2a38:	4f000044 	addi	fp,r9,1
    2a3c:	003ead06 	br	24f4 <__alt_mem_Flash_flash_data+0xf40024f4>
    2a40:	d8c03417 	ldw	r3,208(sp)
    2a44:	00c0410e 	bge	zero,r3,2b4c <___svfprintf_internal_r+0x1f0c>
    2a48:	04800044 	movi	r18,1
    2a4c:	dac03317 	ldw	r11,204(sp)
    2a50:	92e5883a 	add	r18,r18,r11
    2a54:	9005883a 	mov	r2,r18
    2a58:	903ee60e 	bge	r18,zero,25f4 <__alt_mem_Flash_flash_data+0xf40025f4>
    2a5c:	0005883a 	mov	r2,zero
    2a60:	003ee406 	br	25f4 <__alt_mem_Flash_flash_data+0xf40025f4>
    2a64:	d8c02617 	ldw	r3,152(sp)
    2a68:	d8c03415 	stw	r3,208(sp)
    2a6c:	00c0310e 	bge	zero,r3,2b34 <___svfprintf_internal_r+0x1ef4>
    2a70:	48001f1e 	bne	r9,zero,2af0 <___svfprintf_internal_r+0x1eb0>
    2a74:	8c40004c 	andi	r17,r17,1
    2a78:	88001d1e 	bne	r17,zero,2af0 <___svfprintf_internal_r+0x1eb0>
    2a7c:	1805883a 	mov	r2,r3
    2a80:	183edb0e 	bge	r3,zero,25f0 <__alt_mem_Flash_flash_data+0xf40025f0>
    2a84:	0005883a 	mov	r2,zero
    2a88:	003ed906 	br	25f0 <__alt_mem_Flash_flash_data+0xf40025f0>
    2a8c:	d8802117 	ldw	r2,132(sp)
    2a90:	003ec506 	br	25a8 <__alt_mem_Flash_flash_data+0xf40025a8>
    2a94:	d9003717 	ldw	r4,220(sp)
    2a98:	900b883a 	mov	r5,r18
    2a9c:	000d883a 	mov	r6,zero
    2aa0:	000f883a 	mov	r7,zero
    2aa4:	da004015 	stw	r8,256(sp)
    2aa8:	da403f15 	stw	r9,252(sp)
    2aac:	da803e15 	stw	r10,248(sp)
    2ab0:	000ecac0 	call	ecac <__eqdf2>
    2ab4:	da004017 	ldw	r8,256(sp)
    2ab8:	da403f17 	ldw	r9,252(sp)
    2abc:	da803e17 	ldw	r10,248(sp)
    2ac0:	103f2c26 	beq	r2,zero,2774 <__alt_mem_Flash_flash_data+0xf4002774>
    2ac4:	00800044 	movi	r2,1
    2ac8:	1707c83a 	sub	r3,r2,fp
    2acc:	d8c02615 	stw	r3,152(sp)
    2ad0:	003f2906 	br	2778 <__alt_mem_Flash_flash_data+0xf4002778>
    2ad4:	db003417 	ldw	r12,208(sp)
    2ad8:	64800044 	addi	r18,r12,1
    2adc:	9005883a 	mov	r2,r18
    2ae0:	903ec40e 	bge	r18,zero,25f4 <__alt_mem_Flash_flash_data+0xf40025f4>
    2ae4:	003fdd06 	br	2a5c <__alt_mem_Flash_flash_data+0xf4002a5c>
    2ae8:	0005883a 	mov	r2,zero
    2aec:	003f5c06 	br	2860 <__alt_mem_Flash_flash_data+0xf4002860>
    2af0:	dac03417 	ldw	r11,208(sp)
    2af4:	4a400044 	addi	r9,r9,1
    2af8:	5a65883a 	add	r18,r11,r9
    2afc:	9005883a 	mov	r2,r18
    2b00:	903ebc0e 	bge	r18,zero,25f4 <__alt_mem_Flash_flash_data+0xf40025f4>
    2b04:	003fd506 	br	2a5c <__alt_mem_Flash_flash_data+0xf4002a5c>
    2b08:	008000b4 	movhi	r2,2
    2b0c:	1082df84 	addi	r2,r2,2942
    2b10:	d8802b15 	stw	r2,172(sp)
    2b14:	003d2b06 	br	1fc4 <__alt_mem_Flash_flash_data+0xf4001fc4>
    2b18:	00800c04 	movi	r2,48
    2b1c:	e0c00c04 	addi	r3,fp,48
    2b20:	d8802345 	stb	r2,141(sp)
    2b24:	d8c02385 	stb	r3,142(sp)
    2b28:	d88023c4 	addi	r2,sp,143
    2b2c:	dd4022c4 	addi	r21,sp,139
    2b30:	003f9e06 	br	29ac <__alt_mem_Flash_flash_data+0xf40029ac>
    2b34:	4800081e 	bne	r9,zero,2b58 <___svfprintf_internal_r+0x1f18>
    2b38:	8c40004c 	andi	r17,r17,1
    2b3c:	8800061e 	bne	r17,zero,2b58 <___svfprintf_internal_r+0x1f18>
    2b40:	00800044 	movi	r2,1
    2b44:	1025883a 	mov	r18,r2
    2b48:	003eaa06 	br	25f4 <__alt_mem_Flash_flash_data+0xf40025f4>
    2b4c:	04800084 	movi	r18,2
    2b50:	90e5c83a 	sub	r18,r18,r3
    2b54:	003fbd06 	br	2a4c <__alt_mem_Flash_flash_data+0xf4002a4c>
    2b58:	4c800084 	addi	r18,r9,2
    2b5c:	9005883a 	mov	r2,r18
    2b60:	903ea40e 	bge	r18,zero,25f4 <__alt_mem_Flash_flash_data+0xf40025f4>
    2b64:	003fbd06 	br	2a5c <__alt_mem_Flash_flash_data+0xf4002a5c>
    2b68:	dac02d17 	ldw	r11,180(sp)
    2b6c:	5a400017 	ldw	r9,0(r11)
    2b70:	5ac00104 	addi	r11,r11,4
    2b74:	dac02d15 	stw	r11,180(sp)
    2b78:	483e410e 	bge	r9,zero,2480 <__alt_mem_Flash_flash_data+0xf4002480>
    2b7c:	027fffc4 	movi	r9,-1
    2b80:	1c000047 	ldb	r16,1(r3)
    2b84:	00388406 	br	d98 <__alt_mem_Flash_flash_data+0xf4000d98>
    2b88:	00800b44 	movi	r2,45
    2b8c:	0739c83a 	sub	fp,zero,fp
    2b90:	d8802305 	stb	r2,140(sp)
    2b94:	003f5e06 	br	2910 <__alt_mem_Flash_flash_data+0xf4002910>
    2b98:	0005883a 	mov	r2,zero
    2b9c:	003f8c06 	br	29d0 <__alt_mem_Flash_flash_data+0xf40029d0>
    2ba0:	88a2703a 	and	r17,r17,r2
    2ba4:	883f8826 	beq	r17,zero,29c8 <__alt_mem_Flash_flash_data+0xf40029c8>
    2ba8:	003f8606 	br	29c4 <__alt_mem_Flash_flash_data+0xf40029c4>
    2bac:	d8802344 	addi	r2,sp,141
    2bb0:	003f7e06 	br	29ac <__alt_mem_Flash_flash_data+0xf40029ac>
    2bb4:	d8c02617 	ldw	r3,152(sp)
    2bb8:	003f4f06 	br	28f8 <__alt_mem_Flash_flash_data+0xf40028f8>
    2bbc:	dac02f17 	ldw	r11,188(sp)
    2bc0:	00800304 	movi	r2,12
    2bc4:	58800015 	stw	r2,0(r11)
    2bc8:	00bfffc4 	movi	r2,-1
    2bcc:	0038e806 	br	f70 <__alt_mem_Flash_flash_data+0xf4000f70>

00002bd0 <___vfprintf_internal_r>:
    2bd0:	deffb604 	addi	sp,sp,-296
    2bd4:	dfc04915 	stw	ra,292(sp)
    2bd8:	ddc04715 	stw	r23,284(sp)
    2bdc:	dd804615 	stw	r22,280(sp)
    2be0:	282f883a 	mov	r23,r5
    2be4:	202d883a 	mov	r22,r4
    2be8:	d9802a15 	stw	r6,168(sp)
    2bec:	d9c02d15 	stw	r7,180(sp)
    2bf0:	df004815 	stw	fp,288(sp)
    2bf4:	dd404515 	stw	r21,276(sp)
    2bf8:	dd004415 	stw	r20,272(sp)
    2bfc:	dcc04315 	stw	r19,268(sp)
    2c00:	dc804215 	stw	r18,264(sp)
    2c04:	dc404115 	stw	r17,260(sp)
    2c08:	dc004015 	stw	r16,256(sp)
    2c0c:	00077b80 	call	77b8 <_localeconv_r>
    2c10:	10800017 	ldw	r2,0(r2)
    2c14:	1009883a 	mov	r4,r2
    2c18:	d8803515 	stw	r2,212(sp)
    2c1c:	0000ba80 	call	ba8 <strlen>
    2c20:	d8803815 	stw	r2,224(sp)
    2c24:	b0000226 	beq	r22,zero,2c30 <___vfprintf_internal_r+0x60>
    2c28:	b0800e17 	ldw	r2,56(r22)
    2c2c:	1000e126 	beq	r2,zero,2fb4 <___vfprintf_internal_r+0x3e4>
    2c30:	b880030b 	ldhu	r2,12(r23)
    2c34:	10c8000c 	andi	r3,r2,8192
    2c38:	1800061e 	bne	r3,zero,2c54 <___vfprintf_internal_r+0x84>
    2c3c:	b9001917 	ldw	r4,100(r23)
    2c40:	00f7ffc4 	movi	r3,-8193
    2c44:	10880014 	ori	r2,r2,8192
    2c48:	20c6703a 	and	r3,r4,r3
    2c4c:	b880030d 	sth	r2,12(r23)
    2c50:	b8c01915 	stw	r3,100(r23)
    2c54:	10c0020c 	andi	r3,r2,8
    2c58:	1800a726 	beq	r3,zero,2ef8 <___vfprintf_internal_r+0x328>
    2c5c:	b8c00417 	ldw	r3,16(r23)
    2c60:	1800a526 	beq	r3,zero,2ef8 <___vfprintf_internal_r+0x328>
    2c64:	1080068c 	andi	r2,r2,26
    2c68:	00c00284 	movi	r3,10
    2c6c:	10c0aa26 	beq	r2,r3,2f18 <___vfprintf_internal_r+0x348>
    2c70:	dac01e04 	addi	r11,sp,120
    2c74:	db001dc4 	addi	r12,sp,119
    2c78:	d8800404 	addi	r2,sp,16
    2c7c:	050000b4 	movhi	r20,2
    2c80:	dac02815 	stw	r11,160(sp)
    2c84:	5b17c83a 	sub	r11,r11,r12
    2c88:	a502e784 	addi	r20,r20,2974
    2c8c:	db002915 	stw	r12,164(sp)
    2c90:	d8801e15 	stw	r2,120(sp)
    2c94:	d8002015 	stw	zero,128(sp)
    2c98:	d8001f15 	stw	zero,124(sp)
    2c9c:	d8003315 	stw	zero,204(sp)
    2ca0:	d8003715 	stw	zero,220(sp)
    2ca4:	d8003915 	stw	zero,228(sp)
    2ca8:	1011883a 	mov	r8,r2
    2cac:	d8003b15 	stw	zero,236(sp)
    2cb0:	d8003a15 	stw	zero,232(sp)
    2cb4:	d8002f15 	stw	zero,188(sp)
    2cb8:	dac03c15 	stw	r11,240(sp)
    2cbc:	db002a17 	ldw	r12,168(sp)
    2cc0:	60800007 	ldb	r2,0(r12)
    2cc4:	1000be26 	beq	r2,zero,2fc0 <___vfprintf_internal_r+0x3f0>
    2cc8:	00c00944 	movi	r3,37
    2ccc:	10c0bc26 	beq	r2,r3,2fc0 <___vfprintf_internal_r+0x3f0>
    2cd0:	6021883a 	mov	r16,r12
    2cd4:	00000106 	br	2cdc <___vfprintf_internal_r+0x10c>
    2cd8:	10c08426 	beq	r2,r3,2eec <___vfprintf_internal_r+0x31c>
    2cdc:	84000044 	addi	r16,r16,1
    2ce0:	80800007 	ldb	r2,0(r16)
    2ce4:	103ffc1e 	bne	r2,zero,2cd8 <__alt_mem_Flash_flash_data+0xf4002cd8>
    2ce8:	dac02a17 	ldw	r11,168(sp)
    2cec:	82e3c83a 	sub	r17,r16,r11
    2cf0:	88000f26 	beq	r17,zero,2d30 <___vfprintf_internal_r+0x160>
    2cf4:	d8c02017 	ldw	r3,128(sp)
    2cf8:	d8801f17 	ldw	r2,124(sp)
    2cfc:	dac02a17 	ldw	r11,168(sp)
    2d00:	1c47883a 	add	r3,r3,r17
    2d04:	10800044 	addi	r2,r2,1
    2d08:	d8c02015 	stw	r3,128(sp)
    2d0c:	42c00015 	stw	r11,0(r8)
    2d10:	44400115 	stw	r17,4(r8)
    2d14:	d8801f15 	stw	r2,124(sp)
    2d18:	00c001c4 	movi	r3,7
    2d1c:	18809316 	blt	r3,r2,2f6c <___vfprintf_internal_r+0x39c>
    2d20:	42000204 	addi	r8,r8,8
    2d24:	db002f17 	ldw	r12,188(sp)
    2d28:	6459883a 	add	r12,r12,r17
    2d2c:	db002f15 	stw	r12,188(sp)
    2d30:	80800007 	ldb	r2,0(r16)
    2d34:	10009426 	beq	r2,zero,2f88 <___vfprintf_internal_r+0x3b8>
    2d38:	80800044 	addi	r2,r16,1
    2d3c:	84000047 	ldb	r16,1(r16)
    2d40:	d8002785 	stb	zero,158(sp)
    2d44:	000d883a 	mov	r6,zero
    2d48:	027fffc4 	movi	r9,-1
    2d4c:	d8002e15 	stw	zero,184(sp)
    2d50:	0023883a 	mov	r17,zero
    2d54:	01001604 	movi	r4,88
    2d58:	01400244 	movi	r5,9
    2d5c:	02800a84 	movi	r10,42
    2d60:	01c01b04 	movi	r7,108
    2d64:	10c00044 	addi	r3,r2,1
    2d68:	80bff804 	addi	r2,r16,-32
    2d6c:	2082cd36 	bltu	r4,r2,38a4 <___vfprintf_internal_r+0xcd4>
    2d70:	100490ba 	slli	r2,r2,2
    2d74:	02c00034 	movhi	r11,0
    2d78:	5acb6204 	addi	r11,r11,11656
    2d7c:	12c5883a 	add	r2,r2,r11
    2d80:	10800017 	ldw	r2,0(r2)
    2d84:	1000683a 	jmp	r2
    2d88:	000036bc 	xorhi	zero,zero,218
    2d8c:	000038a4 	muli	zero,zero,226
    2d90:	000038a4 	muli	zero,zero,226
    2d94:	0000380c 	andi	zero,zero,224
    2d98:	000038a4 	muli	zero,zero,226
    2d9c:	000038a4 	muli	zero,zero,226
    2da0:	000038a4 	muli	zero,zero,226
    2da4:	000038a4 	muli	zero,zero,226
    2da8:	000038a4 	muli	zero,zero,226
    2dac:	000038a4 	muli	zero,zero,226
    2db0:	000036dc 	xori	zero,zero,219
    2db4:	00003708 	cmpgei	zero,zero,220
    2db8:	000038a4 	muli	zero,zero,226
    2dbc:	00002fc8 	cmpgei	zero,zero,191
    2dc0:	00002fd8 	cmpnei	zero,zero,191
    2dc4:	000038a4 	muli	zero,zero,226
    2dc8:	00003018 	cmpnei	zero,zero,192
    2dcc:	00003028 	cmpgeui	zero,zero,192
    2dd0:	00003028 	cmpgeui	zero,zero,192
    2dd4:	00003028 	cmpgeui	zero,zero,192
    2dd8:	00003028 	cmpgeui	zero,zero,192
    2ddc:	00003028 	cmpgeui	zero,zero,192
    2de0:	00003028 	cmpgeui	zero,zero,192
    2de4:	00003028 	cmpgeui	zero,zero,192
    2de8:	00003028 	cmpgeui	zero,zero,192
    2dec:	00003028 	cmpgeui	zero,zero,192
    2df0:	000038a4 	muli	zero,zero,226
    2df4:	000038a4 	muli	zero,zero,226
    2df8:	000038a4 	muli	zero,zero,226
    2dfc:	000038a4 	muli	zero,zero,226
    2e00:	000038a4 	muli	zero,zero,226
    2e04:	000038a4 	muli	zero,zero,226
    2e08:	000038a4 	muli	zero,zero,226
    2e0c:	000038a4 	muli	zero,zero,226
    2e10:	000038a4 	muli	zero,zero,226
    2e14:	000038a4 	muli	zero,zero,226
    2e18:	0000305c 	xori	zero,zero,193
    2e1c:	000034cc 	andi	zero,zero,211
    2e20:	000038a4 	muli	zero,zero,226
    2e24:	000034cc 	andi	zero,zero,211
    2e28:	000038a4 	muli	zero,zero,226
    2e2c:	000038a4 	muli	zero,zero,226
    2e30:	000038a4 	muli	zero,zero,226
    2e34:	000038a4 	muli	zero,zero,226
    2e38:	000035b8 	rdprs	zero,zero,214
    2e3c:	000038a4 	muli	zero,zero,226
    2e40:	000038a4 	muli	zero,zero,226
    2e44:	00003460 	cmpeqi	zero,zero,209
    2e48:	000038a4 	muli	zero,zero,226
    2e4c:	000038a4 	muli	zero,zero,226
    2e50:	000038a4 	muli	zero,zero,226
    2e54:	000038a4 	muli	zero,zero,226
    2e58:	000038a4 	muli	zero,zero,226
    2e5c:	0000349c 	xori	zero,zero,210
    2e60:	000038a4 	muli	zero,zero,226
    2e64:	000038a4 	muli	zero,zero,226
    2e68:	00003660 	cmpeqi	zero,zero,217
    2e6c:	000038a4 	muli	zero,zero,226
    2e70:	000038a4 	muli	zero,zero,226
    2e74:	000038a4 	muli	zero,zero,226
    2e78:	000038a4 	muli	zero,zero,226
    2e7c:	000038a4 	muli	zero,zero,226
    2e80:	000038a4 	muli	zero,zero,226
    2e84:	000038a4 	muli	zero,zero,226
    2e88:	000038a4 	muli	zero,zero,226
    2e8c:	000038a4 	muli	zero,zero,226
    2e90:	000038a4 	muli	zero,zero,226
    2e94:	00003718 	cmpnei	zero,zero,220
    2e98:	000035c8 	cmpgei	zero,zero,215
    2e9c:	000034cc 	andi	zero,zero,211
    2ea0:	000034cc 	andi	zero,zero,211
    2ea4:	000034cc 	andi	zero,zero,211
    2ea8:	00003608 	cmpgei	zero,zero,216
    2eac:	000035c8 	cmpgei	zero,zero,215
    2eb0:	000038a4 	muli	zero,zero,226
    2eb4:	000038a4 	muli	zero,zero,226
    2eb8:	00003618 	cmpnei	zero,zero,216
    2ebc:	000038a4 	muli	zero,zero,226
    2ec0:	0000362c 	andhi	zero,zero,216
    2ec4:	00003868 	cmpgeui	zero,zero,225
    2ec8:	00003570 	cmpltui	zero,zero,213
    2ecc:	0000381c 	xori	zero,zero,224
    2ed0:	000038a4 	muli	zero,zero,226
    2ed4:	00003758 	cmpnei	zero,zero,221
    2ed8:	000038a4 	muli	zero,zero,226
    2edc:	0000382c 	andhi	zero,zero,224
    2ee0:	000038a4 	muli	zero,zero,226
    2ee4:	000038a4 	muli	zero,zero,226
    2ee8:	000037cc 	andi	zero,zero,223
    2eec:	db002a17 	ldw	r12,168(sp)
    2ef0:	8323c83a 	sub	r17,r16,r12
    2ef4:	003f7e06 	br	2cf0 <__alt_mem_Flash_flash_data+0xf4002cf0>
    2ef8:	b009883a 	mov	r4,r22
    2efc:	b80b883a 	mov	r5,r23
    2f00:	0004c000 	call	4c00 <__swsetup_r>
    2f04:	10000c1e 	bne	r2,zero,2f38 <___vfprintf_internal_r+0x368>
    2f08:	b880030b 	ldhu	r2,12(r23)
    2f0c:	00c00284 	movi	r3,10
    2f10:	1080068c 	andi	r2,r2,26
    2f14:	10ff561e 	bne	r2,r3,2c70 <__alt_mem_Flash_flash_data+0xf4002c70>
    2f18:	b880038f 	ldh	r2,14(r23)
    2f1c:	103f5416 	blt	r2,zero,2c70 <__alt_mem_Flash_flash_data+0xf4002c70>
    2f20:	d9802a17 	ldw	r6,168(sp)
    2f24:	d9c02d17 	ldw	r7,180(sp)
    2f28:	b009883a 	mov	r4,r22
    2f2c:	b80b883a 	mov	r5,r23
    2f30:	0004b440 	call	4b44 <__sbprintf>
    2f34:	00000106 	br	2f3c <___vfprintf_internal_r+0x36c>
    2f38:	00bfffc4 	movi	r2,-1
    2f3c:	dfc04917 	ldw	ra,292(sp)
    2f40:	df004817 	ldw	fp,288(sp)
    2f44:	ddc04717 	ldw	r23,284(sp)
    2f48:	dd804617 	ldw	r22,280(sp)
    2f4c:	dd404517 	ldw	r21,276(sp)
    2f50:	dd004417 	ldw	r20,272(sp)
    2f54:	dcc04317 	ldw	r19,268(sp)
    2f58:	dc804217 	ldw	r18,264(sp)
    2f5c:	dc404117 	ldw	r17,260(sp)
    2f60:	dc004017 	ldw	r16,256(sp)
    2f64:	dec04a04 	addi	sp,sp,296
    2f68:	f800283a 	ret
    2f6c:	b009883a 	mov	r4,r22
    2f70:	b80b883a 	mov	r5,r23
    2f74:	d9801e04 	addi	r6,sp,120
    2f78:	000b2080 	call	b208 <__sprint_r>
    2f7c:	1000081e 	bne	r2,zero,2fa0 <___vfprintf_internal_r+0x3d0>
    2f80:	da000404 	addi	r8,sp,16
    2f84:	003f6706 	br	2d24 <__alt_mem_Flash_flash_data+0xf4002d24>
    2f88:	d8802017 	ldw	r2,128(sp)
    2f8c:	10000426 	beq	r2,zero,2fa0 <___vfprintf_internal_r+0x3d0>
    2f90:	b009883a 	mov	r4,r22
    2f94:	b80b883a 	mov	r5,r23
    2f98:	d9801e04 	addi	r6,sp,120
    2f9c:	000b2080 	call	b208 <__sprint_r>
    2fa0:	b880030b 	ldhu	r2,12(r23)
    2fa4:	1080100c 	andi	r2,r2,64
    2fa8:	103fe31e 	bne	r2,zero,2f38 <__alt_mem_Flash_flash_data+0xf4002f38>
    2fac:	d8802f17 	ldw	r2,188(sp)
    2fb0:	003fe206 	br	2f3c <__alt_mem_Flash_flash_data+0xf4002f3c>
    2fb4:	b009883a 	mov	r4,r22
    2fb8:	0006c600 	call	6c60 <__sinit>
    2fbc:	003f1c06 	br	2c30 <__alt_mem_Flash_flash_data+0xf4002c30>
    2fc0:	dc002a17 	ldw	r16,168(sp)
    2fc4:	003f5a06 	br	2d30 <__alt_mem_Flash_flash_data+0xf4002d30>
    2fc8:	1805883a 	mov	r2,r3
    2fcc:	8c400114 	ori	r17,r17,4
    2fd0:	1c000007 	ldb	r16,0(r3)
    2fd4:	003f6306 	br	2d64 <__alt_mem_Flash_flash_data+0xf4002d64>
    2fd8:	1c000007 	ldb	r16,0(r3)
    2fdc:	18800044 	addi	r2,r3,1
    2fe0:	8286ad26 	beq	r16,r10,4a98 <___vfprintf_internal_r+0x1ec8>
    2fe4:	82fff404 	addi	r11,r16,-48
    2fe8:	1007883a 	mov	r3,r2
    2fec:	0013883a 	mov	r9,zero
    2ff0:	2aff5d36 	bltu	r5,r11,2d68 <__alt_mem_Flash_flash_data+0xf4002d68>
    2ff4:	1c000007 	ldb	r16,0(r3)
    2ff8:	4a4002a4 	muli	r9,r9,10
    2ffc:	18c00044 	addi	r3,r3,1
    3000:	5a53883a 	add	r9,r11,r9
    3004:	82fff404 	addi	r11,r16,-48
    3008:	2afffa2e 	bgeu	r5,r11,2ff4 <__alt_mem_Flash_flash_data+0xf4002ff4>
    300c:	483f560e 	bge	r9,zero,2d68 <__alt_mem_Flash_flash_data+0xf4002d68>
    3010:	027fffc4 	movi	r9,-1
    3014:	003f5406 	br	2d68 <__alt_mem_Flash_flash_data+0xf4002d68>
    3018:	8c402014 	ori	r17,r17,128
    301c:	1805883a 	mov	r2,r3
    3020:	1c000007 	ldb	r16,0(r3)
    3024:	003f4f06 	br	2d64 <__alt_mem_Flash_flash_data+0xf4002d64>
    3028:	1805883a 	mov	r2,r3
    302c:	d8002e15 	stw	zero,184(sp)
    3030:	82fff404 	addi	r11,r16,-48
    3034:	0019883a 	mov	r12,zero
    3038:	14000007 	ldb	r16,0(r2)
    303c:	630002a4 	muli	r12,r12,10
    3040:	18c00044 	addi	r3,r3,1
    3044:	1805883a 	mov	r2,r3
    3048:	62d9883a 	add	r12,r12,r11
    304c:	82fff404 	addi	r11,r16,-48
    3050:	2afff92e 	bgeu	r5,r11,3038 <__alt_mem_Flash_flash_data+0xf4003038>
    3054:	db002e15 	stw	r12,184(sp)
    3058:	003f4306 	br	2d68 <__alt_mem_Flash_flash_data+0xf4002d68>
    305c:	8c400414 	ori	r17,r17,16
    3060:	d8c02a15 	stw	r3,168(sp)
    3064:	d9802785 	stb	r6,158(sp)
    3068:	8880080c 	andi	r2,r17,32
    306c:	d8c02d17 	ldw	r3,180(sp)
    3070:	10015a26 	beq	r2,zero,35dc <___vfprintf_internal_r+0xa0c>
    3074:	db002d17 	ldw	r12,180(sp)
    3078:	18800117 	ldw	r2,4(r3)
    307c:	1cc00017 	ldw	r19,0(r3)
    3080:	63000204 	addi	r12,r12,8
    3084:	db002d15 	stw	r12,180(sp)
    3088:	1039883a 	mov	fp,r2
    308c:	10044516 	blt	r2,zero,41a4 <___vfprintf_internal_r+0x15d4>
    3090:	dd402783 	ldbu	r21,158(sp)
    3094:	da403215 	stw	r9,200(sp)
    3098:	00800044 	movi	r2,1
    309c:	9f06b03a 	or	r3,r19,fp
    30a0:	48000216 	blt	r9,zero,30ac <___vfprintf_internal_r+0x4dc>
    30a4:	013fdfc4 	movi	r4,-129
    30a8:	8922703a 	and	r17,r17,r4
    30ac:	1802071e 	bne	r3,zero,38cc <___vfprintf_internal_r+0xcfc>
    30b0:	4802fa26 	beq	r9,zero,3c9c <___vfprintf_internal_r+0x10cc>
    30b4:	10803fcc 	andi	r2,r2,255
    30b8:	00c00044 	movi	r3,1
    30bc:	10c22926 	beq	r2,r3,3964 <___vfprintf_internal_r+0xd94>
    30c0:	00c00084 	movi	r3,2
    30c4:	10c31726 	beq	r2,r3,3d24 <___vfprintf_internal_r+0x1154>
    30c8:	d8c01e04 	addi	r3,sp,120
    30cc:	9808d0fa 	srli	r4,r19,3
    30d0:	e00a977a 	slli	r5,fp,29
    30d4:	e038d0fa 	srli	fp,fp,3
    30d8:	9cc001cc 	andi	r19,r19,7
    30dc:	98800c04 	addi	r2,r19,48
    30e0:	18ffffc4 	addi	r3,r3,-1
    30e4:	2926b03a 	or	r19,r5,r4
    30e8:	18800005 	stb	r2,0(r3)
    30ec:	9f08b03a 	or	r4,r19,fp
    30f0:	203ff61e 	bne	r4,zero,30cc <__alt_mem_Flash_flash_data+0xf40030cc>
    30f4:	8900004c 	andi	r4,r17,1
    30f8:	d8c03115 	stw	r3,196(sp)
    30fc:	2003931e 	bne	r4,zero,3f4c <___vfprintf_internal_r+0x137c>
    3100:	dac02817 	ldw	r11,160(sp)
    3104:	58e5c83a 	sub	r18,r11,r3
    3108:	9005883a 	mov	r2,r18
    310c:	9240010e 	bge	r18,r9,3114 <___vfprintf_internal_r+0x544>
    3110:	4805883a 	mov	r2,r9
    3114:	d8802b15 	stw	r2,172(sp)
    3118:	d8003415 	stw	zero,208(sp)
    311c:	a8803fcc 	andi	r2,r21,255
    3120:	1080201c 	xori	r2,r2,128
    3124:	10bfe004 	addi	r2,r2,-128
    3128:	10000326 	beq	r2,zero,3138 <___vfprintf_internal_r+0x568>
    312c:	db002b17 	ldw	r12,172(sp)
    3130:	63000044 	addi	r12,r12,1
    3134:	db002b15 	stw	r12,172(sp)
    3138:	88c0008c 	andi	r3,r17,2
    313c:	d8c02c15 	stw	r3,176(sp)
    3140:	18000326 	beq	r3,zero,3150 <___vfprintf_internal_r+0x580>
    3144:	dac02b17 	ldw	r11,172(sp)
    3148:	5ac00084 	addi	r11,r11,2
    314c:	dac02b15 	stw	r11,172(sp)
    3150:	8b00210c 	andi	r12,r17,132
    3154:	db003015 	stw	r12,192(sp)
    3158:	6001da1e 	bne	r12,zero,38c4 <___vfprintf_internal_r+0xcf4>
    315c:	dac02e17 	ldw	r11,184(sp)
    3160:	db002b17 	ldw	r12,172(sp)
    3164:	5b39c83a 	sub	fp,r11,r12
    3168:	0701d60e 	bge	zero,fp,38c4 <___vfprintf_internal_r+0xcf4>
    316c:	02400404 	movi	r9,16
    3170:	d8c02017 	ldw	r3,128(sp)
    3174:	d8801f17 	ldw	r2,124(sp)
    3178:	4f053c0e 	bge	r9,fp,466c <___vfprintf_internal_r+0x1a9c>
    317c:	014000b4 	movhi	r5,2
    3180:	2942eb84 	addi	r5,r5,2990
    3184:	d9403615 	stw	r5,216(sp)
    3188:	482b883a 	mov	r21,r9
    318c:	04c001c4 	movi	r19,7
    3190:	00000306 	br	31a0 <___vfprintf_internal_r+0x5d0>
    3194:	e73ffc04 	addi	fp,fp,-16
    3198:	42000204 	addi	r8,r8,8
    319c:	af00130e 	bge	r21,fp,31ec <___vfprintf_internal_r+0x61c>
    31a0:	02c000b4 	movhi	r11,2
    31a4:	18c00404 	addi	r3,r3,16
    31a8:	10800044 	addi	r2,r2,1
    31ac:	5ac2eb84 	addi	r11,r11,2990
    31b0:	42c00015 	stw	r11,0(r8)
    31b4:	45400115 	stw	r21,4(r8)
    31b8:	d8c02015 	stw	r3,128(sp)
    31bc:	d8801f15 	stw	r2,124(sp)
    31c0:	98bff40e 	bge	r19,r2,3194 <__alt_mem_Flash_flash_data+0xf4003194>
    31c4:	b009883a 	mov	r4,r22
    31c8:	b80b883a 	mov	r5,r23
    31cc:	d9801e04 	addi	r6,sp,120
    31d0:	000b2080 	call	b208 <__sprint_r>
    31d4:	103f721e 	bne	r2,zero,2fa0 <__alt_mem_Flash_flash_data+0xf4002fa0>
    31d8:	e73ffc04 	addi	fp,fp,-16
    31dc:	d8c02017 	ldw	r3,128(sp)
    31e0:	d8801f17 	ldw	r2,124(sp)
    31e4:	da000404 	addi	r8,sp,16
    31e8:	af3fed16 	blt	r21,fp,31a0 <__alt_mem_Flash_flash_data+0xf40031a0>
    31ec:	db003617 	ldw	r12,216(sp)
    31f0:	e0c7883a 	add	r3,fp,r3
    31f4:	10800044 	addi	r2,r2,1
    31f8:	43000015 	stw	r12,0(r8)
    31fc:	47000115 	stw	fp,4(r8)
    3200:	d8c02015 	stw	r3,128(sp)
    3204:	d8801f15 	stw	r2,124(sp)
    3208:	010001c4 	movi	r4,7
    320c:	20830e16 	blt	r4,r2,3e48 <___vfprintf_internal_r+0x1278>
    3210:	d8802787 	ldb	r2,158(sp)
    3214:	42000204 	addi	r8,r8,8
    3218:	10000c26 	beq	r2,zero,324c <___vfprintf_internal_r+0x67c>
    321c:	d8801f17 	ldw	r2,124(sp)
    3220:	d9002784 	addi	r4,sp,158
    3224:	18c00044 	addi	r3,r3,1
    3228:	10800044 	addi	r2,r2,1
    322c:	41000015 	stw	r4,0(r8)
    3230:	01000044 	movi	r4,1
    3234:	41000115 	stw	r4,4(r8)
    3238:	d8c02015 	stw	r3,128(sp)
    323c:	d8801f15 	stw	r2,124(sp)
    3240:	010001c4 	movi	r4,7
    3244:	2082a716 	blt	r4,r2,3ce4 <___vfprintf_internal_r+0x1114>
    3248:	42000204 	addi	r8,r8,8
    324c:	dac02c17 	ldw	r11,176(sp)
    3250:	58000c26 	beq	r11,zero,3284 <___vfprintf_internal_r+0x6b4>
    3254:	d8801f17 	ldw	r2,124(sp)
    3258:	d9002704 	addi	r4,sp,156
    325c:	18c00084 	addi	r3,r3,2
    3260:	10800044 	addi	r2,r2,1
    3264:	41000015 	stw	r4,0(r8)
    3268:	01000084 	movi	r4,2
    326c:	41000115 	stw	r4,4(r8)
    3270:	d8c02015 	stw	r3,128(sp)
    3274:	d8801f15 	stw	r2,124(sp)
    3278:	010001c4 	movi	r4,7
    327c:	2082a116 	blt	r4,r2,3d04 <___vfprintf_internal_r+0x1134>
    3280:	42000204 	addi	r8,r8,8
    3284:	db003017 	ldw	r12,192(sp)
    3288:	00802004 	movi	r2,128
    328c:	60820326 	beq	r12,r2,3a9c <___vfprintf_internal_r+0xecc>
    3290:	db003217 	ldw	r12,200(sp)
    3294:	64abc83a 	sub	r21,r12,r18
    3298:	0540260e 	bge	zero,r21,3334 <___vfprintf_internal_r+0x764>
    329c:	07000404 	movi	fp,16
    32a0:	d8801f17 	ldw	r2,124(sp)
    32a4:	e544570e 	bge	fp,r21,4404 <___vfprintf_internal_r+0x1834>
    32a8:	014000b4 	movhi	r5,2
    32ac:	2942e784 	addi	r5,r5,2974
    32b0:	d9402c15 	stw	r5,176(sp)
    32b4:	04c001c4 	movi	r19,7
    32b8:	00000306 	br	32c8 <___vfprintf_internal_r+0x6f8>
    32bc:	ad7ffc04 	addi	r21,r21,-16
    32c0:	42000204 	addi	r8,r8,8
    32c4:	e540110e 	bge	fp,r21,330c <___vfprintf_internal_r+0x73c>
    32c8:	18c00404 	addi	r3,r3,16
    32cc:	10800044 	addi	r2,r2,1
    32d0:	45000015 	stw	r20,0(r8)
    32d4:	47000115 	stw	fp,4(r8)
    32d8:	d8c02015 	stw	r3,128(sp)
    32dc:	d8801f15 	stw	r2,124(sp)
    32e0:	98bff60e 	bge	r19,r2,32bc <__alt_mem_Flash_flash_data+0xf40032bc>
    32e4:	b009883a 	mov	r4,r22
    32e8:	b80b883a 	mov	r5,r23
    32ec:	d9801e04 	addi	r6,sp,120
    32f0:	000b2080 	call	b208 <__sprint_r>
    32f4:	103f2a1e 	bne	r2,zero,2fa0 <__alt_mem_Flash_flash_data+0xf4002fa0>
    32f8:	ad7ffc04 	addi	r21,r21,-16
    32fc:	d8c02017 	ldw	r3,128(sp)
    3300:	d8801f17 	ldw	r2,124(sp)
    3304:	da000404 	addi	r8,sp,16
    3308:	e57fef16 	blt	fp,r21,32c8 <__alt_mem_Flash_flash_data+0xf40032c8>
    330c:	dac02c17 	ldw	r11,176(sp)
    3310:	1d47883a 	add	r3,r3,r21
    3314:	10800044 	addi	r2,r2,1
    3318:	42c00015 	stw	r11,0(r8)
    331c:	45400115 	stw	r21,4(r8)
    3320:	d8c02015 	stw	r3,128(sp)
    3324:	d8801f15 	stw	r2,124(sp)
    3328:	010001c4 	movi	r4,7
    332c:	20826516 	blt	r4,r2,3cc4 <___vfprintf_internal_r+0x10f4>
    3330:	42000204 	addi	r8,r8,8
    3334:	8880400c 	andi	r2,r17,256
    3338:	1001901e 	bne	r2,zero,397c <___vfprintf_internal_r+0xdac>
    333c:	d8801f17 	ldw	r2,124(sp)
    3340:	db003117 	ldw	r12,196(sp)
    3344:	1c87883a 	add	r3,r3,r18
    3348:	10800044 	addi	r2,r2,1
    334c:	43000015 	stw	r12,0(r8)
    3350:	44800115 	stw	r18,4(r8)
    3354:	d8c02015 	stw	r3,128(sp)
    3358:	d8801f15 	stw	r2,124(sp)
    335c:	010001c4 	movi	r4,7
    3360:	20824016 	blt	r4,r2,3c64 <___vfprintf_internal_r+0x1094>
    3364:	42000204 	addi	r8,r8,8
    3368:	8c40010c 	andi	r17,r17,4
    336c:	88003126 	beq	r17,zero,3434 <___vfprintf_internal_r+0x864>
    3370:	db002e17 	ldw	r12,184(sp)
    3374:	dac02b17 	ldw	r11,172(sp)
    3378:	62e1c83a 	sub	r16,r12,r11
    337c:	04002d0e 	bge	zero,r16,3434 <___vfprintf_internal_r+0x864>
    3380:	04400404 	movi	r17,16
    3384:	d8801f17 	ldw	r2,124(sp)
    3388:	8c05150e 	bge	r17,r16,47e0 <___vfprintf_internal_r+0x1c10>
    338c:	010000b4 	movhi	r4,2
    3390:	2102eb84 	addi	r4,r4,2990
    3394:	d9003615 	stw	r4,216(sp)
    3398:	048001c4 	movi	r18,7
    339c:	00000306 	br	33ac <___vfprintf_internal_r+0x7dc>
    33a0:	843ffc04 	addi	r16,r16,-16
    33a4:	42000204 	addi	r8,r8,8
    33a8:	8c00130e 	bge	r17,r16,33f8 <___vfprintf_internal_r+0x828>
    33ac:	014000b4 	movhi	r5,2
    33b0:	18c00404 	addi	r3,r3,16
    33b4:	10800044 	addi	r2,r2,1
    33b8:	2942eb84 	addi	r5,r5,2990
    33bc:	41400015 	stw	r5,0(r8)
    33c0:	44400115 	stw	r17,4(r8)
    33c4:	d8c02015 	stw	r3,128(sp)
    33c8:	d8801f15 	stw	r2,124(sp)
    33cc:	90bff40e 	bge	r18,r2,33a0 <__alt_mem_Flash_flash_data+0xf40033a0>
    33d0:	b009883a 	mov	r4,r22
    33d4:	b80b883a 	mov	r5,r23
    33d8:	d9801e04 	addi	r6,sp,120
    33dc:	000b2080 	call	b208 <__sprint_r>
    33e0:	103eef1e 	bne	r2,zero,2fa0 <__alt_mem_Flash_flash_data+0xf4002fa0>
    33e4:	843ffc04 	addi	r16,r16,-16
    33e8:	d8c02017 	ldw	r3,128(sp)
    33ec:	d8801f17 	ldw	r2,124(sp)
    33f0:	da000404 	addi	r8,sp,16
    33f4:	8c3fed16 	blt	r17,r16,33ac <__alt_mem_Flash_flash_data+0xf40033ac>
    33f8:	dac03617 	ldw	r11,216(sp)
    33fc:	1c07883a 	add	r3,r3,r16
    3400:	10800044 	addi	r2,r2,1
    3404:	42c00015 	stw	r11,0(r8)
    3408:	44000115 	stw	r16,4(r8)
    340c:	d8c02015 	stw	r3,128(sp)
    3410:	d8801f15 	stw	r2,124(sp)
    3414:	010001c4 	movi	r4,7
    3418:	2080060e 	bge	r4,r2,3434 <___vfprintf_internal_r+0x864>
    341c:	b009883a 	mov	r4,r22
    3420:	b80b883a 	mov	r5,r23
    3424:	d9801e04 	addi	r6,sp,120
    3428:	000b2080 	call	b208 <__sprint_r>
    342c:	103edc1e 	bne	r2,zero,2fa0 <__alt_mem_Flash_flash_data+0xf4002fa0>
    3430:	d8c02017 	ldw	r3,128(sp)
    3434:	d8802b17 	ldw	r2,172(sp)
    3438:	db002e17 	ldw	r12,184(sp)
    343c:	1300010e 	bge	r2,r12,3444 <___vfprintf_internal_r+0x874>
    3440:	6005883a 	mov	r2,r12
    3444:	dac02f17 	ldw	r11,188(sp)
    3448:	5897883a 	add	r11,r11,r2
    344c:	dac02f15 	stw	r11,188(sp)
    3450:	18020c1e 	bne	r3,zero,3c84 <___vfprintf_internal_r+0x10b4>
    3454:	d8001f15 	stw	zero,124(sp)
    3458:	da000404 	addi	r8,sp,16
    345c:	003e1706 	br	2cbc <__alt_mem_Flash_flash_data+0xf4002cbc>
    3460:	8c400414 	ori	r17,r17,16
    3464:	d8c02a15 	stw	r3,168(sp)
    3468:	8880080c 	andi	r2,r17,32
    346c:	10010126 	beq	r2,zero,3874 <___vfprintf_internal_r+0xca4>
    3470:	db002d17 	ldw	r12,180(sp)
    3474:	0005883a 	mov	r2,zero
    3478:	64c00017 	ldw	r19,0(r12)
    347c:	67000117 	ldw	fp,4(r12)
    3480:	63000204 	addi	r12,r12,8
    3484:	db002d15 	stw	r12,180(sp)
    3488:	9f06b03a 	or	r3,r19,fp
    348c:	d8002785 	stb	zero,158(sp)
    3490:	da403215 	stw	r9,200(sp)
    3494:	002b883a 	mov	r21,zero
    3498:	003f0106 	br	30a0 <__alt_mem_Flash_flash_data+0xf40030a0>
    349c:	8c400414 	ori	r17,r17,16
    34a0:	d8c02a15 	stw	r3,168(sp)
    34a4:	8880080c 	andi	r2,r17,32
    34a8:	1000e326 	beq	r2,zero,3838 <___vfprintf_internal_r+0xc68>
    34ac:	dac02d17 	ldw	r11,180(sp)
    34b0:	00800044 	movi	r2,1
    34b4:	5cc00017 	ldw	r19,0(r11)
    34b8:	5f000117 	ldw	fp,4(r11)
    34bc:	5ac00204 	addi	r11,r11,8
    34c0:	dac02d15 	stw	r11,180(sp)
    34c4:	9f06b03a 	or	r3,r19,fp
    34c8:	003ff006 	br	348c <__alt_mem_Flash_flash_data+0xf400348c>
    34cc:	db002d17 	ldw	r12,180(sp)
    34d0:	dac02d17 	ldw	r11,180(sp)
    34d4:	d8c02a15 	stw	r3,168(sp)
    34d8:	63000017 	ldw	r12,0(r12)
    34dc:	5ac00117 	ldw	r11,4(r11)
    34e0:	d9802785 	stb	r6,158(sp)
    34e4:	6009883a 	mov	r4,r12
    34e8:	580b883a 	mov	r5,r11
    34ec:	db003715 	stw	r12,220(sp)
    34f0:	da003f15 	stw	r8,252(sp)
    34f4:	da403e15 	stw	r9,248(sp)
    34f8:	dac03915 	stw	r11,228(sp)
    34fc:	0009c600 	call	9c60 <__fpclassifyd>
    3500:	db002d17 	ldw	r12,180(sp)
    3504:	04800044 	movi	r18,1
    3508:	da003f17 	ldw	r8,252(sp)
    350c:	64c00204 	addi	r19,r12,8
    3510:	da403e17 	ldw	r9,248(sp)
    3514:	d9003717 	ldw	r4,220(sp)
    3518:	d9403917 	ldw	r5,228(sp)
    351c:	14832b1e 	bne	r2,r18,41cc <___vfprintf_internal_r+0x15fc>
    3520:	000d883a 	mov	r6,zero
    3524:	000f883a 	mov	r7,zero
    3528:	000ee100 	call	ee10 <__ledf2>
    352c:	da003f17 	ldw	r8,252(sp)
    3530:	1004b716 	blt	r2,zero,4810 <___vfprintf_internal_r+0x1c40>
    3534:	dd402783 	ldbu	r21,158(sp)
    3538:	008011c4 	movi	r2,71
    353c:	14040e0e 	bge	r2,r16,4578 <___vfprintf_internal_r+0x19a8>
    3540:	00c000b4 	movhi	r3,2
    3544:	18c2d004 	addi	r3,r3,2880
    3548:	d8c03115 	stw	r3,196(sp)
    354c:	02c000c4 	movi	r11,3
    3550:	00bfdfc4 	movi	r2,-129
    3554:	dac02b15 	stw	r11,172(sp)
    3558:	88a2703a 	and	r17,r17,r2
    355c:	dcc02d15 	stw	r19,180(sp)
    3560:	5825883a 	mov	r18,r11
    3564:	d8003215 	stw	zero,200(sp)
    3568:	d8003415 	stw	zero,208(sp)
    356c:	003eeb06 	br	311c <__alt_mem_Flash_flash_data+0xf400311c>
    3570:	db002d17 	ldw	r12,180(sp)
    3574:	00800c04 	movi	r2,48
    3578:	d8802705 	stb	r2,156(sp)
    357c:	64c00017 	ldw	r19,0(r12)
    3580:	00801e04 	movi	r2,120
    3584:	d8802745 	stb	r2,157(sp)
    3588:	008000b4 	movhi	r2,2
    358c:	1082d804 	addi	r2,r2,2912
    3590:	63000104 	addi	r12,r12,4
    3594:	d8c02a15 	stw	r3,168(sp)
    3598:	d8803b15 	stw	r2,236(sp)
    359c:	0039883a 	mov	fp,zero
    35a0:	8c400094 	ori	r17,r17,2
    35a4:	db002d15 	stw	r12,180(sp)
    35a8:	00800084 	movi	r2,2
    35ac:	04001e04 	movi	r16,120
    35b0:	9807883a 	mov	r3,r19
    35b4:	003fb506 	br	348c <__alt_mem_Flash_flash_data+0xf400348c>
    35b8:	8c400214 	ori	r17,r17,8
    35bc:	1805883a 	mov	r2,r3
    35c0:	1c000007 	ldb	r16,0(r3)
    35c4:	003de706 	br	2d64 <__alt_mem_Flash_flash_data+0xf4002d64>
    35c8:	d8c02a15 	stw	r3,168(sp)
    35cc:	d9802785 	stb	r6,158(sp)
    35d0:	8880080c 	andi	r2,r17,32
    35d4:	d8c02d17 	ldw	r3,180(sp)
    35d8:	103ea61e 	bne	r2,zero,3074 <__alt_mem_Flash_flash_data+0xf4003074>
    35dc:	8880040c 	andi	r2,r17,16
    35e0:	1002221e 	bne	r2,zero,3e6c <___vfprintf_internal_r+0x129c>
    35e4:	8880100c 	andi	r2,r17,64
    35e8:	10022026 	beq	r2,zero,3e6c <___vfprintf_internal_r+0x129c>
    35ec:	1cc0000f 	ldh	r19,0(r3)
    35f0:	db002d17 	ldw	r12,180(sp)
    35f4:	9839d7fa 	srai	fp,r19,31
    35f8:	63000104 	addi	r12,r12,4
    35fc:	db002d15 	stw	r12,180(sp)
    3600:	e005883a 	mov	r2,fp
    3604:	003ea106 	br	308c <__alt_mem_Flash_flash_data+0xf400308c>
    3608:	8c401014 	ori	r17,r17,64
    360c:	1805883a 	mov	r2,r3
    3610:	1c000007 	ldb	r16,0(r3)
    3614:	003dd306 	br	2d64 <__alt_mem_Flash_flash_data+0xf4002d64>
    3618:	1c000007 	ldb	r16,0(r3)
    361c:	81c3e926 	beq	r16,r7,45c4 <___vfprintf_internal_r+0x19f4>
    3620:	8c400414 	ori	r17,r17,16
    3624:	1805883a 	mov	r2,r3
    3628:	003dce06 	br	2d64 <__alt_mem_Flash_flash_data+0xf4002d64>
    362c:	d8c02a15 	stw	r3,168(sp)
    3630:	d9802785 	stb	r6,158(sp)
    3634:	8880080c 	andi	r2,r17,32
    3638:	10034726 	beq	r2,zero,4358 <___vfprintf_internal_r+0x1788>
    363c:	db002d17 	ldw	r12,180(sp)
    3640:	dac02f17 	ldw	r11,188(sp)
    3644:	60800017 	ldw	r2,0(r12)
    3648:	5807d7fa 	srai	r3,r11,31
    364c:	63000104 	addi	r12,r12,4
    3650:	db002d15 	stw	r12,180(sp)
    3654:	12c00015 	stw	r11,0(r2)
    3658:	10c00115 	stw	r3,4(r2)
    365c:	003d9706 	br	2cbc <__alt_mem_Flash_flash_data+0xf4002cbc>
    3660:	030000b4 	movhi	r12,2
    3664:	6302d304 	addi	r12,r12,2892
    3668:	d8c02a15 	stw	r3,168(sp)
    366c:	d9802785 	stb	r6,158(sp)
    3670:	db003b15 	stw	r12,236(sp)
    3674:	88c0080c 	andi	r3,r17,32
    3678:	d8802d17 	ldw	r2,180(sp)
    367c:	18005b26 	beq	r3,zero,37ec <___vfprintf_internal_r+0xc1c>
    3680:	dac02d17 	ldw	r11,180(sp)
    3684:	14c00017 	ldw	r19,0(r2)
    3688:	17000117 	ldw	fp,4(r2)
    368c:	5ac00204 	addi	r11,r11,8
    3690:	dac02d15 	stw	r11,180(sp)
    3694:	8880004c 	andi	r2,r17,1
    3698:	10022926 	beq	r2,zero,3f40 <___vfprintf_internal_r+0x1370>
    369c:	9f06b03a 	or	r3,r19,fp
    36a0:	18032b26 	beq	r3,zero,4350 <___vfprintf_internal_r+0x1780>
    36a4:	00800c04 	movi	r2,48
    36a8:	d8802705 	stb	r2,156(sp)
    36ac:	dc002745 	stb	r16,157(sp)
    36b0:	8c400094 	ori	r17,r17,2
    36b4:	00800084 	movi	r2,2
    36b8:	003f7406 	br	348c <__alt_mem_Flash_flash_data+0xf400348c>
    36bc:	30803fcc 	andi	r2,r6,255
    36c0:	1080201c 	xori	r2,r2,128
    36c4:	10bfe004 	addi	r2,r2,-128
    36c8:	1003351e 	bne	r2,zero,43a0 <___vfprintf_internal_r+0x17d0>
    36cc:	1805883a 	mov	r2,r3
    36d0:	01800804 	movi	r6,32
    36d4:	1c000007 	ldb	r16,0(r3)
    36d8:	003da206 	br	2d64 <__alt_mem_Flash_flash_data+0xf4002d64>
    36dc:	dac02d17 	ldw	r11,180(sp)
    36e0:	db002d17 	ldw	r12,180(sp)
    36e4:	5ac00017 	ldw	r11,0(r11)
    36e8:	dac02e15 	stw	r11,184(sp)
    36ec:	62c00104 	addi	r11,r12,4
    36f0:	db002e17 	ldw	r12,184(sp)
    36f4:	6003ad16 	blt	r12,zero,45ac <___vfprintf_internal_r+0x19dc>
    36f8:	dac02d15 	stw	r11,180(sp)
    36fc:	1805883a 	mov	r2,r3
    3700:	1c000007 	ldb	r16,0(r3)
    3704:	003d9706 	br	2d64 <__alt_mem_Flash_flash_data+0xf4002d64>
    3708:	1805883a 	mov	r2,r3
    370c:	01800ac4 	movi	r6,43
    3710:	1c000007 	ldb	r16,0(r3)
    3714:	003d9306 	br	2d64 <__alt_mem_Flash_flash_data+0xf4002d64>
    3718:	db002d17 	ldw	r12,180(sp)
    371c:	d8c02a15 	stw	r3,168(sp)
    3720:	00c00044 	movi	r3,1
    3724:	60800017 	ldw	r2,0(r12)
    3728:	63000104 	addi	r12,r12,4
    372c:	d8c02b15 	stw	r3,172(sp)
    3730:	d8002785 	stb	zero,158(sp)
    3734:	d8801405 	stb	r2,80(sp)
    3738:	db002d15 	stw	r12,180(sp)
    373c:	dac01404 	addi	r11,sp,80
    3740:	1825883a 	mov	r18,r3
    3744:	d8003215 	stw	zero,200(sp)
    3748:	d8003415 	stw	zero,208(sp)
    374c:	dac03115 	stw	r11,196(sp)
    3750:	0005883a 	mov	r2,zero
    3754:	003e7806 	br	3138 <__alt_mem_Flash_flash_data+0xf4003138>
    3758:	dac02d17 	ldw	r11,180(sp)
    375c:	db002d17 	ldw	r12,180(sp)
    3760:	d8c02a15 	stw	r3,168(sp)
    3764:	5ac00017 	ldw	r11,0(r11)
    3768:	d8002785 	stb	zero,158(sp)
    376c:	64c00104 	addi	r19,r12,4
    3770:	dac03115 	stw	r11,196(sp)
    3774:	5803fe26 	beq	r11,zero,4770 <___vfprintf_internal_r+0x1ba0>
    3778:	d9003117 	ldw	r4,196(sp)
    377c:	4803b416 	blt	r9,zero,4650 <___vfprintf_internal_r+0x1a80>
    3780:	480d883a 	mov	r6,r9
    3784:	000b883a 	mov	r5,zero
    3788:	da003f15 	stw	r8,252(sp)
    378c:	da403e15 	stw	r9,248(sp)
    3790:	000814c0 	call	814c <memchr>
    3794:	da003f17 	ldw	r8,252(sp)
    3798:	da403e17 	ldw	r9,248(sp)
    379c:	10043026 	beq	r2,zero,4860 <___vfprintf_internal_r+0x1c90>
    37a0:	d8c03117 	ldw	r3,196(sp)
    37a4:	10e5c83a 	sub	r18,r2,r3
    37a8:	4c836b16 	blt	r9,r18,4558 <___vfprintf_internal_r+0x1988>
    37ac:	9005883a 	mov	r2,r18
    37b0:	9003ac16 	blt	r18,zero,4664 <___vfprintf_internal_r+0x1a94>
    37b4:	dd402783 	ldbu	r21,158(sp)
    37b8:	d8802b15 	stw	r2,172(sp)
    37bc:	dcc02d15 	stw	r19,180(sp)
    37c0:	d8003215 	stw	zero,200(sp)
    37c4:	d8003415 	stw	zero,208(sp)
    37c8:	003e5406 	br	311c <__alt_mem_Flash_flash_data+0xf400311c>
    37cc:	008000b4 	movhi	r2,2
    37d0:	1082d804 	addi	r2,r2,2912
    37d4:	d8c02a15 	stw	r3,168(sp)
    37d8:	d8803b15 	stw	r2,236(sp)
    37dc:	d9802785 	stb	r6,158(sp)
    37e0:	88c0080c 	andi	r3,r17,32
    37e4:	d8802d17 	ldw	r2,180(sp)
    37e8:	183fa51e 	bne	r3,zero,3680 <__alt_mem_Flash_flash_data+0xf4003680>
    37ec:	88c0040c 	andi	r3,r17,16
    37f0:	1802ee26 	beq	r3,zero,43ac <___vfprintf_internal_r+0x17dc>
    37f4:	db002d17 	ldw	r12,180(sp)
    37f8:	14c00017 	ldw	r19,0(r2)
    37fc:	0039883a 	mov	fp,zero
    3800:	63000104 	addi	r12,r12,4
    3804:	db002d15 	stw	r12,180(sp)
    3808:	003fa206 	br	3694 <__alt_mem_Flash_flash_data+0xf4003694>
    380c:	8c400054 	ori	r17,r17,1
    3810:	1805883a 	mov	r2,r3
    3814:	1c000007 	ldb	r16,0(r3)
    3818:	003d5206 	br	2d64 <__alt_mem_Flash_flash_data+0xf4002d64>
    381c:	8c400814 	ori	r17,r17,32
    3820:	1805883a 	mov	r2,r3
    3824:	1c000007 	ldb	r16,0(r3)
    3828:	003d4e06 	br	2d64 <__alt_mem_Flash_flash_data+0xf4002d64>
    382c:	d8c02a15 	stw	r3,168(sp)
    3830:	8880080c 	andi	r2,r17,32
    3834:	103f1d1e 	bne	r2,zero,34ac <__alt_mem_Flash_flash_data+0xf40034ac>
    3838:	8880040c 	andi	r2,r17,16
    383c:	1001b81e 	bne	r2,zero,3f20 <___vfprintf_internal_r+0x1350>
    3840:	8880100c 	andi	r2,r17,64
    3844:	1001b626 	beq	r2,zero,3f20 <___vfprintf_internal_r+0x1350>
    3848:	dac02d17 	ldw	r11,180(sp)
    384c:	0039883a 	mov	fp,zero
    3850:	00800044 	movi	r2,1
    3854:	5cc0000b 	ldhu	r19,0(r11)
    3858:	5ac00104 	addi	r11,r11,4
    385c:	dac02d15 	stw	r11,180(sp)
    3860:	9807883a 	mov	r3,r19
    3864:	003f0906 	br	348c <__alt_mem_Flash_flash_data+0xf400348c>
    3868:	d8c02a15 	stw	r3,168(sp)
    386c:	8880080c 	andi	r2,r17,32
    3870:	103eff1e 	bne	r2,zero,3470 <__alt_mem_Flash_flash_data+0xf4003470>
    3874:	8880040c 	andi	r2,r17,16
    3878:	1001a11e 	bne	r2,zero,3f00 <___vfprintf_internal_r+0x1330>
    387c:	8880100c 	andi	r2,r17,64
    3880:	10019f26 	beq	r2,zero,3f00 <___vfprintf_internal_r+0x1330>
    3884:	db002d17 	ldw	r12,180(sp)
    3888:	0039883a 	mov	fp,zero
    388c:	0005883a 	mov	r2,zero
    3890:	64c0000b 	ldhu	r19,0(r12)
    3894:	63000104 	addi	r12,r12,4
    3898:	db002d15 	stw	r12,180(sp)
    389c:	9807883a 	mov	r3,r19
    38a0:	003efa06 	br	348c <__alt_mem_Flash_flash_data+0xf400348c>
    38a4:	d8c02a15 	stw	r3,168(sp)
    38a8:	d9802785 	stb	r6,158(sp)
    38ac:	803db626 	beq	r16,zero,2f88 <__alt_mem_Flash_flash_data+0xf4002f88>
    38b0:	00c00044 	movi	r3,1
    38b4:	d8c02b15 	stw	r3,172(sp)
    38b8:	dc001405 	stb	r16,80(sp)
    38bc:	d8002785 	stb	zero,158(sp)
    38c0:	003f9e06 	br	373c <__alt_mem_Flash_flash_data+0xf400373c>
    38c4:	d8c02017 	ldw	r3,128(sp)
    38c8:	003e5306 	br	3218 <__alt_mem_Flash_flash_data+0xf4003218>
    38cc:	10803fcc 	andi	r2,r2,255
    38d0:	00c00044 	movi	r3,1
    38d4:	10fdfa1e 	bne	r2,r3,30c0 <__alt_mem_Flash_flash_data+0xf40030c0>
    38d8:	e000021e 	bne	fp,zero,38e4 <___vfprintf_internal_r+0xd14>
    38dc:	00800244 	movi	r2,9
    38e0:	14c0202e 	bgeu	r2,r19,3964 <___vfprintf_internal_r+0xd94>
    38e4:	dc002b15 	stw	r16,172(sp)
    38e8:	dc402c15 	stw	r17,176(sp)
    38ec:	9821883a 	mov	r16,r19
    38f0:	e023883a 	mov	r17,fp
    38f4:	dc801e04 	addi	r18,sp,120
    38f8:	4827883a 	mov	r19,r9
    38fc:	4039883a 	mov	fp,r8
    3900:	8009883a 	mov	r4,r16
    3904:	880b883a 	mov	r5,r17
    3908:	01800284 	movi	r6,10
    390c:	000f883a 	mov	r7,zero
    3910:	000d4880 	call	d488 <__umoddi3>
    3914:	10800c04 	addi	r2,r2,48
    3918:	94bfffc4 	addi	r18,r18,-1
    391c:	8009883a 	mov	r4,r16
    3920:	880b883a 	mov	r5,r17
    3924:	01800284 	movi	r6,10
    3928:	000f883a 	mov	r7,zero
    392c:	90800005 	stb	r2,0(r18)
    3930:	000cec80 	call	cec8 <__udivdi3>
    3934:	1021883a 	mov	r16,r2
    3938:	10c4b03a 	or	r2,r2,r3
    393c:	1823883a 	mov	r17,r3
    3940:	103fef1e 	bne	r2,zero,3900 <__alt_mem_Flash_flash_data+0xf4003900>
    3944:	dac02817 	ldw	r11,160(sp)
    3948:	dc803115 	stw	r18,196(sp)
    394c:	dc002b17 	ldw	r16,172(sp)
    3950:	dc402c17 	ldw	r17,176(sp)
    3954:	9813883a 	mov	r9,r19
    3958:	e011883a 	mov	r8,fp
    395c:	5ca5c83a 	sub	r18,r11,r18
    3960:	003de906 	br	3108 <__alt_mem_Flash_flash_data+0xf4003108>
    3964:	9cc00c04 	addi	r19,r19,48
    3968:	d8c01dc4 	addi	r3,sp,119
    396c:	dcc01dc5 	stb	r19,119(sp)
    3970:	dc803c17 	ldw	r18,240(sp)
    3974:	d8c03115 	stw	r3,196(sp)
    3978:	003de306 	br	3108 <__alt_mem_Flash_flash_data+0xf4003108>
    397c:	00801944 	movi	r2,101
    3980:	1400710e 	bge	r2,r16,3b48 <___vfprintf_internal_r+0xf78>
    3984:	d9003717 	ldw	r4,220(sp)
    3988:	d9403917 	ldw	r5,228(sp)
    398c:	000d883a 	mov	r6,zero
    3990:	000f883a 	mov	r7,zero
    3994:	d8c03d15 	stw	r3,244(sp)
    3998:	da003f15 	stw	r8,252(sp)
    399c:	000ecac0 	call	ecac <__eqdf2>
    39a0:	d8c03d17 	ldw	r3,244(sp)
    39a4:	da003f17 	ldw	r8,252(sp)
    39a8:	1000ef1e 	bne	r2,zero,3d68 <___vfprintf_internal_r+0x1198>
    39ac:	d8801f17 	ldw	r2,124(sp)
    39b0:	010000b4 	movhi	r4,2
    39b4:	2102df04 	addi	r4,r4,2940
    39b8:	18c00044 	addi	r3,r3,1
    39bc:	10800044 	addi	r2,r2,1
    39c0:	41000015 	stw	r4,0(r8)
    39c4:	01000044 	movi	r4,1
    39c8:	41000115 	stw	r4,4(r8)
    39cc:	d8c02015 	stw	r3,128(sp)
    39d0:	d8801f15 	stw	r2,124(sp)
    39d4:	010001c4 	movi	r4,7
    39d8:	20828e16 	blt	r4,r2,4414 <___vfprintf_internal_r+0x1844>
    39dc:	42000204 	addi	r8,r8,8
    39e0:	d8802617 	ldw	r2,152(sp)
    39e4:	dac03317 	ldw	r11,204(sp)
    39e8:	12c00216 	blt	r2,r11,39f4 <___vfprintf_internal_r+0xe24>
    39ec:	8880004c 	andi	r2,r17,1
    39f0:	103e5d26 	beq	r2,zero,3368 <__alt_mem_Flash_flash_data+0xf4003368>
    39f4:	db003817 	ldw	r12,224(sp)
    39f8:	d8801f17 	ldw	r2,124(sp)
    39fc:	dac03517 	ldw	r11,212(sp)
    3a00:	1b07883a 	add	r3,r3,r12
    3a04:	10800044 	addi	r2,r2,1
    3a08:	42c00015 	stw	r11,0(r8)
    3a0c:	43000115 	stw	r12,4(r8)
    3a10:	d8c02015 	stw	r3,128(sp)
    3a14:	d8801f15 	stw	r2,124(sp)
    3a18:	010001c4 	movi	r4,7
    3a1c:	2082ed16 	blt	r4,r2,45d4 <___vfprintf_internal_r+0x1a04>
    3a20:	42000204 	addi	r8,r8,8
    3a24:	db003317 	ldw	r12,204(sp)
    3a28:	643fffc4 	addi	r16,r12,-1
    3a2c:	043e4e0e 	bge	zero,r16,3368 <__alt_mem_Flash_flash_data+0xf4003368>
    3a30:	04800404 	movi	r18,16
    3a34:	d8801f17 	ldw	r2,124(sp)
    3a38:	94007e0e 	bge	r18,r16,3c34 <___vfprintf_internal_r+0x1064>
    3a3c:	014000b4 	movhi	r5,2
    3a40:	2942e784 	addi	r5,r5,2974
    3a44:	d9402c15 	stw	r5,176(sp)
    3a48:	054001c4 	movi	r21,7
    3a4c:	00000306 	br	3a5c <___vfprintf_internal_r+0xe8c>
    3a50:	42000204 	addi	r8,r8,8
    3a54:	843ffc04 	addi	r16,r16,-16
    3a58:	9400790e 	bge	r18,r16,3c40 <___vfprintf_internal_r+0x1070>
    3a5c:	18c00404 	addi	r3,r3,16
    3a60:	10800044 	addi	r2,r2,1
    3a64:	45000015 	stw	r20,0(r8)
    3a68:	44800115 	stw	r18,4(r8)
    3a6c:	d8c02015 	stw	r3,128(sp)
    3a70:	d8801f15 	stw	r2,124(sp)
    3a74:	a8bff60e 	bge	r21,r2,3a50 <__alt_mem_Flash_flash_data+0xf4003a50>
    3a78:	b009883a 	mov	r4,r22
    3a7c:	b80b883a 	mov	r5,r23
    3a80:	d9801e04 	addi	r6,sp,120
    3a84:	000b2080 	call	b208 <__sprint_r>
    3a88:	103d451e 	bne	r2,zero,2fa0 <__alt_mem_Flash_flash_data+0xf4002fa0>
    3a8c:	d8c02017 	ldw	r3,128(sp)
    3a90:	d8801f17 	ldw	r2,124(sp)
    3a94:	da000404 	addi	r8,sp,16
    3a98:	003fee06 	br	3a54 <__alt_mem_Flash_flash_data+0xf4003a54>
    3a9c:	dac02e17 	ldw	r11,184(sp)
    3aa0:	db002b17 	ldw	r12,172(sp)
    3aa4:	5b2bc83a 	sub	r21,r11,r12
    3aa8:	057df90e 	bge	zero,r21,3290 <__alt_mem_Flash_flash_data+0xf4003290>
    3aac:	07000404 	movi	fp,16
    3ab0:	d8801f17 	ldw	r2,124(sp)
    3ab4:	e543640e 	bge	fp,r21,4848 <___vfprintf_internal_r+0x1c78>
    3ab8:	014000b4 	movhi	r5,2
    3abc:	2942e784 	addi	r5,r5,2974
    3ac0:	d9402c15 	stw	r5,176(sp)
    3ac4:	04c001c4 	movi	r19,7
    3ac8:	00000306 	br	3ad8 <___vfprintf_internal_r+0xf08>
    3acc:	ad7ffc04 	addi	r21,r21,-16
    3ad0:	42000204 	addi	r8,r8,8
    3ad4:	e540110e 	bge	fp,r21,3b1c <___vfprintf_internal_r+0xf4c>
    3ad8:	18c00404 	addi	r3,r3,16
    3adc:	10800044 	addi	r2,r2,1
    3ae0:	45000015 	stw	r20,0(r8)
    3ae4:	47000115 	stw	fp,4(r8)
    3ae8:	d8c02015 	stw	r3,128(sp)
    3aec:	d8801f15 	stw	r2,124(sp)
    3af0:	98bff60e 	bge	r19,r2,3acc <__alt_mem_Flash_flash_data+0xf4003acc>
    3af4:	b009883a 	mov	r4,r22
    3af8:	b80b883a 	mov	r5,r23
    3afc:	d9801e04 	addi	r6,sp,120
    3b00:	000b2080 	call	b208 <__sprint_r>
    3b04:	103d261e 	bne	r2,zero,2fa0 <__alt_mem_Flash_flash_data+0xf4002fa0>
    3b08:	ad7ffc04 	addi	r21,r21,-16
    3b0c:	d8c02017 	ldw	r3,128(sp)
    3b10:	d8801f17 	ldw	r2,124(sp)
    3b14:	da000404 	addi	r8,sp,16
    3b18:	e57fef16 	blt	fp,r21,3ad8 <__alt_mem_Flash_flash_data+0xf4003ad8>
    3b1c:	dac02c17 	ldw	r11,176(sp)
    3b20:	1d47883a 	add	r3,r3,r21
    3b24:	10800044 	addi	r2,r2,1
    3b28:	42c00015 	stw	r11,0(r8)
    3b2c:	45400115 	stw	r21,4(r8)
    3b30:	d8c02015 	stw	r3,128(sp)
    3b34:	d8801f15 	stw	r2,124(sp)
    3b38:	010001c4 	movi	r4,7
    3b3c:	20819116 	blt	r4,r2,4184 <___vfprintf_internal_r+0x15b4>
    3b40:	42000204 	addi	r8,r8,8
    3b44:	003dd206 	br	3290 <__alt_mem_Flash_flash_data+0xf4003290>
    3b48:	db003317 	ldw	r12,204(sp)
    3b4c:	00800044 	movi	r2,1
    3b50:	18c00044 	addi	r3,r3,1
    3b54:	1301530e 	bge	r2,r12,40a4 <___vfprintf_internal_r+0x14d4>
    3b58:	dc001f17 	ldw	r16,124(sp)
    3b5c:	dac03117 	ldw	r11,196(sp)
    3b60:	00800044 	movi	r2,1
    3b64:	84000044 	addi	r16,r16,1
    3b68:	40800115 	stw	r2,4(r8)
    3b6c:	42c00015 	stw	r11,0(r8)
    3b70:	d8c02015 	stw	r3,128(sp)
    3b74:	dc001f15 	stw	r16,124(sp)
    3b78:	008001c4 	movi	r2,7
    3b7c:	14016b16 	blt	r2,r16,412c <___vfprintf_internal_r+0x155c>
    3b80:	42000204 	addi	r8,r8,8
    3b84:	db003817 	ldw	r12,224(sp)
    3b88:	dac03517 	ldw	r11,212(sp)
    3b8c:	84000044 	addi	r16,r16,1
    3b90:	1b07883a 	add	r3,r3,r12
    3b94:	42c00015 	stw	r11,0(r8)
    3b98:	43000115 	stw	r12,4(r8)
    3b9c:	d8c02015 	stw	r3,128(sp)
    3ba0:	dc001f15 	stw	r16,124(sp)
    3ba4:	008001c4 	movi	r2,7
    3ba8:	14016916 	blt	r2,r16,4150 <___vfprintf_internal_r+0x1580>
    3bac:	44800204 	addi	r18,r8,8
    3bb0:	d9003717 	ldw	r4,220(sp)
    3bb4:	d9403917 	ldw	r5,228(sp)
    3bb8:	000d883a 	mov	r6,zero
    3bbc:	000f883a 	mov	r7,zero
    3bc0:	d8c03d15 	stw	r3,244(sp)
    3bc4:	000ecac0 	call	ecac <__eqdf2>
    3bc8:	d8c03d17 	ldw	r3,244(sp)
    3bcc:	db003317 	ldw	r12,204(sp)
    3bd0:	1000ad26 	beq	r2,zero,3e88 <___vfprintf_internal_r+0x12b8>
    3bd4:	dac03117 	ldw	r11,196(sp)
    3bd8:	60bfffc4 	addi	r2,r12,-1
    3bdc:	1887883a 	add	r3,r3,r2
    3be0:	59000044 	addi	r4,r11,1
    3be4:	84000044 	addi	r16,r16,1
    3be8:	90800115 	stw	r2,4(r18)
    3bec:	91000015 	stw	r4,0(r18)
    3bf0:	d8c02015 	stw	r3,128(sp)
    3bf4:	dc001f15 	stw	r16,124(sp)
    3bf8:	008001c4 	movi	r2,7
    3bfc:	14014216 	blt	r2,r16,4108 <___vfprintf_internal_r+0x1538>
    3c00:	94800204 	addi	r18,r18,8
    3c04:	dac03a17 	ldw	r11,232(sp)
    3c08:	dd4022c4 	addi	r21,sp,139
    3c0c:	84000044 	addi	r16,r16,1
    3c10:	1ac7883a 	add	r3,r3,r11
    3c14:	95400015 	stw	r21,0(r18)
    3c18:	92c00115 	stw	r11,4(r18)
    3c1c:	d8c02015 	stw	r3,128(sp)
    3c20:	dc001f15 	stw	r16,124(sp)
    3c24:	008001c4 	movi	r2,7
    3c28:	14000e16 	blt	r2,r16,3c64 <___vfprintf_internal_r+0x1094>
    3c2c:	92000204 	addi	r8,r18,8
    3c30:	003dcd06 	br	3368 <__alt_mem_Flash_flash_data+0xf4003368>
    3c34:	010000b4 	movhi	r4,2
    3c38:	2102e784 	addi	r4,r4,2974
    3c3c:	d9002c15 	stw	r4,176(sp)
    3c40:	dac02c17 	ldw	r11,176(sp)
    3c44:	1c07883a 	add	r3,r3,r16
    3c48:	44000115 	stw	r16,4(r8)
    3c4c:	42c00015 	stw	r11,0(r8)
    3c50:	10800044 	addi	r2,r2,1
    3c54:	d8c02015 	stw	r3,128(sp)
    3c58:	d8801f15 	stw	r2,124(sp)
    3c5c:	010001c4 	movi	r4,7
    3c60:	20bdc00e 	bge	r4,r2,3364 <__alt_mem_Flash_flash_data+0xf4003364>
    3c64:	b009883a 	mov	r4,r22
    3c68:	b80b883a 	mov	r5,r23
    3c6c:	d9801e04 	addi	r6,sp,120
    3c70:	000b2080 	call	b208 <__sprint_r>
    3c74:	103cca1e 	bne	r2,zero,2fa0 <__alt_mem_Flash_flash_data+0xf4002fa0>
    3c78:	d8c02017 	ldw	r3,128(sp)
    3c7c:	da000404 	addi	r8,sp,16
    3c80:	003db906 	br	3368 <__alt_mem_Flash_flash_data+0xf4003368>
    3c84:	b009883a 	mov	r4,r22
    3c88:	b80b883a 	mov	r5,r23
    3c8c:	d9801e04 	addi	r6,sp,120
    3c90:	000b2080 	call	b208 <__sprint_r>
    3c94:	103def26 	beq	r2,zero,3454 <__alt_mem_Flash_flash_data+0xf4003454>
    3c98:	003cc106 	br	2fa0 <__alt_mem_Flash_flash_data+0xf4002fa0>
    3c9c:	10803fcc 	andi	r2,r2,255
    3ca0:	1000651e 	bne	r2,zero,3e38 <___vfprintf_internal_r+0x1268>
    3ca4:	8880004c 	andi	r2,r17,1
    3ca8:	10013226 	beq	r2,zero,4174 <___vfprintf_internal_r+0x15a4>
    3cac:	00800c04 	movi	r2,48
    3cb0:	d8c01dc4 	addi	r3,sp,119
    3cb4:	d8801dc5 	stb	r2,119(sp)
    3cb8:	dc803c17 	ldw	r18,240(sp)
    3cbc:	d8c03115 	stw	r3,196(sp)
    3cc0:	003d1106 	br	3108 <__alt_mem_Flash_flash_data+0xf4003108>
    3cc4:	b009883a 	mov	r4,r22
    3cc8:	b80b883a 	mov	r5,r23
    3ccc:	d9801e04 	addi	r6,sp,120
    3cd0:	000b2080 	call	b208 <__sprint_r>
    3cd4:	103cb21e 	bne	r2,zero,2fa0 <__alt_mem_Flash_flash_data+0xf4002fa0>
    3cd8:	d8c02017 	ldw	r3,128(sp)
    3cdc:	da000404 	addi	r8,sp,16
    3ce0:	003d9406 	br	3334 <__alt_mem_Flash_flash_data+0xf4003334>
    3ce4:	b009883a 	mov	r4,r22
    3ce8:	b80b883a 	mov	r5,r23
    3cec:	d9801e04 	addi	r6,sp,120
    3cf0:	000b2080 	call	b208 <__sprint_r>
    3cf4:	103caa1e 	bne	r2,zero,2fa0 <__alt_mem_Flash_flash_data+0xf4002fa0>
    3cf8:	d8c02017 	ldw	r3,128(sp)
    3cfc:	da000404 	addi	r8,sp,16
    3d00:	003d5206 	br	324c <__alt_mem_Flash_flash_data+0xf400324c>
    3d04:	b009883a 	mov	r4,r22
    3d08:	b80b883a 	mov	r5,r23
    3d0c:	d9801e04 	addi	r6,sp,120
    3d10:	000b2080 	call	b208 <__sprint_r>
    3d14:	103ca21e 	bne	r2,zero,2fa0 <__alt_mem_Flash_flash_data+0xf4002fa0>
    3d18:	d8c02017 	ldw	r3,128(sp)
    3d1c:	da000404 	addi	r8,sp,16
    3d20:	003d5806 	br	3284 <__alt_mem_Flash_flash_data+0xf4003284>
    3d24:	d9403b17 	ldw	r5,236(sp)
    3d28:	d8c01e04 	addi	r3,sp,120
    3d2c:	988003cc 	andi	r2,r19,15
    3d30:	e008973a 	slli	r4,fp,28
    3d34:	2885883a 	add	r2,r5,r2
    3d38:	9826d13a 	srli	r19,r19,4
    3d3c:	10800003 	ldbu	r2,0(r2)
    3d40:	e038d13a 	srli	fp,fp,4
    3d44:	18ffffc4 	addi	r3,r3,-1
    3d48:	24e6b03a 	or	r19,r4,r19
    3d4c:	18800005 	stb	r2,0(r3)
    3d50:	9f04b03a 	or	r2,r19,fp
    3d54:	103ff51e 	bne	r2,zero,3d2c <__alt_mem_Flash_flash_data+0xf4003d2c>
    3d58:	db002817 	ldw	r12,160(sp)
    3d5c:	d8c03115 	stw	r3,196(sp)
    3d60:	60e5c83a 	sub	r18,r12,r3
    3d64:	003ce806 	br	3108 <__alt_mem_Flash_flash_data+0xf4003108>
    3d68:	dc002617 	ldw	r16,152(sp)
    3d6c:	0401b10e 	bge	zero,r16,4434 <___vfprintf_internal_r+0x1864>
    3d70:	db003117 	ldw	r12,196(sp)
    3d74:	dac03317 	ldw	r11,204(sp)
    3d78:	62e1883a 	add	r16,r12,r11
    3d7c:	db003417 	ldw	r12,208(sp)
    3d80:	5825883a 	mov	r18,r11
    3d84:	62c0010e 	bge	r12,r11,3d8c <___vfprintf_internal_r+0x11bc>
    3d88:	6025883a 	mov	r18,r12
    3d8c:	04800b0e 	bge	zero,r18,3dbc <___vfprintf_internal_r+0x11ec>
    3d90:	d8801f17 	ldw	r2,124(sp)
    3d94:	dac03117 	ldw	r11,196(sp)
    3d98:	1c87883a 	add	r3,r3,r18
    3d9c:	10800044 	addi	r2,r2,1
    3da0:	42c00015 	stw	r11,0(r8)
    3da4:	44800115 	stw	r18,4(r8)
    3da8:	d8c02015 	stw	r3,128(sp)
    3dac:	d8801f15 	stw	r2,124(sp)
    3db0:	010001c4 	movi	r4,7
    3db4:	20824f16 	blt	r4,r2,46f4 <___vfprintf_internal_r+0x1b24>
    3db8:	42000204 	addi	r8,r8,8
    3dbc:	90024b16 	blt	r18,zero,46ec <___vfprintf_internal_r+0x1b1c>
    3dc0:	db003417 	ldw	r12,208(sp)
    3dc4:	64a5c83a 	sub	r18,r12,r18
    3dc8:	0480730e 	bge	zero,r18,3f98 <___vfprintf_internal_r+0x13c8>
    3dcc:	05400404 	movi	r21,16
    3dd0:	d8801f17 	ldw	r2,124(sp)
    3dd4:	ac817d0e 	bge	r21,r18,43cc <___vfprintf_internal_r+0x17fc>
    3dd8:	014000b4 	movhi	r5,2
    3ddc:	2942e784 	addi	r5,r5,2974
    3de0:	d9402c15 	stw	r5,176(sp)
    3de4:	070001c4 	movi	fp,7
    3de8:	00000306 	br	3df8 <___vfprintf_internal_r+0x1228>
    3dec:	42000204 	addi	r8,r8,8
    3df0:	94bffc04 	addi	r18,r18,-16
    3df4:	ac81780e 	bge	r21,r18,43d8 <___vfprintf_internal_r+0x1808>
    3df8:	18c00404 	addi	r3,r3,16
    3dfc:	10800044 	addi	r2,r2,1
    3e00:	45000015 	stw	r20,0(r8)
    3e04:	45400115 	stw	r21,4(r8)
    3e08:	d8c02015 	stw	r3,128(sp)
    3e0c:	d8801f15 	stw	r2,124(sp)
    3e10:	e0bff60e 	bge	fp,r2,3dec <__alt_mem_Flash_flash_data+0xf4003dec>
    3e14:	b009883a 	mov	r4,r22
    3e18:	b80b883a 	mov	r5,r23
    3e1c:	d9801e04 	addi	r6,sp,120
    3e20:	000b2080 	call	b208 <__sprint_r>
    3e24:	103c5e1e 	bne	r2,zero,2fa0 <__alt_mem_Flash_flash_data+0xf4002fa0>
    3e28:	d8c02017 	ldw	r3,128(sp)
    3e2c:	d8801f17 	ldw	r2,124(sp)
    3e30:	da000404 	addi	r8,sp,16
    3e34:	003fee06 	br	3df0 <__alt_mem_Flash_flash_data+0xf4003df0>
    3e38:	dac01e04 	addi	r11,sp,120
    3e3c:	0025883a 	mov	r18,zero
    3e40:	dac03115 	stw	r11,196(sp)
    3e44:	003cb006 	br	3108 <__alt_mem_Flash_flash_data+0xf4003108>
    3e48:	b009883a 	mov	r4,r22
    3e4c:	b80b883a 	mov	r5,r23
    3e50:	d9801e04 	addi	r6,sp,120
    3e54:	000b2080 	call	b208 <__sprint_r>
    3e58:	103c511e 	bne	r2,zero,2fa0 <__alt_mem_Flash_flash_data+0xf4002fa0>
    3e5c:	d8c02017 	ldw	r3,128(sp)
    3e60:	d8802787 	ldb	r2,158(sp)
    3e64:	da000404 	addi	r8,sp,16
    3e68:	003ceb06 	br	3218 <__alt_mem_Flash_flash_data+0xf4003218>
    3e6c:	1cc00017 	ldw	r19,0(r3)
    3e70:	dac02d17 	ldw	r11,180(sp)
    3e74:	9839d7fa 	srai	fp,r19,31
    3e78:	5ac00104 	addi	r11,r11,4
    3e7c:	dac02d15 	stw	r11,180(sp)
    3e80:	e005883a 	mov	r2,fp
    3e84:	003c8106 	br	308c <__alt_mem_Flash_flash_data+0xf400308c>
    3e88:	657fffc4 	addi	r21,r12,-1
    3e8c:	057f5d0e 	bge	zero,r21,3c04 <__alt_mem_Flash_flash_data+0xf4003c04>
    3e90:	07000404 	movi	fp,16
    3e94:	e540900e 	bge	fp,r21,40d8 <___vfprintf_internal_r+0x1508>
    3e98:	010000b4 	movhi	r4,2
    3e9c:	2102e784 	addi	r4,r4,2974
    3ea0:	d9002c15 	stw	r4,176(sp)
    3ea4:	01c001c4 	movi	r7,7
    3ea8:	00000306 	br	3eb8 <___vfprintf_internal_r+0x12e8>
    3eac:	94800204 	addi	r18,r18,8
    3eb0:	ad7ffc04 	addi	r21,r21,-16
    3eb4:	e5408b0e 	bge	fp,r21,40e4 <___vfprintf_internal_r+0x1514>
    3eb8:	18c00404 	addi	r3,r3,16
    3ebc:	84000044 	addi	r16,r16,1
    3ec0:	95000015 	stw	r20,0(r18)
    3ec4:	97000115 	stw	fp,4(r18)
    3ec8:	d8c02015 	stw	r3,128(sp)
    3ecc:	dc001f15 	stw	r16,124(sp)
    3ed0:	3c3ff60e 	bge	r7,r16,3eac <__alt_mem_Flash_flash_data+0xf4003eac>
    3ed4:	b009883a 	mov	r4,r22
    3ed8:	b80b883a 	mov	r5,r23
    3edc:	d9801e04 	addi	r6,sp,120
    3ee0:	d9c03d15 	stw	r7,244(sp)
    3ee4:	000b2080 	call	b208 <__sprint_r>
    3ee8:	d9c03d17 	ldw	r7,244(sp)
    3eec:	103c2c1e 	bne	r2,zero,2fa0 <__alt_mem_Flash_flash_data+0xf4002fa0>
    3ef0:	d8c02017 	ldw	r3,128(sp)
    3ef4:	dc001f17 	ldw	r16,124(sp)
    3ef8:	dc800404 	addi	r18,sp,16
    3efc:	003fec06 	br	3eb0 <__alt_mem_Flash_flash_data+0xf4003eb0>
    3f00:	dac02d17 	ldw	r11,180(sp)
    3f04:	0039883a 	mov	fp,zero
    3f08:	0005883a 	mov	r2,zero
    3f0c:	5cc00017 	ldw	r19,0(r11)
    3f10:	5ac00104 	addi	r11,r11,4
    3f14:	dac02d15 	stw	r11,180(sp)
    3f18:	9807883a 	mov	r3,r19
    3f1c:	003d5b06 	br	348c <__alt_mem_Flash_flash_data+0xf400348c>
    3f20:	db002d17 	ldw	r12,180(sp)
    3f24:	0039883a 	mov	fp,zero
    3f28:	00800044 	movi	r2,1
    3f2c:	64c00017 	ldw	r19,0(r12)
    3f30:	63000104 	addi	r12,r12,4
    3f34:	db002d15 	stw	r12,180(sp)
    3f38:	9807883a 	mov	r3,r19
    3f3c:	003d5306 	br	348c <__alt_mem_Flash_flash_data+0xf400348c>
    3f40:	00800084 	movi	r2,2
    3f44:	9f06b03a 	or	r3,r19,fp
    3f48:	003d5006 	br	348c <__alt_mem_Flash_flash_data+0xf400348c>
    3f4c:	10803fcc 	andi	r2,r2,255
    3f50:	1080201c 	xori	r2,r2,128
    3f54:	10bfe004 	addi	r2,r2,-128
    3f58:	01000c04 	movi	r4,48
    3f5c:	1101a526 	beq	r2,r4,45f4 <___vfprintf_internal_r+0x1a24>
    3f60:	dac03117 	ldw	r11,196(sp)
    3f64:	db002817 	ldw	r12,160(sp)
    3f68:	193fffc5 	stb	r4,-1(r3)
    3f6c:	5affffc4 	addi	r11,r11,-1
    3f70:	dac03115 	stw	r11,196(sp)
    3f74:	62e5c83a 	sub	r18,r12,r11
    3f78:	003c6306 	br	3108 <__alt_mem_Flash_flash_data+0xf4003108>
    3f7c:	b009883a 	mov	r4,r22
    3f80:	b80b883a 	mov	r5,r23
    3f84:	d9801e04 	addi	r6,sp,120
    3f88:	000b2080 	call	b208 <__sprint_r>
    3f8c:	103c041e 	bne	r2,zero,2fa0 <__alt_mem_Flash_flash_data+0xf4002fa0>
    3f90:	d8c02017 	ldw	r3,128(sp)
    3f94:	da000404 	addi	r8,sp,16
    3f98:	db003117 	ldw	r12,196(sp)
    3f9c:	dac03417 	ldw	r11,208(sp)
    3fa0:	d8802617 	ldw	r2,152(sp)
    3fa4:	62e5883a 	add	r18,r12,r11
    3fa8:	db003317 	ldw	r12,204(sp)
    3fac:	13000216 	blt	r2,r12,3fb8 <___vfprintf_internal_r+0x13e8>
    3fb0:	8900004c 	andi	r4,r17,1
    3fb4:	20000c26 	beq	r4,zero,3fe8 <___vfprintf_internal_r+0x1418>
    3fb8:	dac03817 	ldw	r11,224(sp)
    3fbc:	d9001f17 	ldw	r4,124(sp)
    3fc0:	db003517 	ldw	r12,212(sp)
    3fc4:	1ac7883a 	add	r3,r3,r11
    3fc8:	21000044 	addi	r4,r4,1
    3fcc:	43000015 	stw	r12,0(r8)
    3fd0:	42c00115 	stw	r11,4(r8)
    3fd4:	d8c02015 	stw	r3,128(sp)
    3fd8:	d9001f15 	stw	r4,124(sp)
    3fdc:	014001c4 	movi	r5,7
    3fe0:	2901cc16 	blt	r5,r4,4714 <___vfprintf_internal_r+0x1b44>
    3fe4:	42000204 	addi	r8,r8,8
    3fe8:	dac03317 	ldw	r11,204(sp)
    3fec:	8489c83a 	sub	r4,r16,r18
    3ff0:	5885c83a 	sub	r2,r11,r2
    3ff4:	1021883a 	mov	r16,r2
    3ff8:	2080010e 	bge	r4,r2,4000 <___vfprintf_internal_r+0x1430>
    3ffc:	2021883a 	mov	r16,r4
    4000:	04000a0e 	bge	zero,r16,402c <___vfprintf_internal_r+0x145c>
    4004:	d9001f17 	ldw	r4,124(sp)
    4008:	1c07883a 	add	r3,r3,r16
    400c:	44800015 	stw	r18,0(r8)
    4010:	21000044 	addi	r4,r4,1
    4014:	44000115 	stw	r16,4(r8)
    4018:	d8c02015 	stw	r3,128(sp)
    401c:	d9001f15 	stw	r4,124(sp)
    4020:	014001c4 	movi	r5,7
    4024:	2901e316 	blt	r5,r4,47b4 <___vfprintf_internal_r+0x1be4>
    4028:	42000204 	addi	r8,r8,8
    402c:	8001df16 	blt	r16,zero,47ac <___vfprintf_internal_r+0x1bdc>
    4030:	1421c83a 	sub	r16,r2,r16
    4034:	043ccc0e 	bge	zero,r16,3368 <__alt_mem_Flash_flash_data+0xf4003368>
    4038:	04800404 	movi	r18,16
    403c:	d8801f17 	ldw	r2,124(sp)
    4040:	943efc0e 	bge	r18,r16,3c34 <__alt_mem_Flash_flash_data+0xf4003c34>
    4044:	014000b4 	movhi	r5,2
    4048:	2942e784 	addi	r5,r5,2974
    404c:	d9402c15 	stw	r5,176(sp)
    4050:	054001c4 	movi	r21,7
    4054:	00000306 	br	4064 <___vfprintf_internal_r+0x1494>
    4058:	42000204 	addi	r8,r8,8
    405c:	843ffc04 	addi	r16,r16,-16
    4060:	943ef70e 	bge	r18,r16,3c40 <__alt_mem_Flash_flash_data+0xf4003c40>
    4064:	18c00404 	addi	r3,r3,16
    4068:	10800044 	addi	r2,r2,1
    406c:	45000015 	stw	r20,0(r8)
    4070:	44800115 	stw	r18,4(r8)
    4074:	d8c02015 	stw	r3,128(sp)
    4078:	d8801f15 	stw	r2,124(sp)
    407c:	a8bff60e 	bge	r21,r2,4058 <__alt_mem_Flash_flash_data+0xf4004058>
    4080:	b009883a 	mov	r4,r22
    4084:	b80b883a 	mov	r5,r23
    4088:	d9801e04 	addi	r6,sp,120
    408c:	000b2080 	call	b208 <__sprint_r>
    4090:	103bc31e 	bne	r2,zero,2fa0 <__alt_mem_Flash_flash_data+0xf4002fa0>
    4094:	d8c02017 	ldw	r3,128(sp)
    4098:	d8801f17 	ldw	r2,124(sp)
    409c:	da000404 	addi	r8,sp,16
    40a0:	003fee06 	br	405c <__alt_mem_Flash_flash_data+0xf400405c>
    40a4:	8888703a 	and	r4,r17,r2
    40a8:	203eab1e 	bne	r4,zero,3b58 <__alt_mem_Flash_flash_data+0xf4003b58>
    40ac:	dc001f17 	ldw	r16,124(sp)
    40b0:	db003117 	ldw	r12,196(sp)
    40b4:	40800115 	stw	r2,4(r8)
    40b8:	84000044 	addi	r16,r16,1
    40bc:	43000015 	stw	r12,0(r8)
    40c0:	d8c02015 	stw	r3,128(sp)
    40c4:	dc001f15 	stw	r16,124(sp)
    40c8:	008001c4 	movi	r2,7
    40cc:	14000e16 	blt	r2,r16,4108 <___vfprintf_internal_r+0x1538>
    40d0:	44800204 	addi	r18,r8,8
    40d4:	003ecb06 	br	3c04 <__alt_mem_Flash_flash_data+0xf4003c04>
    40d8:	008000b4 	movhi	r2,2
    40dc:	1082e784 	addi	r2,r2,2974
    40e0:	d8802c15 	stw	r2,176(sp)
    40e4:	dac02c17 	ldw	r11,176(sp)
    40e8:	1d47883a 	add	r3,r3,r21
    40ec:	84000044 	addi	r16,r16,1
    40f0:	92c00015 	stw	r11,0(r18)
    40f4:	95400115 	stw	r21,4(r18)
    40f8:	d8c02015 	stw	r3,128(sp)
    40fc:	dc001f15 	stw	r16,124(sp)
    4100:	008001c4 	movi	r2,7
    4104:	143ebe0e 	bge	r2,r16,3c00 <__alt_mem_Flash_flash_data+0xf4003c00>
    4108:	b009883a 	mov	r4,r22
    410c:	b80b883a 	mov	r5,r23
    4110:	d9801e04 	addi	r6,sp,120
    4114:	000b2080 	call	b208 <__sprint_r>
    4118:	103ba11e 	bne	r2,zero,2fa0 <__alt_mem_Flash_flash_data+0xf4002fa0>
    411c:	d8c02017 	ldw	r3,128(sp)
    4120:	dc001f17 	ldw	r16,124(sp)
    4124:	dc800404 	addi	r18,sp,16
    4128:	003eb606 	br	3c04 <__alt_mem_Flash_flash_data+0xf4003c04>
    412c:	b009883a 	mov	r4,r22
    4130:	b80b883a 	mov	r5,r23
    4134:	d9801e04 	addi	r6,sp,120
    4138:	000b2080 	call	b208 <__sprint_r>
    413c:	103b981e 	bne	r2,zero,2fa0 <__alt_mem_Flash_flash_data+0xf4002fa0>
    4140:	d8c02017 	ldw	r3,128(sp)
    4144:	dc001f17 	ldw	r16,124(sp)
    4148:	da000404 	addi	r8,sp,16
    414c:	003e8d06 	br	3b84 <__alt_mem_Flash_flash_data+0xf4003b84>
    4150:	b009883a 	mov	r4,r22
    4154:	b80b883a 	mov	r5,r23
    4158:	d9801e04 	addi	r6,sp,120
    415c:	000b2080 	call	b208 <__sprint_r>
    4160:	103b8f1e 	bne	r2,zero,2fa0 <__alt_mem_Flash_flash_data+0xf4002fa0>
    4164:	d8c02017 	ldw	r3,128(sp)
    4168:	dc001f17 	ldw	r16,124(sp)
    416c:	dc800404 	addi	r18,sp,16
    4170:	003e8f06 	br	3bb0 <__alt_mem_Flash_flash_data+0xf4003bb0>
    4174:	db001e04 	addi	r12,sp,120
    4178:	0025883a 	mov	r18,zero
    417c:	db003115 	stw	r12,196(sp)
    4180:	003be106 	br	3108 <__alt_mem_Flash_flash_data+0xf4003108>
    4184:	b009883a 	mov	r4,r22
    4188:	b80b883a 	mov	r5,r23
    418c:	d9801e04 	addi	r6,sp,120
    4190:	000b2080 	call	b208 <__sprint_r>
    4194:	103b821e 	bne	r2,zero,2fa0 <__alt_mem_Flash_flash_data+0xf4002fa0>
    4198:	d8c02017 	ldw	r3,128(sp)
    419c:	da000404 	addi	r8,sp,16
    41a0:	003c3b06 	br	3290 <__alt_mem_Flash_flash_data+0xf4003290>
    41a4:	04e7c83a 	sub	r19,zero,r19
    41a8:	9804c03a 	cmpne	r2,r19,zero
    41ac:	0739c83a 	sub	fp,zero,fp
    41b0:	e0b9c83a 	sub	fp,fp,r2
    41b4:	05400b44 	movi	r21,45
    41b8:	dd402785 	stb	r21,158(sp)
    41bc:	da403215 	stw	r9,200(sp)
    41c0:	00800044 	movi	r2,1
    41c4:	9f06b03a 	or	r3,r19,fp
    41c8:	003bb506 	br	30a0 <__alt_mem_Flash_flash_data+0xf40030a0>
    41cc:	da003f15 	stw	r8,252(sp)
    41d0:	da403e15 	stw	r9,248(sp)
    41d4:	0009c600 	call	9c60 <__fpclassifyd>
    41d8:	da003f17 	ldw	r8,252(sp)
    41dc:	da403e17 	ldw	r9,248(sp)
    41e0:	1000ce26 	beq	r2,zero,451c <___vfprintf_internal_r+0x194c>
    41e4:	057ff7c4 	movi	r21,-33
    41e8:	00bfffc4 	movi	r2,-1
    41ec:	856a703a 	and	r21,r16,r21
    41f0:	4881e826 	beq	r9,r2,4994 <___vfprintf_internal_r+0x1dc4>
    41f4:	008011c4 	movi	r2,71
    41f8:	a881e326 	beq	r21,r2,4988 <___vfprintf_internal_r+0x1db8>
    41fc:	db003917 	ldw	r12,228(sp)
    4200:	8ac04014 	ori	r11,r17,256
    4204:	dac02d15 	stw	r11,180(sp)
    4208:	6001ed16 	blt	r12,zero,49c0 <___vfprintf_internal_r+0x1df0>
    420c:	dc803917 	ldw	r18,228(sp)
    4210:	d8002b05 	stb	zero,172(sp)
    4214:	00801984 	movi	r2,102
    4218:	80811826 	beq	r16,r2,467c <___vfprintf_internal_r+0x1aac>
    421c:	00801184 	movi	r2,70
    4220:	80811626 	beq	r16,r2,467c <___vfprintf_internal_r+0x1aac>
    4224:	00801144 	movi	r2,69
    4228:	a881e926 	beq	r21,r2,49d0 <___vfprintf_internal_r+0x1e00>
    422c:	4839883a 	mov	fp,r9
    4230:	d8802604 	addi	r2,sp,152
    4234:	d8800115 	stw	r2,4(sp)
    4238:	d9403717 	ldw	r5,220(sp)
    423c:	d8802504 	addi	r2,sp,148
    4240:	d8800215 	stw	r2,8(sp)
    4244:	d8802104 	addi	r2,sp,132
    4248:	df000015 	stw	fp,0(sp)
    424c:	d8800315 	stw	r2,12(sp)
    4250:	b009883a 	mov	r4,r22
    4254:	900d883a 	mov	r6,r18
    4258:	01c00084 	movi	r7,2
    425c:	da003f15 	stw	r8,252(sp)
    4260:	da403e15 	stw	r9,248(sp)
    4264:	0004f540 	call	4f54 <_dtoa_r>
    4268:	d8803115 	stw	r2,196(sp)
    426c:	008019c4 	movi	r2,103
    4270:	da003f17 	ldw	r8,252(sp)
    4274:	da403e17 	ldw	r9,248(sp)
    4278:	80800226 	beq	r16,r2,4284 <___vfprintf_internal_r+0x16b4>
    427c:	008011c4 	movi	r2,71
    4280:	8081101e 	bne	r16,r2,46c4 <___vfprintf_internal_r+0x1af4>
    4284:	8880004c 	andi	r2,r17,1
    4288:	1001dd26 	beq	r2,zero,4a00 <___vfprintf_internal_r+0x1e30>
    428c:	db003117 	ldw	r12,196(sp)
    4290:	6715883a 	add	r10,r12,fp
    4294:	d9003717 	ldw	r4,220(sp)
    4298:	900b883a 	mov	r5,r18
    429c:	000d883a 	mov	r6,zero
    42a0:	000f883a 	mov	r7,zero
    42a4:	da003f15 	stw	r8,252(sp)
    42a8:	da403e15 	stw	r9,248(sp)
    42ac:	da803d15 	stw	r10,244(sp)
    42b0:	000ecac0 	call	ecac <__eqdf2>
    42b4:	da003f17 	ldw	r8,252(sp)
    42b8:	da403e17 	ldw	r9,248(sp)
    42bc:	da803d17 	ldw	r10,244(sp)
    42c0:	10016526 	beq	r2,zero,4858 <___vfprintf_internal_r+0x1c88>
    42c4:	d8802117 	ldw	r2,132(sp)
    42c8:	1280062e 	bgeu	r2,r10,42e4 <___vfprintf_internal_r+0x1714>
    42cc:	01000c04 	movi	r4,48
    42d0:	10c00044 	addi	r3,r2,1
    42d4:	d8c02115 	stw	r3,132(sp)
    42d8:	11000005 	stb	r4,0(r2)
    42dc:	d8802117 	ldw	r2,132(sp)
    42e0:	12bffb36 	bltu	r2,r10,42d0 <__alt_mem_Flash_flash_data+0xf40042d0>
    42e4:	db003117 	ldw	r12,196(sp)
    42e8:	1305c83a 	sub	r2,r2,r12
    42ec:	d8803315 	stw	r2,204(sp)
    42f0:	008011c4 	movi	r2,71
    42f4:	a8814d26 	beq	r21,r2,482c <___vfprintf_internal_r+0x1c5c>
    42f8:	00801944 	movi	r2,101
    42fc:	1402060e 	bge	r2,r16,4b18 <___vfprintf_internal_r+0x1f48>
    4300:	00801984 	movi	r2,102
    4304:	8081b426 	beq	r16,r2,49d8 <___vfprintf_internal_r+0x1e08>
    4308:	db002617 	ldw	r12,152(sp)
    430c:	db003415 	stw	r12,208(sp)
    4310:	db003417 	ldw	r12,208(sp)
    4314:	dac03317 	ldw	r11,204(sp)
    4318:	62c1a016 	blt	r12,r11,499c <___vfprintf_internal_r+0x1dcc>
    431c:	8c40004c 	andi	r17,r17,1
    4320:	8801bf1e 	bne	r17,zero,4a20 <___vfprintf_internal_r+0x1e50>
    4324:	6005883a 	mov	r2,r12
    4328:	6001b316 	blt	r12,zero,49f8 <___vfprintf_internal_r+0x1e28>
    432c:	dc803417 	ldw	r18,208(sp)
    4330:	df002b07 	ldb	fp,172(sp)
    4334:	e0012e1e 	bne	fp,zero,47f0 <___vfprintf_internal_r+0x1c20>
    4338:	dc402d17 	ldw	r17,180(sp)
    433c:	dd402783 	ldbu	r21,158(sp)
    4340:	d8802b15 	stw	r2,172(sp)
    4344:	dcc02d15 	stw	r19,180(sp)
    4348:	d8003215 	stw	zero,200(sp)
    434c:	003b7306 	br	311c <__alt_mem_Flash_flash_data+0xf400311c>
    4350:	00800084 	movi	r2,2
    4354:	003c4d06 	br	348c <__alt_mem_Flash_flash_data+0xf400348c>
    4358:	8880040c 	andi	r2,r17,16
    435c:	1000091e 	bne	r2,zero,4384 <___vfprintf_internal_r+0x17b4>
    4360:	8c40100c 	andi	r17,r17,64
    4364:	88000726 	beq	r17,zero,4384 <___vfprintf_internal_r+0x17b4>
    4368:	db002d17 	ldw	r12,180(sp)
    436c:	dac02f17 	ldw	r11,188(sp)
    4370:	60800017 	ldw	r2,0(r12)
    4374:	63000104 	addi	r12,r12,4
    4378:	db002d15 	stw	r12,180(sp)
    437c:	12c0000d 	sth	r11,0(r2)
    4380:	003a4e06 	br	2cbc <__alt_mem_Flash_flash_data+0xf4002cbc>
    4384:	db002d17 	ldw	r12,180(sp)
    4388:	dac02f17 	ldw	r11,188(sp)
    438c:	60800017 	ldw	r2,0(r12)
    4390:	63000104 	addi	r12,r12,4
    4394:	db002d15 	stw	r12,180(sp)
    4398:	12c00015 	stw	r11,0(r2)
    439c:	003a4706 	br	2cbc <__alt_mem_Flash_flash_data+0xf4002cbc>
    43a0:	1c000007 	ldb	r16,0(r3)
    43a4:	1805883a 	mov	r2,r3
    43a8:	003a6e06 	br	2d64 <__alt_mem_Flash_flash_data+0xf4002d64>
    43ac:	88c0100c 	andi	r3,r17,64
    43b0:	18006b26 	beq	r3,zero,4560 <___vfprintf_internal_r+0x1990>
    43b4:	dac02d17 	ldw	r11,180(sp)
    43b8:	14c0000b 	ldhu	r19,0(r2)
    43bc:	0039883a 	mov	fp,zero
    43c0:	5ac00104 	addi	r11,r11,4
    43c4:	dac02d15 	stw	r11,180(sp)
    43c8:	003cb206 	br	3694 <__alt_mem_Flash_flash_data+0xf4003694>
    43cc:	010000b4 	movhi	r4,2
    43d0:	2102e784 	addi	r4,r4,2974
    43d4:	d9002c15 	stw	r4,176(sp)
    43d8:	dac02c17 	ldw	r11,176(sp)
    43dc:	1c87883a 	add	r3,r3,r18
    43e0:	10800044 	addi	r2,r2,1
    43e4:	42c00015 	stw	r11,0(r8)
    43e8:	44800115 	stw	r18,4(r8)
    43ec:	d8c02015 	stw	r3,128(sp)
    43f0:	d8801f15 	stw	r2,124(sp)
    43f4:	010001c4 	movi	r4,7
    43f8:	20bee016 	blt	r4,r2,3f7c <__alt_mem_Flash_flash_data+0xf4003f7c>
    43fc:	42000204 	addi	r8,r8,8
    4400:	003ee506 	br	3f98 <__alt_mem_Flash_flash_data+0xf4003f98>
    4404:	010000b4 	movhi	r4,2
    4408:	2102e784 	addi	r4,r4,2974
    440c:	d9002c15 	stw	r4,176(sp)
    4410:	003bbe06 	br	330c <__alt_mem_Flash_flash_data+0xf400330c>
    4414:	b009883a 	mov	r4,r22
    4418:	b80b883a 	mov	r5,r23
    441c:	d9801e04 	addi	r6,sp,120
    4420:	000b2080 	call	b208 <__sprint_r>
    4424:	103ade1e 	bne	r2,zero,2fa0 <__alt_mem_Flash_flash_data+0xf4002fa0>
    4428:	d8c02017 	ldw	r3,128(sp)
    442c:	da000404 	addi	r8,sp,16
    4430:	003d6b06 	br	39e0 <__alt_mem_Flash_flash_data+0xf40039e0>
    4434:	d8801f17 	ldw	r2,124(sp)
    4438:	030000b4 	movhi	r12,2
    443c:	01000044 	movi	r4,1
    4440:	18c00044 	addi	r3,r3,1
    4444:	10800044 	addi	r2,r2,1
    4448:	6302df04 	addi	r12,r12,2940
    444c:	41000115 	stw	r4,4(r8)
    4450:	43000015 	stw	r12,0(r8)
    4454:	d8c02015 	stw	r3,128(sp)
    4458:	d8801f15 	stw	r2,124(sp)
    445c:	010001c4 	movi	r4,7
    4460:	20804916 	blt	r4,r2,4588 <___vfprintf_internal_r+0x19b8>
    4464:	42000204 	addi	r8,r8,8
    4468:	8000041e 	bne	r16,zero,447c <___vfprintf_internal_r+0x18ac>
    446c:	dac03317 	ldw	r11,204(sp)
    4470:	5800021e 	bne	r11,zero,447c <___vfprintf_internal_r+0x18ac>
    4474:	8880004c 	andi	r2,r17,1
    4478:	103bbb26 	beq	r2,zero,3368 <__alt_mem_Flash_flash_data+0xf4003368>
    447c:	db003817 	ldw	r12,224(sp)
    4480:	d8801f17 	ldw	r2,124(sp)
    4484:	dac03517 	ldw	r11,212(sp)
    4488:	1b07883a 	add	r3,r3,r12
    448c:	10800044 	addi	r2,r2,1
    4490:	42c00015 	stw	r11,0(r8)
    4494:	43000115 	stw	r12,4(r8)
    4498:	d8c02015 	stw	r3,128(sp)
    449c:	d8801f15 	stw	r2,124(sp)
    44a0:	010001c4 	movi	r4,7
    44a4:	20812e16 	blt	r4,r2,4960 <___vfprintf_internal_r+0x1d90>
    44a8:	42000204 	addi	r8,r8,8
    44ac:	0421c83a 	sub	r16,zero,r16
    44b0:	04005c0e 	bge	zero,r16,4624 <___vfprintf_internal_r+0x1a54>
    44b4:	04800404 	movi	r18,16
    44b8:	94009f0e 	bge	r18,r16,4738 <___vfprintf_internal_r+0x1b68>
    44bc:	010000b4 	movhi	r4,2
    44c0:	2102e784 	addi	r4,r4,2974
    44c4:	d9002c15 	stw	r4,176(sp)
    44c8:	054001c4 	movi	r21,7
    44cc:	00000306 	br	44dc <___vfprintf_internal_r+0x190c>
    44d0:	42000204 	addi	r8,r8,8
    44d4:	843ffc04 	addi	r16,r16,-16
    44d8:	94009a0e 	bge	r18,r16,4744 <___vfprintf_internal_r+0x1b74>
    44dc:	18c00404 	addi	r3,r3,16
    44e0:	10800044 	addi	r2,r2,1
    44e4:	45000015 	stw	r20,0(r8)
    44e8:	44800115 	stw	r18,4(r8)
    44ec:	d8c02015 	stw	r3,128(sp)
    44f0:	d8801f15 	stw	r2,124(sp)
    44f4:	a8bff60e 	bge	r21,r2,44d0 <__alt_mem_Flash_flash_data+0xf40044d0>
    44f8:	b009883a 	mov	r4,r22
    44fc:	b80b883a 	mov	r5,r23
    4500:	d9801e04 	addi	r6,sp,120
    4504:	000b2080 	call	b208 <__sprint_r>
    4508:	103aa51e 	bne	r2,zero,2fa0 <__alt_mem_Flash_flash_data+0xf4002fa0>
    450c:	d8c02017 	ldw	r3,128(sp)
    4510:	d8801f17 	ldw	r2,124(sp)
    4514:	da000404 	addi	r8,sp,16
    4518:	003fee06 	br	44d4 <__alt_mem_Flash_flash_data+0xf40044d4>
    451c:	008011c4 	movi	r2,71
    4520:	1400be16 	blt	r2,r16,481c <___vfprintf_internal_r+0x1c4c>
    4524:	030000b4 	movhi	r12,2
    4528:	6302d104 	addi	r12,r12,2884
    452c:	db003115 	stw	r12,196(sp)
    4530:	00c000c4 	movi	r3,3
    4534:	00bfdfc4 	movi	r2,-129
    4538:	d8c02b15 	stw	r3,172(sp)
    453c:	88a2703a 	and	r17,r17,r2
    4540:	dd402783 	ldbu	r21,158(sp)
    4544:	dcc02d15 	stw	r19,180(sp)
    4548:	1825883a 	mov	r18,r3
    454c:	d8003215 	stw	zero,200(sp)
    4550:	d8003415 	stw	zero,208(sp)
    4554:	003af106 	br	311c <__alt_mem_Flash_flash_data+0xf400311c>
    4558:	4825883a 	mov	r18,r9
    455c:	003c9306 	br	37ac <__alt_mem_Flash_flash_data+0xf40037ac>
    4560:	db002d17 	ldw	r12,180(sp)
    4564:	14c00017 	ldw	r19,0(r2)
    4568:	0039883a 	mov	fp,zero
    456c:	63000104 	addi	r12,r12,4
    4570:	db002d15 	stw	r12,180(sp)
    4574:	003c4706 	br	3694 <__alt_mem_Flash_flash_data+0xf4003694>
    4578:	008000b4 	movhi	r2,2
    457c:	1082cf04 	addi	r2,r2,2876
    4580:	d8803115 	stw	r2,196(sp)
    4584:	003bf106 	br	354c <__alt_mem_Flash_flash_data+0xf400354c>
    4588:	b009883a 	mov	r4,r22
    458c:	b80b883a 	mov	r5,r23
    4590:	d9801e04 	addi	r6,sp,120
    4594:	000b2080 	call	b208 <__sprint_r>
    4598:	103a811e 	bne	r2,zero,2fa0 <__alt_mem_Flash_flash_data+0xf4002fa0>
    459c:	dc002617 	ldw	r16,152(sp)
    45a0:	d8c02017 	ldw	r3,128(sp)
    45a4:	da000404 	addi	r8,sp,16
    45a8:	003faf06 	br	4468 <__alt_mem_Flash_flash_data+0xf4004468>
    45ac:	db002e17 	ldw	r12,184(sp)
    45b0:	1805883a 	mov	r2,r3
    45b4:	dac02d15 	stw	r11,180(sp)
    45b8:	0319c83a 	sub	r12,zero,r12
    45bc:	db002e15 	stw	r12,184(sp)
    45c0:	003a8206 	br	2fcc <__alt_mem_Flash_flash_data+0xf4002fcc>
    45c4:	18800044 	addi	r2,r3,1
    45c8:	8c400814 	ori	r17,r17,32
    45cc:	1c000047 	ldb	r16,1(r3)
    45d0:	0039e406 	br	2d64 <__alt_mem_Flash_flash_data+0xf4002d64>
    45d4:	b009883a 	mov	r4,r22
    45d8:	b80b883a 	mov	r5,r23
    45dc:	d9801e04 	addi	r6,sp,120
    45e0:	000b2080 	call	b208 <__sprint_r>
    45e4:	103a6e1e 	bne	r2,zero,2fa0 <__alt_mem_Flash_flash_data+0xf4002fa0>
    45e8:	d8c02017 	ldw	r3,128(sp)
    45ec:	da000404 	addi	r8,sp,16
    45f0:	003d0c06 	br	3a24 <__alt_mem_Flash_flash_data+0xf4003a24>
    45f4:	db002817 	ldw	r12,160(sp)
    45f8:	d8c03117 	ldw	r3,196(sp)
    45fc:	60e5c83a 	sub	r18,r12,r3
    4600:	003ac106 	br	3108 <__alt_mem_Flash_flash_data+0xf4003108>
    4604:	b009883a 	mov	r4,r22
    4608:	b80b883a 	mov	r5,r23
    460c:	d9801e04 	addi	r6,sp,120
    4610:	000b2080 	call	b208 <__sprint_r>
    4614:	103a621e 	bne	r2,zero,2fa0 <__alt_mem_Flash_flash_data+0xf4002fa0>
    4618:	d8c02017 	ldw	r3,128(sp)
    461c:	d8801f17 	ldw	r2,124(sp)
    4620:	da000404 	addi	r8,sp,16
    4624:	db003317 	ldw	r12,204(sp)
    4628:	dac03117 	ldw	r11,196(sp)
    462c:	10800044 	addi	r2,r2,1
    4630:	1b07883a 	add	r3,r3,r12
    4634:	42c00015 	stw	r11,0(r8)
    4638:	43000115 	stw	r12,4(r8)
    463c:	d8c02015 	stw	r3,128(sp)
    4640:	d8801f15 	stw	r2,124(sp)
    4644:	010001c4 	movi	r4,7
    4648:	20bb460e 	bge	r4,r2,3364 <__alt_mem_Flash_flash_data+0xf4003364>
    464c:	003d8506 	br	3c64 <__alt_mem_Flash_flash_data+0xf4003c64>
    4650:	da003f15 	stw	r8,252(sp)
    4654:	0000ba80 	call	ba8 <strlen>
    4658:	1025883a 	mov	r18,r2
    465c:	da003f17 	ldw	r8,252(sp)
    4660:	903c540e 	bge	r18,zero,37b4 <__alt_mem_Flash_flash_data+0xf40037b4>
    4664:	0005883a 	mov	r2,zero
    4668:	003c5206 	br	37b4 <__alt_mem_Flash_flash_data+0xf40037b4>
    466c:	010000b4 	movhi	r4,2
    4670:	2102eb84 	addi	r4,r4,2990
    4674:	d9003615 	stw	r4,216(sp)
    4678:	003adc06 	br	31ec <__alt_mem_Flash_flash_data+0xf40031ec>
    467c:	d8802604 	addi	r2,sp,152
    4680:	d8800115 	stw	r2,4(sp)
    4684:	d9403717 	ldw	r5,220(sp)
    4688:	d8802504 	addi	r2,sp,148
    468c:	d8800215 	stw	r2,8(sp)
    4690:	d8802104 	addi	r2,sp,132
    4694:	da400015 	stw	r9,0(sp)
    4698:	d8800315 	stw	r2,12(sp)
    469c:	b009883a 	mov	r4,r22
    46a0:	900d883a 	mov	r6,r18
    46a4:	01c000c4 	movi	r7,3
    46a8:	da003f15 	stw	r8,252(sp)
    46ac:	da403e15 	stw	r9,248(sp)
    46b0:	0004f540 	call	4f54 <_dtoa_r>
    46b4:	da403e17 	ldw	r9,248(sp)
    46b8:	da003f17 	ldw	r8,252(sp)
    46bc:	d8803115 	stw	r2,196(sp)
    46c0:	4839883a 	mov	fp,r9
    46c4:	dac03117 	ldw	r11,196(sp)
    46c8:	00801184 	movi	r2,70
    46cc:	5f15883a 	add	r10,r11,fp
    46d0:	a8bef01e 	bne	r21,r2,4294 <__alt_mem_Flash_flash_data+0xf4004294>
    46d4:	59000007 	ldb	r4,0(r11)
    46d8:	00800c04 	movi	r2,48
    46dc:	2080d526 	beq	r4,r2,4a34 <___vfprintf_internal_r+0x1e64>
    46e0:	d8c02617 	ldw	r3,152(sp)
    46e4:	50d5883a 	add	r10,r10,r3
    46e8:	003eea06 	br	4294 <__alt_mem_Flash_flash_data+0xf4004294>
    46ec:	0025883a 	mov	r18,zero
    46f0:	003db306 	br	3dc0 <__alt_mem_Flash_flash_data+0xf4003dc0>
    46f4:	b009883a 	mov	r4,r22
    46f8:	b80b883a 	mov	r5,r23
    46fc:	d9801e04 	addi	r6,sp,120
    4700:	000b2080 	call	b208 <__sprint_r>
    4704:	103a261e 	bne	r2,zero,2fa0 <__alt_mem_Flash_flash_data+0xf4002fa0>
    4708:	d8c02017 	ldw	r3,128(sp)
    470c:	da000404 	addi	r8,sp,16
    4710:	003daa06 	br	3dbc <__alt_mem_Flash_flash_data+0xf4003dbc>
    4714:	b009883a 	mov	r4,r22
    4718:	b80b883a 	mov	r5,r23
    471c:	d9801e04 	addi	r6,sp,120
    4720:	000b2080 	call	b208 <__sprint_r>
    4724:	103a1e1e 	bne	r2,zero,2fa0 <__alt_mem_Flash_flash_data+0xf4002fa0>
    4728:	d8802617 	ldw	r2,152(sp)
    472c:	d8c02017 	ldw	r3,128(sp)
    4730:	da000404 	addi	r8,sp,16
    4734:	003e2c06 	br	3fe8 <__alt_mem_Flash_flash_data+0xf4003fe8>
    4738:	030000b4 	movhi	r12,2
    473c:	6302e784 	addi	r12,r12,2974
    4740:	db002c15 	stw	r12,176(sp)
    4744:	dac02c17 	ldw	r11,176(sp)
    4748:	1c07883a 	add	r3,r3,r16
    474c:	10800044 	addi	r2,r2,1
    4750:	42c00015 	stw	r11,0(r8)
    4754:	44000115 	stw	r16,4(r8)
    4758:	d8c02015 	stw	r3,128(sp)
    475c:	d8801f15 	stw	r2,124(sp)
    4760:	010001c4 	movi	r4,7
    4764:	20bfa716 	blt	r4,r2,4604 <__alt_mem_Flash_flash_data+0xf4004604>
    4768:	42000204 	addi	r8,r8,8
    476c:	003fad06 	br	4624 <__alt_mem_Flash_flash_data+0xf4004624>
    4770:	00800184 	movi	r2,6
    4774:	1240012e 	bgeu	r2,r9,477c <___vfprintf_internal_r+0x1bac>
    4778:	1013883a 	mov	r9,r2
    477c:	4825883a 	mov	r18,r9
    4780:	4805883a 	mov	r2,r9
    4784:	4800c216 	blt	r9,zero,4a90 <___vfprintf_internal_r+0x1ec0>
    4788:	d8802b15 	stw	r2,172(sp)
    478c:	008000b4 	movhi	r2,2
    4790:	1082dd04 	addi	r2,r2,2932
    4794:	d8803115 	stw	r2,196(sp)
    4798:	dcc02d15 	stw	r19,180(sp)
    479c:	d8003215 	stw	zero,200(sp)
    47a0:	d8003415 	stw	zero,208(sp)
    47a4:	0005883a 	mov	r2,zero
    47a8:	003a6306 	br	3138 <__alt_mem_Flash_flash_data+0xf4003138>
    47ac:	0021883a 	mov	r16,zero
    47b0:	003e1f06 	br	4030 <__alt_mem_Flash_flash_data+0xf4004030>
    47b4:	b009883a 	mov	r4,r22
    47b8:	b80b883a 	mov	r5,r23
    47bc:	d9801e04 	addi	r6,sp,120
    47c0:	000b2080 	call	b208 <__sprint_r>
    47c4:	1039f61e 	bne	r2,zero,2fa0 <__alt_mem_Flash_flash_data+0xf4002fa0>
    47c8:	d8802617 	ldw	r2,152(sp)
    47cc:	db003317 	ldw	r12,204(sp)
    47d0:	d8c02017 	ldw	r3,128(sp)
    47d4:	da000404 	addi	r8,sp,16
    47d8:	6085c83a 	sub	r2,r12,r2
    47dc:	003e1306 	br	402c <__alt_mem_Flash_flash_data+0xf400402c>
    47e0:	030000b4 	movhi	r12,2
    47e4:	6302eb84 	addi	r12,r12,2990
    47e8:	db003615 	stw	r12,216(sp)
    47ec:	003b0206 	br	33f8 <__alt_mem_Flash_flash_data+0xf40033f8>
    47f0:	00c00b44 	movi	r3,45
    47f4:	d8802b15 	stw	r2,172(sp)
    47f8:	dc402d17 	ldw	r17,180(sp)
    47fc:	d8c02785 	stb	r3,158(sp)
    4800:	dcc02d15 	stw	r19,180(sp)
    4804:	d8003215 	stw	zero,200(sp)
    4808:	00800b44 	movi	r2,45
    480c:	003a4706 	br	312c <__alt_mem_Flash_flash_data+0xf400312c>
    4810:	05400b44 	movi	r21,45
    4814:	dd402785 	stb	r21,158(sp)
    4818:	003b4706 	br	3538 <__alt_mem_Flash_flash_data+0xf4003538>
    481c:	008000b4 	movhi	r2,2
    4820:	1082d204 	addi	r2,r2,2888
    4824:	d8803115 	stw	r2,196(sp)
    4828:	003f4106 	br	4530 <__alt_mem_Flash_flash_data+0xf4004530>
    482c:	d8c02617 	ldw	r3,152(sp)
    4830:	00bfff44 	movi	r2,-3
    4834:	18801116 	blt	r3,r2,487c <___vfprintf_internal_r+0x1cac>
    4838:	48c01016 	blt	r9,r3,487c <___vfprintf_internal_r+0x1cac>
    483c:	d8c03415 	stw	r3,208(sp)
    4840:	040019c4 	movi	r16,103
    4844:	003eb206 	br	4310 <__alt_mem_Flash_flash_data+0xf4004310>
    4848:	010000b4 	movhi	r4,2
    484c:	2102e784 	addi	r4,r4,2974
    4850:	d9002c15 	stw	r4,176(sp)
    4854:	003cb106 	br	3b1c <__alt_mem_Flash_flash_data+0xf4003b1c>
    4858:	5005883a 	mov	r2,r10
    485c:	003ea106 	br	42e4 <__alt_mem_Flash_flash_data+0xf40042e4>
    4860:	da402b15 	stw	r9,172(sp)
    4864:	dd402783 	ldbu	r21,158(sp)
    4868:	4825883a 	mov	r18,r9
    486c:	dcc02d15 	stw	r19,180(sp)
    4870:	d8003215 	stw	zero,200(sp)
    4874:	d8003415 	stw	zero,208(sp)
    4878:	003a2806 	br	311c <__alt_mem_Flash_flash_data+0xf400311c>
    487c:	843fff84 	addi	r16,r16,-2
    4880:	1f3fffc4 	addi	fp,r3,-1
    4884:	df002615 	stw	fp,152(sp)
    4888:	dc0022c5 	stb	r16,139(sp)
    488c:	e0009816 	blt	fp,zero,4af0 <___vfprintf_internal_r+0x1f20>
    4890:	00800ac4 	movi	r2,43
    4894:	d8802305 	stb	r2,140(sp)
    4898:	00800244 	movi	r2,9
    489c:	1700750e 	bge	r2,fp,4a74 <___vfprintf_internal_r+0x1ea4>
    48a0:	dd4022c4 	addi	r21,sp,139
    48a4:	dc002c15 	stw	r16,176(sp)
    48a8:	4025883a 	mov	r18,r8
    48ac:	a821883a 	mov	r16,r21
    48b0:	e009883a 	mov	r4,fp
    48b4:	01400284 	movi	r5,10
    48b8:	000dad80 	call	dad8 <__modsi3>
    48bc:	10800c04 	addi	r2,r2,48
    48c0:	843fffc4 	addi	r16,r16,-1
    48c4:	e009883a 	mov	r4,fp
    48c8:	01400284 	movi	r5,10
    48cc:	80800005 	stb	r2,0(r16)
    48d0:	000da840 	call	da84 <__divsi3>
    48d4:	1039883a 	mov	fp,r2
    48d8:	00800244 	movi	r2,9
    48dc:	173ff416 	blt	r2,fp,48b0 <__alt_mem_Flash_flash_data+0xf40048b0>
    48e0:	9011883a 	mov	r8,r18
    48e4:	e0800c04 	addi	r2,fp,48
    48e8:	8025883a 	mov	r18,r16
    48ec:	913fffc4 	addi	r4,r18,-1
    48f0:	90bfffc5 	stb	r2,-1(r18)
    48f4:	dc002c17 	ldw	r16,176(sp)
    48f8:	2540852e 	bgeu	r4,r21,4b10 <___vfprintf_internal_r+0x1f40>
    48fc:	d9402384 	addi	r5,sp,142
    4900:	2c8bc83a 	sub	r5,r5,r18
    4904:	d8c02344 	addi	r3,sp,141
    4908:	a94b883a 	add	r5,r21,r5
    490c:	00000106 	br	4914 <___vfprintf_internal_r+0x1d44>
    4910:	20800003 	ldbu	r2,0(r4)
    4914:	18800005 	stb	r2,0(r3)
    4918:	18c00044 	addi	r3,r3,1
    491c:	21000044 	addi	r4,r4,1
    4920:	197ffb1e 	bne	r3,r5,4910 <__alt_mem_Flash_flash_data+0xf4004910>
    4924:	d8802304 	addi	r2,sp,140
    4928:	1485c83a 	sub	r2,r2,r18
    492c:	d8c02344 	addi	r3,sp,141
    4930:	1885883a 	add	r2,r3,r2
    4934:	dac03317 	ldw	r11,204(sp)
    4938:	156bc83a 	sub	r21,r2,r21
    493c:	dd403a15 	stw	r21,232(sp)
    4940:	00800044 	movi	r2,1
    4944:	5d65883a 	add	r18,r11,r21
    4948:	12c0660e 	bge	r2,r11,4ae4 <___vfprintf_internal_r+0x1f14>
    494c:	94800044 	addi	r18,r18,1
    4950:	9005883a 	mov	r2,r18
    4954:	90006116 	blt	r18,zero,4adc <___vfprintf_internal_r+0x1f0c>
    4958:	d8003415 	stw	zero,208(sp)
    495c:	003e7406 	br	4330 <__alt_mem_Flash_flash_data+0xf4004330>
    4960:	b009883a 	mov	r4,r22
    4964:	b80b883a 	mov	r5,r23
    4968:	d9801e04 	addi	r6,sp,120
    496c:	000b2080 	call	b208 <__sprint_r>
    4970:	10398b1e 	bne	r2,zero,2fa0 <__alt_mem_Flash_flash_data+0xf4002fa0>
    4974:	dc002617 	ldw	r16,152(sp)
    4978:	d8c02017 	ldw	r3,128(sp)
    497c:	d8801f17 	ldw	r2,124(sp)
    4980:	da000404 	addi	r8,sp,16
    4984:	003ec906 	br	44ac <__alt_mem_Flash_flash_data+0xf40044ac>
    4988:	483e1c1e 	bne	r9,zero,41fc <__alt_mem_Flash_flash_data+0xf40041fc>
    498c:	9013883a 	mov	r9,r18
    4990:	003e1a06 	br	41fc <__alt_mem_Flash_flash_data+0xf40041fc>
    4994:	02400184 	movi	r9,6
    4998:	003e1806 	br	41fc <__alt_mem_Flash_flash_data+0xf40041fc>
    499c:	d8c03417 	ldw	r3,208(sp)
    49a0:	00c04b0e 	bge	zero,r3,4ad0 <___vfprintf_internal_r+0x1f00>
    49a4:	04800044 	movi	r18,1
    49a8:	dac03317 	ldw	r11,204(sp)
    49ac:	92e5883a 	add	r18,r18,r11
    49b0:	9005883a 	mov	r2,r18
    49b4:	903e5e0e 	bge	r18,zero,4330 <__alt_mem_Flash_flash_data+0xf4004330>
    49b8:	0005883a 	mov	r2,zero
    49bc:	003e5c06 	br	4330 <__alt_mem_Flash_flash_data+0xf4004330>
    49c0:	00c00b44 	movi	r3,45
    49c4:	64a0003c 	xorhi	r18,r12,32768
    49c8:	d8c02b05 	stb	r3,172(sp)
    49cc:	003e1106 	br	4214 <__alt_mem_Flash_flash_data+0xf4004214>
    49d0:	4f000044 	addi	fp,r9,1
    49d4:	003e1606 	br	4230 <__alt_mem_Flash_flash_data+0xf4004230>
    49d8:	d8c02617 	ldw	r3,152(sp)
    49dc:	d8c03415 	stw	r3,208(sp)
    49e0:	00c0350e 	bge	zero,r3,4ab8 <___vfprintf_internal_r+0x1ee8>
    49e4:	4800081e 	bne	r9,zero,4a08 <___vfprintf_internal_r+0x1e38>
    49e8:	8c40004c 	andi	r17,r17,1
    49ec:	8800061e 	bne	r17,zero,4a08 <___vfprintf_internal_r+0x1e38>
    49f0:	1805883a 	mov	r2,r3
    49f4:	183e4d0e 	bge	r3,zero,432c <__alt_mem_Flash_flash_data+0xf400432c>
    49f8:	0005883a 	mov	r2,zero
    49fc:	003e4b06 	br	432c <__alt_mem_Flash_flash_data+0xf400432c>
    4a00:	d8802117 	ldw	r2,132(sp)
    4a04:	003e3706 	br	42e4 <__alt_mem_Flash_flash_data+0xf40042e4>
    4a08:	dac03417 	ldw	r11,208(sp)
    4a0c:	4a400044 	addi	r9,r9,1
    4a10:	5a65883a 	add	r18,r11,r9
    4a14:	9005883a 	mov	r2,r18
    4a18:	903e450e 	bge	r18,zero,4330 <__alt_mem_Flash_flash_data+0xf4004330>
    4a1c:	003fe606 	br	49b8 <__alt_mem_Flash_flash_data+0xf40049b8>
    4a20:	db003417 	ldw	r12,208(sp)
    4a24:	64800044 	addi	r18,r12,1
    4a28:	9005883a 	mov	r2,r18
    4a2c:	903e400e 	bge	r18,zero,4330 <__alt_mem_Flash_flash_data+0xf4004330>
    4a30:	003fe106 	br	49b8 <__alt_mem_Flash_flash_data+0xf40049b8>
    4a34:	d9003717 	ldw	r4,220(sp)
    4a38:	900b883a 	mov	r5,r18
    4a3c:	000d883a 	mov	r6,zero
    4a40:	000f883a 	mov	r7,zero
    4a44:	da003f15 	stw	r8,252(sp)
    4a48:	da403e15 	stw	r9,248(sp)
    4a4c:	da803d15 	stw	r10,244(sp)
    4a50:	000ecac0 	call	ecac <__eqdf2>
    4a54:	da003f17 	ldw	r8,252(sp)
    4a58:	da403e17 	ldw	r9,248(sp)
    4a5c:	da803d17 	ldw	r10,244(sp)
    4a60:	103f1f26 	beq	r2,zero,46e0 <__alt_mem_Flash_flash_data+0xf40046e0>
    4a64:	00800044 	movi	r2,1
    4a68:	1707c83a 	sub	r3,r2,fp
    4a6c:	d8c02615 	stw	r3,152(sp)
    4a70:	003f1c06 	br	46e4 <__alt_mem_Flash_flash_data+0xf40046e4>
    4a74:	00800c04 	movi	r2,48
    4a78:	e0c00c04 	addi	r3,fp,48
    4a7c:	d8802345 	stb	r2,141(sp)
    4a80:	d8c02385 	stb	r3,142(sp)
    4a84:	d88023c4 	addi	r2,sp,143
    4a88:	dd4022c4 	addi	r21,sp,139
    4a8c:	003fa906 	br	4934 <__alt_mem_Flash_flash_data+0xf4004934>
    4a90:	0005883a 	mov	r2,zero
    4a94:	003f3c06 	br	4788 <__alt_mem_Flash_flash_data+0xf4004788>
    4a98:	dac02d17 	ldw	r11,180(sp)
    4a9c:	5a400017 	ldw	r9,0(r11)
    4aa0:	5ac00104 	addi	r11,r11,4
    4aa4:	dac02d15 	stw	r11,180(sp)
    4aa8:	483ec80e 	bge	r9,zero,45cc <__alt_mem_Flash_flash_data+0xf40045cc>
    4aac:	027fffc4 	movi	r9,-1
    4ab0:	1c000047 	ldb	r16,1(r3)
    4ab4:	0038ab06 	br	2d64 <__alt_mem_Flash_flash_data+0xf4002d64>
    4ab8:	4800111e 	bne	r9,zero,4b00 <___vfprintf_internal_r+0x1f30>
    4abc:	8c40004c 	andi	r17,r17,1
    4ac0:	88000f1e 	bne	r17,zero,4b00 <___vfprintf_internal_r+0x1f30>
    4ac4:	00800044 	movi	r2,1
    4ac8:	1025883a 	mov	r18,r2
    4acc:	003e1806 	br	4330 <__alt_mem_Flash_flash_data+0xf4004330>
    4ad0:	04800084 	movi	r18,2
    4ad4:	90e5c83a 	sub	r18,r18,r3
    4ad8:	003fb306 	br	49a8 <__alt_mem_Flash_flash_data+0xf40049a8>
    4adc:	0005883a 	mov	r2,zero
    4ae0:	003f9d06 	br	4958 <__alt_mem_Flash_flash_data+0xf4004958>
    4ae4:	88a2703a 	and	r17,r17,r2
    4ae8:	883f9926 	beq	r17,zero,4950 <__alt_mem_Flash_flash_data+0xf4004950>
    4aec:	003f9706 	br	494c <__alt_mem_Flash_flash_data+0xf400494c>
    4af0:	00800b44 	movi	r2,45
    4af4:	0739c83a 	sub	fp,zero,fp
    4af8:	d8802305 	stb	r2,140(sp)
    4afc:	003f6606 	br	4898 <__alt_mem_Flash_flash_data+0xf4004898>
    4b00:	4c800084 	addi	r18,r9,2
    4b04:	9005883a 	mov	r2,r18
    4b08:	903e090e 	bge	r18,zero,4330 <__alt_mem_Flash_flash_data+0xf4004330>
    4b0c:	003faa06 	br	49b8 <__alt_mem_Flash_flash_data+0xf40049b8>
    4b10:	d8802344 	addi	r2,sp,141
    4b14:	003f8706 	br	4934 <__alt_mem_Flash_flash_data+0xf4004934>
    4b18:	d8c02617 	ldw	r3,152(sp)
    4b1c:	003f5806 	br	4880 <__alt_mem_Flash_flash_data+0xf4004880>

00004b20 <__vfprintf_internal>:
    4b20:	2007883a 	mov	r3,r4
    4b24:	010000b4 	movhi	r4,2
    4b28:	210bdc04 	addi	r4,r4,12144
    4b2c:	21000017 	ldw	r4,0(r4)
    4b30:	2805883a 	mov	r2,r5
    4b34:	300f883a 	mov	r7,r6
    4b38:	180b883a 	mov	r5,r3
    4b3c:	100d883a 	mov	r6,r2
    4b40:	0002bd01 	jmpi	2bd0 <___vfprintf_internal_r>

00004b44 <__sbprintf>:
    4b44:	2880030b 	ldhu	r2,12(r5)
    4b48:	2ac01917 	ldw	r11,100(r5)
    4b4c:	2a80038b 	ldhu	r10,14(r5)
    4b50:	2a400717 	ldw	r9,28(r5)
    4b54:	2a000917 	ldw	r8,36(r5)
    4b58:	defee204 	addi	sp,sp,-1144
    4b5c:	00c10004 	movi	r3,1024
    4b60:	dc011a15 	stw	r16,1128(sp)
    4b64:	10bfff4c 	andi	r2,r2,65533
    4b68:	2821883a 	mov	r16,r5
    4b6c:	d8cb883a 	add	r5,sp,r3
    4b70:	dc811c15 	stw	r18,1136(sp)
    4b74:	dc411b15 	stw	r17,1132(sp)
    4b78:	dfc11d15 	stw	ra,1140(sp)
    4b7c:	2025883a 	mov	r18,r4
    4b80:	d881030d 	sth	r2,1036(sp)
    4b84:	dac11915 	stw	r11,1124(sp)
    4b88:	da81038d 	sth	r10,1038(sp)
    4b8c:	da410715 	stw	r9,1052(sp)
    4b90:	da010915 	stw	r8,1060(sp)
    4b94:	dec10015 	stw	sp,1024(sp)
    4b98:	dec10415 	stw	sp,1040(sp)
    4b9c:	d8c10215 	stw	r3,1032(sp)
    4ba0:	d8c10515 	stw	r3,1044(sp)
    4ba4:	d8010615 	stw	zero,1048(sp)
    4ba8:	0002bd00 	call	2bd0 <___vfprintf_internal_r>
    4bac:	1023883a 	mov	r17,r2
    4bb0:	10000416 	blt	r2,zero,4bc4 <__sbprintf+0x80>
    4bb4:	9009883a 	mov	r4,r18
    4bb8:	d9410004 	addi	r5,sp,1024
    4bbc:	00068840 	call	6884 <_fflush_r>
    4bc0:	10000d1e 	bne	r2,zero,4bf8 <__sbprintf+0xb4>
    4bc4:	d8c1030b 	ldhu	r3,1036(sp)
    4bc8:	18c0100c 	andi	r3,r3,64
    4bcc:	18000326 	beq	r3,zero,4bdc <__sbprintf+0x98>
    4bd0:	8080030b 	ldhu	r2,12(r16)
    4bd4:	10801014 	ori	r2,r2,64
    4bd8:	8080030d 	sth	r2,12(r16)
    4bdc:	8805883a 	mov	r2,r17
    4be0:	dfc11d17 	ldw	ra,1140(sp)
    4be4:	dc811c17 	ldw	r18,1136(sp)
    4be8:	dc411b17 	ldw	r17,1132(sp)
    4bec:	dc011a17 	ldw	r16,1128(sp)
    4bf0:	dec11e04 	addi	sp,sp,1144
    4bf4:	f800283a 	ret
    4bf8:	047fffc4 	movi	r17,-1
    4bfc:	003ff106 	br	4bc4 <__alt_mem_Flash_flash_data+0xf4004bc4>

00004c00 <__swsetup_r>:
    4c00:	008000b4 	movhi	r2,2
    4c04:	defffd04 	addi	sp,sp,-12
    4c08:	108bdc04 	addi	r2,r2,12144
    4c0c:	dc400115 	stw	r17,4(sp)
    4c10:	2023883a 	mov	r17,r4
    4c14:	11000017 	ldw	r4,0(r2)
    4c18:	dc000015 	stw	r16,0(sp)
    4c1c:	dfc00215 	stw	ra,8(sp)
    4c20:	2821883a 	mov	r16,r5
    4c24:	20000226 	beq	r4,zero,4c30 <__swsetup_r+0x30>
    4c28:	20c00e17 	ldw	r3,56(r4)
    4c2c:	18003126 	beq	r3,zero,4cf4 <__swsetup_r+0xf4>
    4c30:	8080030b 	ldhu	r2,12(r16)
    4c34:	10c0020c 	andi	r3,r2,8
    4c38:	100d883a 	mov	r6,r2
    4c3c:	18000f26 	beq	r3,zero,4c7c <__swsetup_r+0x7c>
    4c40:	80c00417 	ldw	r3,16(r16)
