
KBS_ESA_PAINGAME.elf:     file format elf32-littlenios2
KBS_ESA_PAINGAME.elf
architecture: nios2:r1, flags 0x00000112:
EXEC_P, HAS_SYMS, D_PAGED
start address 0x00000244

Program Header:
    LOAD off    0x00001000 vaddr 0x00000000 paddr 0x00000000 align 2**12
         filesz 0x00000020 memsz 0x00000020 flags r-x
    LOAD off    0x00001020 vaddr 0x00000020 paddr 0x00000020 align 2**12
         filesz 0x000132f0 memsz 0x000132f0 flags r-x
    LOAD off    0x00014310 vaddr 0x00013310 paddr 0x000151e4 align 2**12
         filesz 0x00001ed4 memsz 0x00001ed4 flags rw-
    LOAD off    0x000170b8 vaddr 0x000170b8 paddr 0x000170b8 align 2**12
         filesz 0x00000000 memsz 0x0000fc10 flags rw-

Sections:
Idx Name          Size      VMA       LMA       File off  Algn
  0 .entry        00000020  00000000  00000000  00001000  2**5
                  CONTENTS, ALLOC, LOAD, READONLY, CODE
  1 .exceptions   00000224  00000020  00000020  00001020  2**2
                  CONTENTS, ALLOC, LOAD, READONLY, CODE
  2 .text         00012ba4  00000244  00000244  00001244  2**2
                  CONTENTS, ALLOC, LOAD, READONLY, CODE
  3 .rodata       00000528  00012de8  00012de8  00013de8  2**2
                  CONTENTS, ALLOC, LOAD, READONLY, DATA
  4 .rwdata       00001ed4  00013310  000151e4  00014310  2**2
                  CONTENTS, ALLOC, LOAD, DATA, SMALL_DATA
  5 .bss          0000fc10  000170b8  000170b8  000170b8  2**2
                  ALLOC, SMALL_DATA
  6 .SDRAM        00000000  00026cc8  00026cc8  000161e4  2**0
                  CONTENTS
  7 .Flash_flash_data 00000000  0c000000  0c000000  000161e4  2**0
                  CONTENTS
  8 .comment      00000023  00000000  00000000  000161e4  2**0
                  CONTENTS, READONLY
  9 .debug_aranges 00000cf0  00000000  00000000  00016208  2**3
                  CONTENTS, READONLY, DEBUGGING
 10 .debug_info   00024ab4  00000000  00000000  00016ef8  2**0
                  CONTENTS, READONLY, DEBUGGING
 11 .debug_abbrev 00008af7  00000000  00000000  0003b9ac  2**0
                  CONTENTS, READONLY, DEBUGGING
 12 .debug_line   0000abf5  00000000  00000000  000444a3  2**0
                  CONTENTS, READONLY, DEBUGGING
 13 .debug_frame  00003514  00000000  00000000  0004f098  2**2
                  CONTENTS, READONLY, DEBUGGING
 14 .debug_str    000047b0  00000000  00000000  000525ac  2**0
                  CONTENTS, READONLY, DEBUGGING
 15 .debug_loc    000047e0  00000000  00000000  00056d5c  2**0
                  CONTENTS, READONLY, DEBUGGING
 16 .debug_alt_sim_info 00000020  00000000  00000000  0005b53c  2**2
                  CONTENTS, READONLY, DEBUGGING
 17 .debug_ranges 000005e8  00000000  00000000  0005b560  2**3
                  CONTENTS, READONLY, DEBUGGING
 18 .thread_model 00000006  00000000  00000000  00061025  2**0
                  CONTENTS, READONLY
 19 .cpu          00000005  00000000  00000000  0006102b  2**0
                  CONTENTS, READONLY
 20 .qsys         00000001  00000000  00000000  00061030  2**0
                  CONTENTS, READONLY
 21 .simulation_enabled 00000001  00000000  00000000  00061031  2**0
                  CONTENTS, READONLY
 22 .sysid_hash   00000004  00000000  00000000  00061032  2**0
                  CONTENTS, READONLY
 23 .sysid_base   00000004  00000000  00000000  00061036  2**0
                  CONTENTS, READONLY
 24 .sysid_time   00000004  00000000  00000000  0006103a  2**0
                  CONTENTS, READONLY
 25 .stderr_dev   00000009  00000000  00000000  0006103e  2**0
                  CONTENTS, READONLY
 26 .stdin_dev    00000009  00000000  00000000  00061047  2**0
                  CONTENTS, READONLY
 27 .stdout_dev   00000009  00000000  00000000  00061050  2**0
                  CONTENTS, READONLY
 28 .sopc_system_name 0000000b  00000000  00000000  00061059  2**0
                  CONTENTS, READONLY
 29 .quartus_project_dir 0000005e  00000000  00000000  00061064  2**0
                  CONTENTS, READONLY
 30 .jdi          0000abc5  00000000  00000000  000610c2  2**0
                  CONTENTS, READONLY
 31 .sopcinfo     001878b7  00000000  00000000  0006bc87  2**0
                  CONTENTS, READONLY
SYMBOL TABLE:
00000000 l    d  .entry	00000000 .entry
00000020 l    d  .exceptions	00000000 .exceptions
00000244 l    d  .text	00000000 .text
00012de8 l    d  .rodata	00000000 .rodata
00013310 l    d  .rwdata	00000000 .rwdata
000170b8 l    d  .bss	00000000 .bss
00026cc8 l    d  .SDRAM	00000000 .SDRAM
0c000000 l    d  .Flash_flash_data	00000000 .Flash_flash_data
00000000 l    d  .comment	00000000 .comment
00000000 l    d  .debug_aranges	00000000 .debug_aranges
00000000 l    d  .debug_info	00000000 .debug_info
00000000 l    d  .debug_abbrev	00000000 .debug_abbrev
00000000 l    d  .debug_line	00000000 .debug_line
00000000 l    d  .debug_frame	00000000 .debug_frame
00000000 l    d  .debug_str	00000000 .debug_str
00000000 l    d  .debug_loc	00000000 .debug_loc
00000000 l    d  .debug_alt_sim_info	00000000 .debug_alt_sim_info
00000000 l    d  .debug_ranges	00000000 .debug_ranges
00000000 l    df *ABS*	00000000 C:/Users/rickert/Documents/GitHub/KBS_ESA_PAINGAME/KBS_ESA_PAINGAME_bsp//obj/HAL/src/crt0.o
0000027c l       .text	00000000 alt_after_alt_main
00000000 l    df *ABS*	00000000 alt_irq_handler.c
00000000 l    df *ABS*	00000000 alt_instruction_exception_entry.c
00000000 l    df *ABS*	00000000 Contoller.c
00000000 l    df *ABS*	00000000 Game.c
00001418 l     F .text	00000054 nummer1
0000146c l     F .text	000000f4 nummer2
00001560 l     F .text	000000cc nummer3
0000162c l     F .text	000000a4 nummer4
000016d0 l     F .text	000000f4 nummer5
000017c4 l     F .text	000000f4 nummer6
000018b8 l     F .text	0000007c nummer7
00001934 l     F .text	000000f4 nummer8
00001a28 l     F .text	000000f4 nummer9
00001b1c l     F .text	000000cc nummer0
00000000 l    df *ABS*	00000000 Menu.c
00000000 l    df *ABS*	00000000 Singleplayer.c
00000000 l    df *ABS*	00000000 Tutorial.c
00000000 l    df *ABS*	00000000 hello_ucosii.c
00000000 l    df *ABS*	00000000 puts.c
00000000 l    df *ABS*	00000000 strlen.c
00000000 l    df *ABS*	00000000 fvwrite.c
00000000 l    df *ABS*	00000000 impure.c
00013338 l     O .rwdata	00000424 impure_data
00000000 l    df *ABS*	00000000 mallocr.c
00000000 l    df *ABS*	00000000 memchr.c
00000000 l    df *ABS*	00000000 memcpy.c
00000000 l    df *ABS*	00000000 memmove.c
00000000 l    df *ABS*	00000000 mallocr.c
00000000 l    df *ABS*	00000000 sbrkr.c
00000000 l    df *ABS*	00000000 wsetup.c
00000000 l    df *ABS*	00000000 fflush.c
00000000 l    df *ABS*	00000000 findfp.c
000049a8 l     F .text	00000008 __fp_lock
000049b0 l     F .text	00000008 __fp_unlock
000049c4 l     F .text	0000019c __sinit.part.1
00000000 l    df *ABS*	00000000 mallocr.c
00000000 l    df *ABS*	00000000 fwalk.c
00000000 l    df *ABS*	00000000 int_errno.c
00000000 l    df *ABS*	00000000 makebuf.c
00000000 l    df *ABS*	00000000 memset.c
00000000 l    df *ABS*	00000000 stdio.c
00000000 l    df *ABS*	00000000 writer.c
00000000 l    df *ABS*	00000000 closer.c
00000000 l    df *ABS*	00000000 fclose.c
00000000 l    df *ABS*	00000000 fstatr.c
00000000 l    df *ABS*	00000000 isattyr.c
00000000 l    df *ABS*	00000000 lseekr.c
00000000 l    df *ABS*	00000000 readr.c
00000000 l    df *ABS*	00000000 lib2-divmod.c
00005a14 l     F .text	0000006c udivmodsi4
00000000 l    df *ABS*	00000000 alt_close.c
00005b40 l     F .text	00000050 alt_get_errno
00000000 l    df *ABS*	00000000 alt_dev.c
00005c60 l     F .text	0000002c alt_dev_null_write
00000000 l    df *ABS*	00000000 alt_errno.c
00000000 l    df *ABS*	00000000 alt_fstat.c
00005c8c l     F .text	00000050 alt_get_errno
00000000 l    df *ABS*	00000000 alt_isatty.c
00005d8c l     F .text	00000050 alt_get_errno
00000000 l    df *ABS*	00000000 alt_load.c
00005e80 l     F .text	00000064 alt_load_section
00000000 l    df *ABS*	00000000 alt_lseek.c
00005f64 l     F .text	00000050 alt_get_errno
00000000 l    df *ABS*	00000000 alt_main.c
00000000 l    df *ABS*	00000000 alt_read.c
0000615c l     F .text	00000050 alt_get_errno
00000000 l    df *ABS*	00000000 alt_release_fd.c
00000000 l    df *ABS*	00000000 alt_sbrk.c
00015158 l     O .rwdata	00000004 heap_end
00000000 l    df *ABS*	00000000 alt_write.c
000063b8 l     F .text	00000050 alt_get_errno
00000000 l    df *ABS*	00000000 alt_env_lock.c
0001515c l     O .rwdata	00000004 lockid
0001713c l     O .bss	00000004 locks
00000000 l    df *ABS*	00000000 alt_malloc_lock.c
00015160 l     O .rwdata	00000004 lockid
00017144 l     O .bss	00000004 locks
00000000 l    df *ABS*	00000000 os_core.c
00007dec l     F .text	00000044 OS_InitMisc
00007e30 l     F .text	00000068 OS_InitRdyList
00007f90 l     F .text	000000e0 OS_InitTCBList
00007d10 l     F .text	000000dc OS_InitEventList
00007e98 l     F .text	0000007c OS_InitTaskIdle
00007f14 l     F .text	0000007c OS_InitTaskStat
000081f0 l     F .text	00000070 OS_SchedNew
00000000 l    df *ABS*	00000000 os_dbg.c
00000000 l    df *ABS*	00000000 os_flag.c
00009ff4 l     F .text	00000110 OS_FlagTaskRdy
00009d4c l     F .text	000001c4 OS_FlagBlock
00000000 l    df *ABS*	00000000 os_mbox.c
00000000 l    df *ABS*	00000000 os_mem.c
00000000 l    df *ABS*	00000000 os_q.c
00000000 l    df *ABS*	00000000 os_sem.c
00000000 l    df *ABS*	00000000 os_task.c
00000000 l    df *ABS*	00000000 os_time.c
00000000 l    df *ABS*	00000000 alt_sys_init.c
0000f024 l     F .text	00000038 alt_dev_reg
00013d0c l     O .rwdata	0000106c JTAG_UART
00014d78 l     O .rwdata	00000030 AV_Config
00014da8 l     O .rwdata	00000030 Audio_Subsystem_Audio
00014dd8 l     O .rwdata	0000002c Char_LCD_16x2
00014e04 l     O .rwdata	0000002c IrDA
00014e30 l     O .rwdata	0000002c Expansion_JP5
00014e5c l     O .rwdata	0000002c Green_LEDs
00014e88 l     O .rwdata	0000002c HEX3_HEX0
00014eb4 l     O .rwdata	0000002c HEX7_HEX4
00014ee0 l     O .rwdata	0000002c Pushbuttons
00014f0c l     O .rwdata	0000002c Red_LEDs
00014f38 l     O .rwdata	0000002c Slider_Switches
00014f64 l     O .rwdata	00000038 PS2_Port
00014f9c l     O .rwdata	00000038 PS2_Port_Dual
00014fd4 l     O .rwdata	0000002c Serial_Port
00015000 l     O .rwdata	00000034 USB
00015034 l     O .rwdata	00000048 VGA_Subsystem_VGA_Char_Buffer
0001507c l     O .rwdata	00000054 VGA_Subsystem_VGA_Pixel_DMA
000150d0 l     O .rwdata	0000002c SD_Card
00000000 l    df *ABS*	00000000 altera_avalon_jtag_uart_fd.c
00000000 l    df *ABS*	00000000 altera_avalon_jtag_uart_init.c
0000f70c l     F .text	000002a8 altera_avalon_jtag_uart_irq
0000f9b4 l     F .text	00000110 altera_avalon_jtag_uart_timeout
00000000 l    df *ABS*	00000000 altera_avalon_jtag_uart_ioctl.c
00000000 l    df *ABS*	00000000 altera_avalon_jtag_uart_read.c
00000000 l    df *ABS*	00000000 altera_avalon_jtag_uart_write.c
00000000 l    df *ABS*	00000000 altera_avalon_timer_sc.c
0001018c l     F .text	00000078 alt_avalon_timer_sc_irq
00000000 l    df *ABS*	00000000 altera_up_avalon_character_lcd.c
00000000 l    df *ABS*	00000000 altera_up_avalon_irda.c
00000000 l    df *ABS*	00000000 altera_up_avalon_parallel_port.c
00000000 l    df *ABS*	00000000 altera_up_avalon_ps2.c
00000000 l    df *ABS*	00000000 altera_up_avalon_rs232.c
00000000 l    df *ABS*	00000000 altera_up_avalon_video_character_buffer_with_dma.c
00000000 l    df *ABS*	00000000 alt_alarm_start.c
00000000 l    df *ABS*	00000000 alt_dcache_flush_all.c
00000000 l    df *ABS*	00000000 alt_dev_llist_insert.c
000119a8 l     F .text	00000050 alt_get_errno
00000000 l    df *ABS*	00000000 alt_do_ctors.c
00000000 l    df *ABS*	00000000 alt_do_dtors.c
00000000 l    df *ABS*	00000000 alt_find_dev.c
00000000 l    df *ABS*	00000000 alt_icache_flush_all.c
00000000 l    df *ABS*	00000000 alt_io_redirect.c
00011c14 l     F .text	000000c0 alt_open_fd
00000000 l    df *ABS*	00000000 alt_irq_register.c
00000000 l    df *ABS*	00000000 alt_irq_vars.c
00000000 l    df *ABS*	00000000 alt_open.c
00011efc l     F .text	00000050 alt_get_errno
00011f4c l     F .text	000000cc alt_file_locked
00000000 l    df *ABS*	00000000 alt_tick.c
00000000 l    df *ABS*	00000000 altera_nios2_gen2_irq.c
00000000 l    df *ABS*	00000000 os_cpu_a.o
00000040 l       *ABS*	00000000 OSCtxSw_SWITCH_PC
00000000 l    df *ABS*	00000000 os_cpu_c.c
00000014 l       *ABS*	00000000 OSTCBNext_OFFSET
00000032 l       *ABS*	00000000 OSTCBPrio_OFFSET
00000000 l       *ABS*	00000000 OSTCBStkPtr_OFFSET
00000000 l    df *ABS*	00000000 alt_find_file.c
00000000 l    df *ABS*	00000000 alt_get_fd.c
00000000 l    df *ABS*	00000000 alt_icache_flush.c
00000000 l    df *ABS*	00000000 atexit.c
00000000 l    df *ABS*	00000000 exit.c
00000000 l    df *ABS*	00000000 memcmp.c
00000000 l    df *ABS*	00000000 strcmp.c
00000000 l    df *ABS*	00000000 __atexit.c
00000000 l    df *ABS*	00000000 __call_atexit.c
00000000 l    df *ABS*	00000000 alt_exit.c
000171a8 g     O .bss	00000004 alt_instruction_exception_handler
000151ae g     O .rwdata	00000002 OSTaskNameSize
00005908 g     F .text	00000054 _isatty_r
00006088 g     F .text	000000d4 alt_main
00002ecc g     F .text	000000a8 _puts_r
00026bc8 g     O .bss	00000100 alt_irq
00010d68 g     F .text	0000005c alt_up_ps2_disable_read_interrupt
0000595c g     F .text	0000005c _lseek_r
0000b3e0 g     F .text	000000d0 OS_MemInit
000151e4 g       *ABS*	00000000 __flash_rwdata_start
0000efc0 g     F .text	00000064 OSTimeSet
000102f8 g     F .text	0000003c alt_up_character_lcd_send_cmd
00006a68 g     F .text	00000610 OSEventPendMulti
00026cc8 g       *ABS*	00000000 __alt_heap_start
00012558 g     F .text	00000020 OSTaskCreateHook
00015186 g     O .rwdata	00000002 OSMboxEn
000170dc g     O .bss	00000004 random
000070cc g     F .text	0000007c OSIntEnter
00005698 g     F .text	0000005c __sseek
00004cf8 g     F .text	00000010 __sinit
000116f0 g     F .text	00000100 alt_up_char_buffer_string
00010b88 g     F .text	00000034 read_CE_bit
00015196 g     O .rwdata	00000002 OSQEn
00004b60 g     F .text	00000068 __sfmoreglue
0000673c g     F .text	000000d0 __malloc_unlock
000125b4 g     F .text	0000001c OSTaskStatHook
00010f0c g     F .text	000000a4 alt_up_ps2_read_data_byte_timeout
00011400 g     F .text	00000090 alt_up_rs232_read_fd
0001714c g     O .bss	00000001 OSLockNesting
00001c5c g     F .text	000000ec menu
000151d4 g     O .rwdata	00000002 OSDataSize
0001714d g     O .bss	00000001 OSRunning
00011624 g     F .text	000000cc alt_up_char_buffer_draw
000171d4 g     O .bss	00002000 Singleplayer_stk
000170b8 g     O .bss	00000004 counter3
00003ea8 g     F .text	0000015c memmove
000125ec g     F .text	0000001c OSInitHookBegin
000151cc g     O .rwdata	00000002 OSTmrSize
00004ce0 g     F .text	00000018 _cleanup
00015108 g     O .rwdata	00000004 gameModeMenu
00017150 g     O .bss	00000004 OSIdleCtr
00015110 g     O .rwdata	00000004 xRechts
0001230c g     F .text	00000020 altera_nios2_gen2_irq_init
000123d8 g       .text	00000000 OSStartTsk
00000000  w      *UND*	00000000 __errno
00010284 g     F .text	00000074 get_DDRAM_addr
00008528 g     F .text	000002d4 OS_TCBInit
00015120 g     O .rwdata	00000004 yMenu
00000000 g     F .entry	0000001c __reset
000151d2 g     O .rwdata	00000002 OSTmrWheelTblSize
00000020 g       *ABS*	00000000 __flash_exceptions_start
00015172 g     O .rwdata	00000002 OSEventSize
00017154 g     O .bss	00000001 OSPrioHighRdy
000058b0 g     F .text	00000058 _fstat_r
00012578 g     F .text	00000020 OSTaskDelHook
00017128 g     O .bss	00000004 errno
00005614 g     F .text	00000008 __seofread
000123b8 g       .text	00000000 OSStartHighRdy
000170e0 g     O .bss	00000004 pixel_buffer_y
0000d8c4 g     F .text	000001ec OSTaskCreateExt
00009898 g     F .text	00000068 OSFlagPendGetFlagsRdy
000151b2 g     O .rwdata	00000002 OSTaskStatStkSize
00008988 g     F .text	00000308 OSFlagAccept
0000bab4 g     F .text	000000b8 OSQFlush
0000b4b0 g     F .text	00000140 OSQAccept
00017134 g     O .bss	00000004 alt_argv
000170e4 g     O .bss	00000004 score1
0001d0fc g       *ABS*	00000000 _gp
0000d708 g     F .text	000001bc OSTaskCreate
0000d1c8 g     F .text	00000540 OSTaskChangePrio
00017148 g     O .bss	00000004 alt_heapsem
00002710 g     F .text	0000003c del_middenlijn
000087fc g     F .text	0000018c OSDebugInit
0000dab0 g     F .text	000003e0 OSTaskDel
00015114 g     O .rwdata	00000004 xBoven
00013b8c g     O .rwdata	00000180 alt_fd_list
00015128 g     O .rwdata	00000004 onePress
000239a4 g     O .bss	00000370 OSFlagTbl
00007afc g     F .text	000000b4 OS_EventTaskRemove
00011b54 g     F .text	00000090 alt_find_dev
00003d70 g     F .text	00000138 memcpy
0001519c g     O .rwdata	00000002 OSRdyTblSize
00010494 g     F .text	00000050 alt_up_character_lcd_write_fd
000117f0 g     F .text	0000005c alt_up_char_buffer_clear
000049b8 g     F .text	0000000c _cleanup_r
00011cd4 g     F .text	00000078 alt_io_redirect
00012de8 g       *ABS*	00000000 __DTOR_END__
00010a14 g     F .text	00000090 alt_up_irda_write_fd
0001138c g     F .text	00000074 alt_up_rs232_read_data
00002f74 g     F .text	00000014 puts
000128fc g     F .text	0000009c alt_exception_cause_generated_bad_addr
0000680c g     F .text	00000120 OSEventNameGet
00015180 g     O .rwdata	00000002 OSFlagMax
0001710c g     O .bss	00000004 last
00007148 g     F .text	000000f4 OSIntExit
000151ba g     O .rwdata	00000002 OSTCBSize
00017155 g     O .bss	00000001 OSPrioCur
00010810 g     F .text	00000040 alt_up_irda_get_used_space_in_read_FIFO
0000fc18 g     F .text	000002b4 altera_avalon_jtag_uart_read
00000000  w      *UND*	00000000 malloc
00005b30 g     F .text	00000008 .hidden __udivsi3
00005ddc g     F .text	000000a4 isatty
000151a0 g     O .rwdata	00000002 OSStkWidth
00015194 g     O .rwdata	00000002 OSPtrSize
00015174 g     O .rwdata	00000002 OSEventTblSize
000107b4 g     F .text	0000005c alt_up_irda_disable_read_interrupt
0001511c g     O .rwdata	00000004 xMenu
0001232c g       .text	00000000 OSCtxSw
00012870 g     F .text	0000008c alt_icache_flush
00017124 g     O .bss	00000004 __malloc_top_pad
00000648 g     F .text	00000104 moveDown
00017158 g     O .bss	00000004 OSTCBList
000170bc g     O .bss	00000004 gpio_dev
00015104 g     O .rwdata	00000004 leven
0001712c g     O .bss	00000004 alt_fd_list_lock
00003020 g     F .text	000004c0 __sfvwrite_r
00023d14 g     O .bss	00000c30 OSMemTbl
0001715c g     O .bss	00000001 OSTickStepState
0000456c g     F .text	00000054 _sbrk_r
000191d4 g     O .bss	00002000 menu_stk
00015198 g     O .rwdata	00000002 OSQMax
00024944 g     O .bss	00000800 OSTaskStatStk
0000b010 g     F .text	000000f8 OSMemNameGet
00015178 g     O .rwdata	00000002 OSFlagEn
000059b8 g     F .text	0000005c _read_r
000151be g     O .rwdata	00000002 OSTimeTickHookEn
0000bfd4 g     F .text	00000168 OSQPost
0000a104 g     F .text	000000a0 OS_FlagUnlink
00015150 g     O .rwdata	00000004 alt_max_fd
00011308 g     F .text	00000044 alt_up_rs232_check_parity
000080c0 g     F .text	00000064 OS_MemCopy
00008124 g     F .text	000000cc OS_Sched
000057ac g     F .text	000000f0 _fclose_r
0000af20 g     F .text	000000f0 OSMemGet
0000ac1c g     F .text	00000110 OSMboxQuery
0000e190 g     F .text	000001c0 OSTaskNameSet
00010bbc g     F .text	00000030 read_num_bytes_available
00004978 g     F .text	00000030 fflush
00017120 g     O .bss	00000004 __malloc_max_sbrked_mem
00017160 g     O .bss	00000004 OSCtxSwCtr
000125d0 g     F .text	0000001c OSTimeTickHook
00011d4c g     F .text	000001b0 alt_irq_register
00015182 g     O .rwdata	00000002 OSFlagNameSize
00010b24 g     F .text	00000034 read_RI_bit
00007bb0 g     F .text	000000fc OS_EventTaskRemoveMulti
000170c0 g     O .bss	00000004 controllerSem
000079b0 g     F .text	0000014c OS_EventTaskWaitMulti
0001519a g     O .rwdata	00000002 OSQSize
00005fb4 g     F .text	000000d4 lseek
0000cad8 g     F .text	00000268 OSSemPend
00015130 g     O .rwdata	00000004 _global_impure_ptr
00004004 g     F .text	00000568 _realloc_r
00017108 g     O .bss	00000004 vorige
00015184 g     O .rwdata	00000002 OSLowestPrio
00026cc8 g       *ABS*	00000000 __bss_end
00012640 g     F .text	00000020 OSTCBInitHook
000151ca g     O .rwdata	00000002 OSTmrCfgTicksPerSec
00012208 g     F .text	00000104 alt_tick
0000a9b0 g     F .text	00000110 OSMboxPost
000170c4 g     O .bss	00000004 counter1
0001516c g     O .rwdata	00000002 OSEventEn
000151c6 g     O .rwdata	00000002 OSTmrCfgNameSize
0c000000 g       *ABS*	00000000 __alt_mem_Flash_flash_data
00010c20 g     F .text	0000002c read_data_byte
00004d18 g     F .text	00000018 __fp_lock_all
00009f10 g     F .text	000000e4 OS_FlagInit
00012170 g     F .text	00000098 alt_alarm_stop
00010b58 g     F .text	00000030 read_RE_bit
000151a8 g     O .rwdata	00000002 OSTaskIdleStkSize
0001719c g     O .bss	00000004 alt_irq_active
0000c6c0 g     F .text	000000b0 OSSemAccept
00002618 g     F .text	00000090 VGA_text
0000b220 g     F .text	000000d8 OSMemPut
000170e8 g     O .bss	00000004 pixel_buffer_x
0000ad2c g     F .text	000001f4 OSMemCreate
00017164 g     O .bss	00000004 OSIdleCtrMax
0001b1d4 g     O .bss	00002000 controller1_stk
00010850 g     F .text	0000003c alt_up_irda_get_available_space_in_write_FIFO
000000fc g     F .exceptions	000000d4 alt_irq_handler
00013b64 g     O .rwdata	00000028 alt_dev_null
000151bc g     O .rwdata	00000002 OSTicksPerSec
00010728 g     F .text	00000034 alt_up_character_lcd_cursor_blink_on
00010ae4 g     F .text	00000040 alt_up_parallel_port_open_dev
0001232c g       .text	00000000 OSIntCtxSw
00010dc4 g     F .text	00000074 alt_up_ps2_write_data_byte
00000de0 g     F .text	0000015c endGame
0001198c g     F .text	0000001c alt_dcache_flush_all
00017168 g     O .bss	00000004 OSTCBFreeList
000151e4 g       *ABS*	00000000 __ram_rwdata_end
0000cd40 g     F .text	0000016c OSSemPendAbort
00015148 g     O .rwdata	00000008 alt_dev_list
00006408 g     F .text	000000f8 write
000151c0 g     O .rwdata	00000002 OSVersionNbr
00013310 g       *ABS*	00000000 __ram_rodata_end
00005cdc g     F .text	000000b0 fstat
00011490 g     F .text	00000094 alt_up_rs232_write_fd
00001d48 g     F .text	00000380 selecteerMenu
00000000 g       *ABS*	00000000 __alt_mem_SDRAM
00015168 g     O .rwdata	00000004 OSEndiannessTest
00005b38 g     F .text	00000008 .hidden __umodsi3
0001517a g     O .rwdata	00000002 OSFlagGrpSize
00000280 g     F .text	000000dc controllers
00026cc8 g       *ABS*	00000000 end
00011100 g     F .text	00000098 alt_up_ps2_write_fd
0001088c g     F .text	00000044 alt_up_irda_check_parity
00011564 g     F .text	00000080 alt_up_char_buffer_init
00013310 g     O .rwdata	00000028 nummer
00002288 g     F .text	000000f8 teken_menu
0000f5cc g     F .text	00000140 altera_avalon_jtag_uart_init
00008384 g     F .text	000000dc OS_TaskStat
000001d0 g     F .exceptions	00000074 alt_instruction_exception_entry
0000074c g     F .text	00000470 Game
00015100 g     O .rwdata	00000004 check
00012de8 g       *ABS*	00000000 __CTOR_LIST__
04000000 g       *ABS*	00000000 __alt_stack_pointer
00010204 g     F .text	00000080 alt_avalon_timer_sc_init
0000fecc g     F .text	000002c0 altera_avalon_jtag_uart_write
00004d08 g     F .text	00000004 __sfp_lock_acquire
00001be8 g     F .text	00000074 exec
00003c88 g     F .text	000000e8 memchr
00008070 g     F .text	00000050 OS_MemClr
000103a8 g     F .text	00000078 alt_up_character_lcd_write
000123fc g     F .text	0000015c OSTaskStkInit
00004e6c g     F .text	000002f0 _free_r
0000770c g     F .text	00000198 OS_EventTaskRdy
00012c18 g     F .text	00000194 __call_exitprocs
0001716c g     O .bss	00000001 OSCPUUsage
00015138 g     O .rwdata	00000004 __malloc_sbrk_base
00000244 g     F .text	0000003c _start
000027bc g     F .text	0000003c deleteNummer
000171a0 g     O .bss	00000004 _alt_tick_rate
0000bb6c g     F .text	000002fc OSQPend
0000eabc g     F .text	00000148 OSTimeDly
0001d1d4 g     O .bss	00002000 controller2_stk
000171a4 g     O .bss	00000004 _alt_nticks
000061ac g     F .text	000000fc read
0000f090 g     F .text	000003d8 alt_sys_init
000105e0 g     F .text	00000088 alt_up_character_lcd_shift_display
00012b04 g     F .text	00000114 __register_exitproc
0001716d g     O .bss	00000001 OSTaskCtr
00011020 g     F .text	00000054 alt_up_ps2_clear_fifo
000112cc g     F .text	0000003c alt_up_rs232_get_available_space_in_write_FIFO
000170d8 g     O .bss	00000004 score2
000170c8 g     O .bss	00000004 MailBox2
00002564 g     F .text	000000b4 VGA_box
0000ec04 g     F .text	00000168 OSTimeDlyHMSM
00001054 g     F .text	000003c4 Singleplayer
00010668 g     F .text	0000008c alt_up_character_lcd_erase_pos
0000fac4 g     F .text	00000068 altera_avalon_jtag_uart_close
00013310 g       *ABS*	00000000 __ram_rwdata_start
00012de8 g       *ABS*	00000000 __ram_rodata_start
000171ac g     O .bss	00000028 __malloc_current_mallinfo
0001516e g     O .rwdata	00000002 OSEventMax
0000ceac g     F .text	00000110 OSSemPost
000072c4 g     F .text	000000d8 OSSchedUnlock
000026a8 g     F .text	00000068 draw_middenlijn
0000f468 g     F .text	00000060 altera_avalon_jtag_uart_read_fd
00012774 g     F .text	000000fc alt_get_fd
00017170 g     O .bss	00000004 OSMemFreeList
00007408 g     F .text	000000ac OSStatInit
00009c88 g     F .text	000000c4 OSFlagQuery
000151a4 g     O .rwdata	00000002 OSTaskCreateExtEn
00005758 g     F .text	00000054 _close_r
000129e4 g     F .text	0000007c memcmp
000076f0 g     F .text	0000001c OS_Dummy
0000f528 g     F .text	00000050 altera_avalon_jtag_uart_close_fd
00026cc8 g       *ABS*	00000000 __alt_stack_base
0000f578 g     F .text	00000054 altera_avalon_jtag_uart_ioctl_fd
00017110 g     O .bss	00000004 changed
0001075c g     F .text	00000058 alt_up_irda_enable_read_interrupt
000045c0 g     F .text	00000154 __swsetup_r
00025144 g     O .bss	000001e0 OSQTbl
0000035c g     F .text	000001a0 controller
00004bc8 g     F .text	00000118 __sfp
0001375c g     O .rwdata	00000408 __malloc_av_
000170ec g     O .bss	00000004 ALT_y
00004d14 g     F .text	00000004 __sinit_lock_release
00017174 g     O .bss	00000004 OSTCBHighRdy
000055c0 g     F .text	00000054 __sread
00017178 g     O .bss	00000004 OSQFreeList
00011230 g     F .text	0000005c alt_up_rs232_disable_read_interrupt
00012660 g     F .text	00000114 alt_find_file
000119f8 g     F .text	000000a4 alt_dev_llist_insert
0000661c g     F .text	00000120 __malloc_lock
00006308 g     F .text	000000b0 sbrk
000170f0 g     O .bss	00000004 ALT_inc_y
0000692c g     F .text	0000013c OSEventNameSet
0000491c g     F .text	0000005c _fflush_r
0001717c g     O .bss	00000001 OSRdyGrp
000170b8 g       *ABS*	00000000 __bss_start
0000549c g     F .text	00000124 memset
00002380 g     F .text	000001e4 main
00017138 g     O .bss	00000004 alt_envp
0001711c g     O .bss	00000004 __malloc_max_total_mem
000115e4 g     F .text	00000040 alt_up_char_buffer_open_dev
0000f4c8 g     F .text	00000060 altera_avalon_jtag_uart_write_fd
00013040 g     O .rodata	00000100 OSUnMapTbl
0001519e g     O .rwdata	00000002 OSSemEn
00010558 g     F .text	00000088 alt_up_character_lcd_shift_cursor
00009900 g     F .text	00000388 OSFlagPost
000056f4 g     F .text	00000008 __sclose
04000000 g       *ABS*	00000000 __alt_heap_limit
0000589c g     F .text	00000014 fclose
000078a4 g     F .text	0000010c OS_EventTaskWait
00010fb0 g     F .text	00000070 alt_up_ps2_read_data_byte
00017118 g     O .bss	00000004 timeout
00008460 g     F .text	000000c8 OS_TaskStatStkChk
0000de90 g     F .text	00000158 OSTaskDelReq
000034e0 g     F .text	000007a8 _malloc_r
00015154 g     O .rwdata	00000004 alt_errno
0000739c g     F .text	0000006c OSStart
000065c0 g     F .text	0000005c __env_unlock
0000515c g     F .text	000000c4 _fwalk
0000e350 g     F .text	000001f8 OSTaskResume
0000b2f8 g     F .text	000000e8 OSMemQuery
000151b0 g     O .rwdata	00000002 OSTaskStatEn
0001f1d4 g     O .bss	00002000 Game_stk
000108d0 g     F .text	00000040 alt_up_irda_write_data
0001518a g     O .rwdata	00000002 OSMemMax
0000c13c g     F .text	00000170 OSQPostFront
00011198 g     F .text	00000040 alt_up_ps2_open_dev
00005a80 g     F .text	00000054 .hidden __divsi3
0001717d g     O .bss	00000003 OSRdyTbl
00015164 g     O .rwdata	00000002 OSDebugEn
00010368 g     F .text	00000040 alt_up_character_lcd_open_dev
00004d48 g     F .text	00000124 _malloc_trim_r
00010d10 g     F .text	00000058 alt_up_ps2_enable_read_interrupt
00012de8 g       *ABS*	00000000 __CTOR_END__
0001517c g     O .rwdata	00000002 OSFlagNodeSize
000151c4 g     O .rwdata	00000002 OSTmrCfgMax
00010334 g     F .text	00000034 alt_up_character_lcd_init
00012a60 g     F .text	000000a4 strcmp
0000b5f0 g     F .text	000001fc OSQCreate
0000dfe8 g     F .text	000001a8 OSTaskNameGet
00012de8 g       *ABS*	00000000 __flash_rodata_start
0000c2ac g     F .text	0000020c OSQPostOpt
000074b4 g     F .text	0000021c OSTimeTick
000151ac g     O .rwdata	00000002 OSTaskMax
00012de8 g       *ABS*	00000000 __DTOR_LIST__
0000c770 g     F .text	00000100 OSSemCreate
000151d0 g     O .rwdata	00000002 OSTmrWheelSize
00011524 g     F .text	00000040 alt_up_rs232_open_dev
000170f4 g     O .bss	00000004 gameSem
000151a6 g     O .rwdata	00000002 OSTaskDelEn
0000cfbc g     F .text	00000110 OSSemQuery
0000b7ec g     F .text	000002c8 OSQDel
0000be68 g     F .text	0000016c OSQPendAbort
0000f05c g     F .text	00000034 alt_irq_init
000062a8 g     F .text	00000060 alt_release_fd
000004fc g     F .text	0000004c checkID
00010bec g     F .text	00000034 read_data_valid
000106f4 g     F .text	00000034 alt_up_character_lcd_cursor_off
00010ea8 g     F .text	00000064 alt_up_ps2_write_data_byte_with_ack
00012998 g     F .text	00000014 atexit
0000274c g     F .text	00000070 del_number
000056fc g     F .text	0000005c _write_r
0000723c g     F .text	00000088 OSSchedLock
00008c90 g     F .text	00000128 OSFlagCreate
00015134 g     O .rwdata	00000004 _impure_ptr
00017130 g     O .bss	00000004 alt_argc
00004714 g     F .text	00000208 __sflush_r
00011af8 g     F .text	0000005c _do_dtors
00015176 g     O .rwdata	00000002 OSEventMultiEn
00008db8 g     F .text	00000270 OSFlagDel
00017180 g     O .bss	00000004 OSEventFreeList
00000020 g       .exceptions	00000000 alt_irq_entry
0000a844 g     F .text	0000016c OSMboxPendAbort
000151c2 g     O .rwdata	00000002 OSTmrEn
000092a8 g     F .text	000005f0 OSFlagPend
00004d30 g     F .text	00000018 __fp_unlock_all
00015140 g     O .rwdata	00000008 alt_fs_list
00008260 g     F .text	00000074 OS_StrCopy
000111d8 g     F .text	00000058 alt_up_rs232_enable_read_interrupt
0001134c g     F .text	00000040 alt_up_rs232_write_data
00000548 g     F .text	00000100 moveUp
0001518c g     O .rwdata	00000002 OSMemNameSize
000170f8 g     O .bss	00000004 ALT_x1
00012608 g     F .text	0000001c OSInitHookEnd
000211d4 g     O .bss	000007d0 Messages
000027f8 g     F .text	00000674 draw_number
00000020 g       *ABS*	00000000 __ram_exceptions_start
000151b8 g     O .rwdata	00000002 OSTCBPrioTblMax
000151b4 g     O .rwdata	00000002 OSTaskStatStkChkEn
0000a23c g     F .text	000000fc OSMboxCreate
00015188 g     O .rwdata	00000002 OSMemEn
000150fc g     O .rwdata	00000004 first
00015192 g     O .rwdata	00000002 OSMutexEn
000151e4 g       *ABS*	00000000 _edata
0001512c g     O .rwdata	00000004 interval_timer_ptr
00026cc8 g       *ABS*	00000000 _end
00017184 g     O .bss	00000001 OSIntNesting
00000244 g       *ABS*	00000000 __ram_exceptions_end
0000fb2c g     F .text	000000ec altera_avalon_jtag_uart_ioctl
0000ed6c g     F .text	000001f0 OSTimeDlyResume
00009158 g     F .text	00000150 OSFlagNameSet
00002108 g     F .text	000000a0 clearText
0000a5a0 g     F .text	000002a4 OSMboxPend
0000e548 g     F .text	000001c8 OSTaskStkChk
0001518e g     O .rwdata	00000002 OSMemSize
0000561c g     F .text	0000007c __swrite
0001513c g     O .rwdata	00000004 __malloc_trim_threshold
00017188 g     O .bss	00000004 OSTCBCur
000129ac g     F .text	00000038 exit
00002e6c g     F .text	00000060 checkIDScore
00010910 g     F .text	00000074 alt_up_irda_read_data
00015190 g     O .rwdata	00000002 OSMemTblSize
00005220 g     F .text	000000c4 _fwalk_reent
00010c4c g     F .text	000000c4 alt_up_ps2_init
00005ad4 g     F .text	0000005c .hidden __modsi3
000219a4 g     O .bss	00002000 menu_stk2
0000a1a4 g     F .text	00000098 OSMboxAccept
04000000 g       *ABS*	00000000 __alt_data_end
00000020 g     F .exceptions	00000000 alt_exception
00004d0c g     F .text	00000004 __sfp_lock_release
00007078 g     F .text	00000054 OSInit
0000e924 g     F .text	0000012c OSTaskQuery
00010420 g     F .text	00000074 alt_up_character_lcd_string
0000c614 g     F .text	000000ac OS_QInit
000082d4 g     F .text	00000054 OS_StrLen
00010aa4 g     F .text	00000040 alt_up_irda_open_dev
0000b108 g     F .text	00000118 OSMemNameSet
00000bbc g     F .text	00000224 gescoord
000151aa g     O .rwdata	00000002 OSTaskProfileEn
0001718c g     O .bss	00000004 OSTime
000170cc g     O .bss	00000004 Flags
000021a8 g     F .text	00000058 tekenBox
00025324 g     O .bss	00000800 OSTaskIdleStk
00012dac g     F .text	0000003c _exit
000170fc g     O .bss	00000004 ALT_inc_x
0000aac0 g     F .text	0000015c OSMboxPostOpt
0001184c g     F .text	00000140 alt_alarm_start
00009028 g     F .text	00000130 OSFlagNameGet
0000ef5c g     F .text	00000064 OSTimeGet
000052e4 g     F .text	000001b8 __smakebuf_r
00010e38 g     F .text	00000070 alt_up_ps2_wait_for_ack
00002f88 g     F .text	00000098 strlen
00012598 g     F .text	0000001c OSTaskSwHook
00012018 g     F .text	00000158 open
00025b24 g     O .bss	00000b40 OSEventTbl
00026664 g     O .bss	00000510 OSTCBTbl
0000d0cc g     F .text	000000fc OSSemSet
00015124 g     O .rwdata	00000004 eenkeer
000020c8 g     F .text	00000040 clearScreen
00017100 g     O .bss	00000004 ALT_x2
00011be4 g     F .text	00000030 alt_icache_flush_all
000104e4 g     F .text	00000074 alt_up_character_lcd_set_cursor_pos
000151d8 g     O .rwdata	00000004 alt_priority_mask
0000c870 g     F .text	00000268 OSSemDel
00017190 g     O .bss	00000004 OSFlagFreeList
00015170 g     O .rwdata	00000002 OSEventNameSize
0000a338 g     F .text	00000268 OSMboxDel
00017194 g     O .bss	00000001 OSStatRdy
000170d0 g     O .bss	00000004 MailBox
00026b74 g     O .bss	00000054 OSTCBPrioTbl
00006500 g     F .text	000000c0 __env_lock
00011074 g     F .text	0000008c alt_up_ps2_read_fd
000151b6 g     O .rwdata	00000002 OSTaskSwHookEn
0001510c g     O .rwdata	00000004 xLinks
00010984 g     F .text	00000090 alt_up_irda_read_fd
000151dc g     O .rwdata	00000008 alt_alarm_list
0001517e g     O .rwdata	00000002 OSFlagWidth
00011a9c g     F .text	0000005c _do_ctors
0001128c g     F .text	00000040 alt_up_rs232_get_used_space_in_read_FIFO
00005b90 g     F .text	000000d0 close
00017140 g     O .bss	00000004 alt_envsem
00017198 g     O .bss	00000004 OSIdleCtrRun
00015118 g     O .rwdata	00000004 xOnder
000076d0 g     F .text	00000020 OSVersion
000151c8 g     O .rwdata	00000002 OSTmrCfgWheelSize
00005ee4 g     F .text	00000080 alt_load
0000ea50 g     F .text	0000006c OS_TaskStkClr
00002200 g     F .text	00000088 tekenBox2
000151a2 g     O .rwdata	00000002 OSTaskCreateEn
00017114 g     O .bss	00000004 menuSem
00007cac g     F .text	00000064 OS_EventWaitListInit
00012624 g     F .text	0000001c OSTaskIdleHook
00017104 g     O .bss	00000004 X
00000000  w      *UND*	00000000 free
00004d10 g     F .text	00000004 __sinit_lock_acquire
00000f3c g     F .text	00000118 endSingleplayer
0000e710 g     F .text	00000214 OSTaskSuspend
000170d4 g     O .bss	00000004 counter2
00008328 g     F .text	0000005c OS_TaskIdle
000151ce g     O .rwdata	00000002 OSTmrTblSize
0000c4b8 g     F .text	0000015c OSQQuery



Disassembly of section .entry:

00000000 <__reset>:
#if NIOS2_ICACHE_SIZE > 0 && defined(ALT_ALLOW_CODE_AT_RESET) && (!defined(ALT_SIM_OPTIMIZE) || defined(NIOS2_ECC_PRESENT))
    /* Assume the instruction cache size is always a power of two. */
#if NIOS2_ICACHE_SIZE > 0x8000
    movhi r2, %hi(NIOS2_ICACHE_SIZE)
#else
    movui r2, NIOS2_ICACHE_SIZE
   0:	00840014 	movui	r2,4096
#endif

0:
    initi r2
   4:	1001483a 	initi	r2
    addi r2, r2, -NIOS2_ICACHE_LINE_SIZE
   8:	10bff804 	addi	r2,r2,-32
    bgt r2, zero, 0b
   c:	00bffd16 	blt	zero,r2,4 <__alt_mem_Flash_flash_data+0xf4000004>
 * Jump to the _start entry point in the .text section if reset code
 * is allowed or if optimizing for RTL simulation.
 */
#if defined(ALT_ALLOW_CODE_AT_RESET) || defined(ALT_SIM_OPTIMIZE)
    /* Jump to the _start entry point in the .text section. */
    movhi r1, %hi(_start)
  10:	00400034 	movhi	at,0
    ori r1, r1, %lo(_start)
  14:	08409114 	ori	at,at,580
    jmp r1
  18:	0800683a 	jmp	at
  1c:	00000000 	call	0 <__reset>

Disassembly of section .exceptions:

00000020 <alt_exception>:

#else /* ALT_EXCEPTION_STACK disabled */
        /* 
         * Reserve space on normal stack for registers about to be pushed.
         */
        addi  sp, sp, -76
  20:	deffed04 	addi	sp,sp,-76
         * documentation for details).
         *
         * Leave a gap in the stack frame at 4(sp) for the muldiv handler to
         * store zero into.
         */
        stw   ra,  0(sp)
  24:	dfc00015 	stw	ra,0(sp)
        stw   r1,   8(sp)
  28:	d8400215 	stw	at,8(sp)
        stw   r2,  12(sp)
  2c:	d8800315 	stw	r2,12(sp)
        stw   r3,  16(sp)
  30:	d8c00415 	stw	r3,16(sp)
        stw   r4,  20(sp)
  34:	d9000515 	stw	r4,20(sp)
        stw   r5,  24(sp)
  38:	d9400615 	stw	r5,24(sp)
        stw   r6,  28(sp)
  3c:	d9800715 	stw	r6,28(sp)
        stw   r7,  32(sp)
  40:	d9c00815 	stw	r7,32(sp)
        rdctl r5, estatus   /* Read early to avoid usage stall */
  44:	000b307a 	rdctl	r5,estatus
        stw   r8,  36(sp)
  48:	da000915 	stw	r8,36(sp)
        stw   r9,  40(sp)
  4c:	da400a15 	stw	r9,40(sp)
        stw   r10, 44(sp)
  50:	da800b15 	stw	r10,44(sp)
        stw   r11, 48(sp)
  54:	dac00c15 	stw	r11,48(sp)
        stw   r12, 52(sp)
  58:	db000d15 	stw	r12,52(sp)
        stw   r13, 56(sp)
  5c:	db400e15 	stw	r13,56(sp)
        stw   r14, 60(sp)
  60:	db800f15 	stw	r14,60(sp)
        stw   r15, 64(sp)
  64:	dbc01015 	stw	r15,64(sp)
        /*
         * ea-4 contains the address of the instruction being executed
         * when the exception occured. For interrupt exceptions, we will
         * will be re-issue the isntruction. Store it in 72(sp)
         */
        stw   r5,  68(sp)  /* estatus */
  68:	d9401115 	stw	r5,68(sp)
        addi  r15, ea, -4  /* instruction that caused exception */
  6c:	ebffff04 	addi	r15,ea,-4
        stw   r15,  72(sp)
  70:	dbc01215 	stw	r15,72(sp)
#else
        /*
         * Test to see if the exception was a software exception or caused 
         * by an external interrupt, and vector accordingly.
         */
        rdctl r4, ipending
  74:	0009313a 	rdctl	r4,ipending
        andi  r2, r5, 1
  78:	2880004c 	andi	r2,r5,1
        beq   r2, zero, .Lnot_irq
  7c:	10000326 	beq	r2,zero,8c <OSCtxSw_SWITCH_PC+0x4c>
        beq   r4, zero, .Lnot_irq
  80:	20000226 	beq	r4,zero,8c <OSCtxSw_SWITCH_PC+0x4c>
        /*
         * Now that all necessary registers have been preserved, call 
         * alt_irq_handler() to process the interrupts.
         */

        call alt_irq_handler
  84:	00000fc0 	call	fc <alt_irq_handler>

        .section .exceptions.irqreturn, "xa"

        br    .Lexception_exit
  88:	00000706 	br	a8 <OSCtxSw_SWITCH_PC+0x68>
         * upon completion, so we write ea (address of instruction *after*
         * the one where the exception occured) into 72(sp). The actual
         * instruction that caused the exception is written in r2, which these
         * handlers will utilize.
         */
        stw   ea,  72(sp)  /* Don't re-issue */
  8c:	df401215 	stw	ea,72(sp)
        ldhu.n  r2, 0(r4)
        ldhu.n  r3, 2(r4)
        slli.n  r3, r3, 16
        or.n    r2, r2, r3 /* Instruction that caused exception */
#else
        ldw   r2, -4(ea)   /* Instruction that caused exception */
  90:	e8bfff17 	ldw	r2,-4(ea)
         * debugger is present) or go into an infinite loop since the
         * handling behavior is undefined; in that case we will not return here.
         */

        /* Load exception-causing address as first argument (r4) */
        addi   r4, ea, -4
  94:	e93fff04 	addi	r4,ea,-4

        /* Call the instruction-exception entry */
        call   alt_instruction_exception_entry
  98:	00001d00 	call	1d0 <alt_instruction_exception_entry>
         * instruction
         *
         * Return code was 0: Skip. The instruction after the exception is
         * already stored in 72(sp).
         */
        bne   r2, r0, .Lexception_exit
  9c:	1000021e 	bne	r2,zero,a8 <OSCtxSw_SWITCH_PC+0x68>

        /*
         * Otherwise, modify 72(sp) to re-issue the instruction that caused the
         * exception.
         */
        addi  r15, ea, -4  /* instruction that caused exception */
  a0:	ebffff04 	addi	r15,ea,-4
        stw   r15,  72(sp)
  a4:	dbc01215 	stw	r15,72(sp)
        /* 
         * Restore the saved registers, so that all general purpose registers 
         * have been restored to their state at the time the interrupt occured.
         */

        ldw   r5,  68(sp)
  a8:	d9401117 	ldw	r5,68(sp)
        ldw   ea,  72(sp)  /* This becomes the PC once eret is executed */
  ac:	df401217 	ldw	ea,72(sp)
        ldw   ra,   0(sp)
  b0:	dfc00017 	ldw	ra,0(sp)

        wrctl estatus, r5
  b4:	2801707a 	wrctl	estatus,r5

        ldw   r1,   8(sp)
  b8:	d8400217 	ldw	at,8(sp)
        ldw   r2,  12(sp)
  bc:	d8800317 	ldw	r2,12(sp)
        ldw   r3,  16(sp)
  c0:	d8c00417 	ldw	r3,16(sp)
        ldw   r4,  20(sp)
  c4:	d9000517 	ldw	r4,20(sp)
        ldw   r5,  24(sp)
  c8:	d9400617 	ldw	r5,24(sp)
        ldw   r6,  28(sp)
  cc:	d9800717 	ldw	r6,28(sp)
        ldw   r7,  32(sp)
  d0:	d9c00817 	ldw	r7,32(sp)

#if defined(ALT_EXCEPTION_STACK) && defined(ALT_STACK_CHECK)
        ldw   et, %gprel(alt_exception_old_stack_limit)(gp)
#endif

        ldw   r8,  36(sp)
  d4:	da000917 	ldw	r8,36(sp)
        ldw   r9,  40(sp)
  d8:	da400a17 	ldw	r9,40(sp)
        ldw   r10, 44(sp)
  dc:	da800b17 	ldw	r10,44(sp)
        ldw   r11, 48(sp)
  e0:	dac00c17 	ldw	r11,48(sp)
        ldw   r12, 52(sp)
  e4:	db000d17 	ldw	r12,52(sp)
        ldw   r13, 56(sp)
  e8:	db400e17 	ldw	r13,56(sp)
        ldw   r14, 60(sp)
  ec:	db800f17 	ldw	r14,60(sp)
        ldw   r15, 64(sp)
  f0:	dbc01017 	ldw	r15,64(sp)
        stw   et, %gprel(alt_stack_limit_value)(gp)
        stw   zero, %gprel(alt_exception_old_stack_limit)(gp)
#endif /* ALT_STACK_CHECK */
        ldw   sp,  76(sp)
#else /* ALT_EXCEPTION_STACK disabled */
        addi  sp, sp, 76
  f4:	dec01304 	addi	sp,sp,76

        /*
         * Return to the interrupted instruction.
         */

        eret
  f8:	ef80083a 	eret

000000fc <alt_irq_handler>:
 * instruction is present if the macro ALT_CI_INTERRUPT_VECTOR defined.
 */

void alt_irq_handler (void) __attribute__ ((section (".exceptions")));
void alt_irq_handler (void)
{
  fc:	defff904 	addi	sp,sp,-28
 100:	dfc00615 	stw	ra,24(sp)
 104:	df000515 	stw	fp,20(sp)
 108:	df000504 	addi	fp,sp,20
  
  /*
   * Notify the operating system that we are at interrupt level.
   */ 
  
  ALT_OS_INT_ENTER();
 10c:	00070cc0 	call	70cc <OSIntEnter>
#ifndef NIOS2_EIC_PRESENT
static ALT_INLINE alt_u32 ALT_ALWAYS_INLINE alt_irq_pending (void)
{
  alt_u32 active;

  NIOS2_READ_IPENDING (active);
 110:	0005313a 	rdctl	r2,ipending
 114:	e0bffe15 	stw	r2,-8(fp)

  return active;
 118:	e0bffe17 	ldw	r2,-8(fp)
   * Consider the case where the high priority interupt is asserted during
   * the interrupt entry sequence for a lower priority interrupt to see why
   * this is the case.
   */

  active = alt_irq_pending ();
 11c:	e0bffb15 	stw	r2,-20(fp)

  do
  {
    i = 0;
 120:	e03ffd15 	stw	zero,-12(fp)
    mask = 1;
 124:	00800044 	movi	r2,1
 128:	e0bffc15 	stw	r2,-16(fp)
     * called to clear the interrupt condition.
     */

    do
    {
      if (active & mask)
 12c:	e0fffb17 	ldw	r3,-20(fp)
 130:	e0bffc17 	ldw	r2,-16(fp)
 134:	1884703a 	and	r2,r3,r2
 138:	10001526 	beq	r2,zero,190 <alt_irq_handler+0x94>
      { 
#ifdef ALT_ENHANCED_INTERRUPT_API_PRESENT
        alt_irq[i].handler(alt_irq[i].context); 
#else
        alt_irq[i].handler(alt_irq[i].context, i); 
 13c:	008000b4 	movhi	r2,2
 140:	109af204 	addi	r2,r2,27592
 144:	e0fffd17 	ldw	r3,-12(fp)
 148:	180690fa 	slli	r3,r3,3
 14c:	10c5883a 	add	r2,r2,r3
 150:	10c00017 	ldw	r3,0(r2)
 154:	008000b4 	movhi	r2,2
 158:	109af204 	addi	r2,r2,27592
 15c:	e13ffd17 	ldw	r4,-12(fp)
 160:	200890fa 	slli	r4,r4,3
 164:	21000104 	addi	r4,r4,4
 168:	1105883a 	add	r2,r2,r4
 16c:	10800017 	ldw	r2,0(r2)
 170:	1009883a 	mov	r4,r2
 174:	e17ffd17 	ldw	r5,-12(fp)
 178:	183ee83a 	callr	r3
#endif
        break;
 17c:	0001883a 	nop
#ifndef NIOS2_EIC_PRESENT
static ALT_INLINE alt_u32 ALT_ALWAYS_INLINE alt_irq_pending (void)
{
  alt_u32 active;

  NIOS2_READ_IPENDING (active);
 180:	0005313a 	rdctl	r2,ipending
 184:	e0bfff15 	stw	r2,-4(fp)

  return active;
 188:	e0bfff17 	ldw	r2,-4(fp)
 18c:	00000706 	br	1ac <alt_irq_handler+0xb0>
      }
      mask <<= 1;
 190:	e0bffc17 	ldw	r2,-16(fp)
 194:	1085883a 	add	r2,r2,r2
 198:	e0bffc15 	stw	r2,-16(fp)
      i++;
 19c:	e0bffd17 	ldw	r2,-12(fp)
 1a0:	10800044 	addi	r2,r2,1
 1a4:	e0bffd15 	stw	r2,-12(fp)

    } while (1);
 1a8:	003fe006 	br	12c <__alt_mem_Flash_flash_data+0xf400012c>

    active = alt_irq_pending ();
 1ac:	e0bffb15 	stw	r2,-20(fp)
    
  } while (active);
 1b0:	e0bffb17 	ldw	r2,-20(fp)
 1b4:	103fda1e 	bne	r2,zero,120 <__alt_mem_Flash_flash_data+0xf4000120>

  /*
   * Notify the operating system that interrupt processing is complete.
   */ 

  ALT_OS_INT_EXIT();
 1b8:	00071480 	call	7148 <OSIntExit>
}
 1bc:	e037883a 	mov	sp,fp
 1c0:	dfc00117 	ldw	ra,4(sp)
 1c4:	df000017 	ldw	fp,0(sp)
 1c8:	dec00204 	addi	sp,sp,8
 1cc:	f800283a 	ret

000001d0 <alt_instruction_exception_entry>:
 * that handler if it has been registered. Absent a handler, it will
 * break break or hang as discussed below.
 */
int 
alt_instruction_exception_entry (alt_u32 exception_pc)
{
 1d0:	defffb04 	addi	sp,sp,-20
 1d4:	dfc00415 	stw	ra,16(sp)
 1d8:	df000315 	stw	fp,12(sp)
 1dc:	df000304 	addi	fp,sp,12
 1e0:	e13fff15 	stw	r4,-4(fp)
 * NIOS2_EXCEPTION_CAUSE_NOT_PRESENT. Your handling routine should
 * check the validity of the cause argument before proceeding.
 */
#ifdef NIOS2_HAS_EXTRA_EXCEPTION_INFO
  /* Get exception cause & "badaddr" */
  NIOS2_READ_EXCEPTION(cause);
 1e4:	000531fa 	rdctl	r2,exception
 1e8:	e0bffd15 	stw	r2,-12(fp)
  cause = ( (cause & NIOS2_EXCEPTION_REG_CAUSE_MASK) >>
 1ec:	e0bffd17 	ldw	r2,-12(fp)
 1f0:	10801f0c 	andi	r2,r2,124
 1f4:	1004d0ba 	srli	r2,r2,2
 1f8:	e0bffd15 	stw	r2,-12(fp)
              NIOS2_EXCEPTION_REG_CAUSE_OFST );

  NIOS2_READ_BADADDR(badaddr);
 1fc:	0005333a 	rdctl	r2,badaddr
 200:	e0bffe15 	stw	r2,-8(fp)
#else
  cause = NIOS2_EXCEPTION_CAUSE_NOT_PRESENT;
  badaddr = 0;
#endif /* NIOS2_HAS_EXTRA_EXCEPTION_INFO */

  if(alt_instruction_exception_handler) {
 204:	d0a82b17 	ldw	r2,-24404(gp)
 208:	10000726 	beq	r2,zero,228 <alt_instruction_exception_entry+0x58>
     * Call handler. Its return value indicates whether the exception-causing
     * instruction should be re-issued. The code that called us,
     * alt_eceptions_entry.S, will look at this value and adjust the ea
     * register as necessary
     */
    return alt_instruction_exception_handler(cause, exception_pc, badaddr);
 20c:	d0a82b17 	ldw	r2,-24404(gp)
 210:	e0fffd17 	ldw	r3,-12(fp)
 214:	1809883a 	mov	r4,r3
 218:	e17fff17 	ldw	r5,-4(fp)
 21c:	e1bffe17 	ldw	r6,-8(fp)
 220:	103ee83a 	callr	r2
 224:	00000206 	br	230 <alt_instruction_exception_entry+0x60>
   *    (a peripheral which negates its interrupt output before its
   *    interrupt handler has been executed will cause spurious interrupts)
   */
  else {
#ifdef NIOS2_HAS_DEBUG_STUB
    NIOS2_BREAK();
 228:	003da03a 	break	0
      ;
#endif /* NIOS2_HAS_DEBUG_STUB */
  }

  /* We should not get here. Remove compiler warning. */
  return NIOS2_EXCEPTION_RETURN_REISSUE_INST;
 22c:	0005883a 	mov	r2,zero
}
 230:	e037883a 	mov	sp,fp
 234:	dfc00117 	ldw	ra,4(sp)
 238:	df000017 	ldw	fp,0(sp)
 23c:	dec00204 	addi	sp,sp,8
 240:	f800283a 	ret

Disassembly of section .text:

00000244 <_start>:

    /*
     * Now that the caches are initialized, set up the stack pointer and global pointer.
     * The values provided by the linker are assumed to be correctly aligned.
     */
    movhi sp, %hi(__alt_stack_pointer)
     244:	06c10034 	movhi	sp,1024
    ori sp, sp, %lo(__alt_stack_pointer)
     248:	dec00014 	ori	sp,sp,0
    movhi gp, %hi(_gp)
     24c:	06800074 	movhi	gp,1
    ori gp, gp, %lo(_gp)
     250:	d6b43f14 	ori	gp,gp,53500
 */
#ifndef ALT_SIM_OPTIMIZE
    /* Log that the BSS is about to be cleared. */
    ALT_LOG_PUTS(alt_log_msg_bss)

    movhi r2, %hi(__bss_start)
     254:	00800074 	movhi	r2,1
    ori r2, r2, %lo(__bss_start)
     258:	109c2e14 	ori	r2,r2,28856

    movhi r3, %hi(__bss_end)
     25c:	00c000b4 	movhi	r3,2
    ori r3, r3, %lo(__bss_end)
     260:	18db3214 	ori	r3,r3,27848

    beq r2, r3, 1f
     264:	10c00326 	beq	r2,r3,274 <_start+0x30>

0:
    stw zero, (r2)
     268:	10000015 	stw	zero,0(r2)
    addi r2, r2, 4
     26c:	10800104 	addi	r2,r2,4
    bltu r2, r3, 0b
     270:	10fffd36 	bltu	r2,r3,268 <__alt_mem_Flash_flash_data+0xf4000268>
     * section aren't defined until alt_load() has been called).
     */
    mov   et, zero
#endif

    call alt_load
     274:	0005ee40 	call	5ee4 <alt_load>

    /* Log that alt_main is about to be called. */
    ALT_LOG_PUTS(alt_log_msg_alt_main)

    /* Call the C entry point. It should never return. */
    call alt_main
     278:	00060880 	call	6088 <alt_main>

0000027c <alt_after_alt_main>:

    /* Wait in infinite loop in case alt_main does return. */
alt_after_alt_main:
    br alt_after_alt_main
     27c:	003fff06 	br	27c <__alt_mem_Flash_flash_data+0xf400027c>

00000280 <controllers>:
}Balk;

alt_up_parallel_port_dev *gpio_dev; //	gpio device


void controllers(void* pdata) {
     280:	defff804 	addi	sp,sp,-32
     284:	dfc00715 	stw	ra,28(sp)
     288:	df000615 	stw	fp,24(sp)
     28c:	df000604 	addi	fp,sp,24
     290:	e13fff15 	stw	r4,-4(fp)
	INT8U err;

	int ID = (int*) pdata;
     294:	e0bfff17 	ldw	r2,-4(fp)
     298:	e0bffc15 	stw	r2,-16(fp)
	int hoogte = 50;
     29c:	00800c84 	movi	r2,50
     2a0:	e0bffb15 	stw	r2,-20(fp)

	Balk balkje;

	while (1) {
		OSFlagPend(Flags, C1_Flag + C2_Flag, OS_FLAG_WAIT_CLR_ANY, 0, &err);
     2a4:	d0e7f417 	ldw	r3,-24624(gp)
     2a8:	e0bffd04 	addi	r2,fp,-12
     2ac:	d8800015 	stw	r2,0(sp)
     2b0:	1809883a 	mov	r4,r3
     2b4:	01400304 	movi	r5,12
     2b8:	01800044 	movi	r6,1
     2bc:	000f883a 	mov	r7,zero
     2c0:	00092a80 	call	92a8 <OSFlagPend>
		balkje.Hoogte = hoogte;
     2c4:	e0bffb17 	ldw	r2,-20(fp)
     2c8:	e0bffe15 	stw	r2,-8(fp)

		if (controller(ID) == 1) {
     2cc:	e13ffc17 	ldw	r4,-16(fp)
     2d0:	000035c0 	call	35c <controller>
     2d4:	10800058 	cmpnei	r2,r2,1
     2d8:	1000051e 	bne	r2,zero,2f0 <controllers+0x70>
			hoogte = moveDown(ID, hoogte);
     2dc:	e13ffc17 	ldw	r4,-16(fp)
     2e0:	e17ffb17 	ldw	r5,-20(fp)
     2e4:	00006480 	call	648 <moveDown>
     2e8:	e0bffb15 	stw	r2,-20(fp)
     2ec:	00000706 	br	30c <controllers+0x8c>
		} else if (controller(ID) == 0) {
     2f0:	e13ffc17 	ldw	r4,-16(fp)
     2f4:	000035c0 	call	35c <controller>
     2f8:	1000041e 	bne	r2,zero,30c <controllers+0x8c>
			hoogte = moveUp(ID, hoogte);
     2fc:	e13ffc17 	ldw	r4,-16(fp)
     300:	e17ffb17 	ldw	r5,-20(fp)
     304:	00005480 	call	548 <moveUp>
     308:	e0bffb15 	stw	r2,-20(fp)
		}

		if(ID == 1){
     30c:	e0bffc17 	ldw	r2,-16(fp)
     310:	10800058 	cmpnei	r2,r2,1
     314:	1000061e 	bne	r2,zero,330 <controllers+0xb0>
			OSMboxPost(MailBox, (void*)&balkje);
     318:	d0e7f517 	ldw	r3,-24620(gp)
     31c:	e0bffe04 	addi	r2,fp,-8
     320:	1809883a 	mov	r4,r3
     324:	100b883a 	mov	r5,r2
     328:	000a9b00 	call	a9b0 <OSMboxPost>
     32c:	00000806 	br	350 <controllers+0xd0>
		}else if(ID == 2){
     330:	e0bffc17 	ldw	r2,-16(fp)
     334:	10800098 	cmpnei	r2,r2,2
     338:	1000051e 	bne	r2,zero,350 <controllers+0xd0>
			OSMboxPost(MailBox2, (void*)&balkje);
     33c:	d0e7f317 	ldw	r3,-24628(gp)
     340:	e0bffe04 	addi	r2,fp,-8
     344:	1809883a 	mov	r4,r3
     348:	100b883a 	mov	r5,r2
     34c:	000a9b00 	call	a9b0 <OSMboxPost>
		}

		OSTimeDly(1);
     350:	01000044 	movi	r4,1
     354:	000eabc0 	call	eabc <OSTimeDly>
	}
     358:	003fd206 	br	2a4 <__alt_mem_Flash_flash_data+0xf40002a4>

0000035c <controller>:

}

int controller(int ID) {
     35c:	defff804 	addi	sp,sp,-32
     360:	dfc00715 	stw	ra,28(sp)
     364:	df000615 	stw	fp,24(sp)
     368:	df000604 	addi	fp,sp,24
     36c:	e13fff15 	stw	r4,-4(fp)
	alt_up_parallel_port_dev * KEY_ptr = alt_up_parallel_port_open_dev(
     370:	01000074 	movhi	r4,1
     374:	210b7a04 	addi	r4,r4,11752
     378:	0010ae40 	call	10ae4 <alt_up_parallel_port_open_dev>
     37c:	e0bffa15 	stw	r2,-24(fp)
			"/dev/Pushbuttons");
	alt_up_parallel_port_dev * SW_switch_ptr = alt_up_parallel_port_open_dev(
     380:	01000074 	movhi	r4,1
     384:	210b7f04 	addi	r4,r4,11772
     388:	0010ae40 	call	10ae4 <alt_up_parallel_port_open_dev>
     38c:	e0bffb15 	stw	r2,-20(fp)
			"/dev/Slider_Switches");
	gpio_dev = alt_up_parallel_port_open_dev("/dev/Expansion_JP5");		//	DE2-115 gpio
     390:	01000074 	movhi	r4,1
     394:	210b8504 	addi	r4,r4,11796
     398:	0010ae40 	call	10ae4 <alt_up_parallel_port_open_dev>
     39c:	d0a7f015 	stw	r2,-24640(gp)
	alt_up_parallel_port_set_port_direction(gpio_dev, 0x00000001);		// 1-0-1-1	(1 = output; 0 = input)
     3a0:	d0a7f017 	ldw	r2,-24640(gp)
     3a4:	10800a17 	ldw	r2,40(r2)
     3a8:	10800104 	addi	r2,r2,4
     3ac:	1007883a 	mov	r3,r2
     3b0:	00800044 	movi	r2,1
     3b4:	18800035 	stwio	r2,0(r3)

	int KEY_value, SW_value, gpio_values;
	INT8U err;

	SW_value = alt_up_parallel_port_read_data(SW_switch_ptr);
     3b8:	e0bffb17 	ldw	r2,-20(fp)
     3bc:	10800a17 	ldw	r2,40(r2)
     3c0:	10800037 	ldwio	r2,0(r2)
     3c4:	e0bffc15 	stw	r2,-16(fp)
	KEY_value = alt_up_parallel_port_read_data(KEY_ptr); // read the pushbutton KEY values
     3c8:	e0bffa17 	ldw	r2,-24(fp)
     3cc:	10800a17 	ldw	r2,40(r2)
     3d0:	10800037 	ldwio	r2,0(r2)
     3d4:	e0bffd15 	stw	r2,-12(fp)
	gpio_values = alt_up_parallel_port_read_data(gpio_dev);
     3d8:	d0a7f017 	ldw	r2,-24640(gp)
     3dc:	10800a17 	ldw	r2,40(r2)
     3e0:	10800037 	ldwio	r2,0(r2)
     3e4:	e0bffe15 	stw	r2,-8(fp)

	//printf("SW_value is: %d\n", SW_value);

	if (ID == 2) {
     3e8:	e0bfff17 	ldw	r2,-4(fp)
     3ec:	10800098 	cmpnei	r2,r2,2
     3f0:	1000131e 	bne	r2,zero,440 <controller+0xe4>
		if (KEY_value != 0) {
     3f4:	e0bffd17 	ldw	r2,-12(fp)
     3f8:	10000f26 	beq	r2,zero,438 <controller+0xdc>
			if (KEY_value == 8) {
     3fc:	e0bffd17 	ldw	r2,-12(fp)
     400:	10800218 	cmpnei	r2,r2,8
     404:	1000021e 	bne	r2,zero,410 <controller+0xb4>
				return 1;
     408:	00800044 	movi	r2,1
     40c:	00003606 	br	4e8 <controller+0x18c>
			}
			if (KEY_value == 4) {
     410:	e0bffd17 	ldw	r2,-12(fp)
     414:	10800118 	cmpnei	r2,r2,4
     418:	1000021e 	bne	r2,zero,424 <controller+0xc8>
				return 0;
     41c:	0005883a 	mov	r2,zero
     420:	00003106 	br	4e8 <controller+0x18c>
			}
			if (KEY_value == 2) {
     424:	e0bffd17 	ldw	r2,-12(fp)
     428:	10800098 	cmpnei	r2,r2,2
     42c:	10002b1e 	bne	r2,zero,4dc <controller+0x180>
				return 2;
     430:	00800084 	movi	r2,2
     434:	00002c06 	br	4e8 <controller+0x18c>
			}
		} else {
			return 3;
     438:	008000c4 	movi	r2,3
     43c:	00002a06 	br	4e8 <controller+0x18c>
		}

	} else if (ID == 1) {
     440:	e0bfff17 	ldw	r2,-4(fp)
     444:	10800058 	cmpnei	r2,r2,1
     448:	10000e1e 	bne	r2,zero,484 <controller+0x128>
		if (SW_value != 0) {
     44c:	e0bffc17 	ldw	r2,-16(fp)
     450:	10000a26 	beq	r2,zero,47c <controller+0x120>
			if (SW_value == 131072) {
     454:	e0fffc17 	ldw	r3,-16(fp)
     458:	008000b4 	movhi	r2,2
     45c:	1880021e 	bne	r3,r2,468 <controller+0x10c>
				return 0;
     460:	0005883a 	mov	r2,zero
     464:	00002006 	br	4e8 <controller+0x18c>
			}else if(SW_value == 4){
     468:	e0bffc17 	ldw	r2,-16(fp)
     46c:	10800118 	cmpnei	r2,r2,4
     470:	10001a1e 	bne	r2,zero,4dc <controller+0x180>
				return 4;
     474:	00800104 	movi	r2,4
     478:	00001b06 	br	4e8 <controller+0x18c>
			}
		} else {
			return 1;
     47c:	00800044 	movi	r2,1
     480:	00001906 	br	4e8 <controller+0x18c>
		}
	} else if(ID == 3){
     484:	e0bfff17 	ldw	r2,-4(fp)
     488:	108000d8 	cmpnei	r2,r2,3
     48c:	1000131e 	bne	r2,zero,4dc <controller+0x180>
		if(gpio_values != 0){
     490:	e0bffe17 	ldw	r2,-8(fp)
     494:	10000f26 	beq	r2,zero,4d4 <controller+0x178>
			if(gpio_values == -1){
     498:	e0bffe17 	ldw	r2,-8(fp)
     49c:	10bfffd8 	cmpnei	r2,r2,-1
     4a0:	1000021e 	bne	r2,zero,4ac <controller+0x150>
				return 1;
     4a4:	00800044 	movi	r2,1
     4a8:	00000f06 	br	4e8 <controller+0x18c>
			} else if(gpio_values == -2){
     4ac:	e0bffe17 	ldw	r2,-8(fp)
     4b0:	10bfff98 	cmpnei	r2,r2,-2
     4b4:	1000021e 	bne	r2,zero,4c0 <controller+0x164>
				return 2;
     4b8:	00800084 	movi	r2,2
     4bc:	00000a06 	br	4e8 <controller+0x18c>
			} else if(gpio_values == -3){
     4c0:	e0bffe17 	ldw	r2,-8(fp)
     4c4:	10bfff58 	cmpnei	r2,r2,-3
     4c8:	1000041e 	bne	r2,zero,4dc <controller+0x180>
				return 3;
     4cc:	008000c4 	movi	r2,3
     4d0:	00000506 	br	4e8 <controller+0x18c>
			}
		}else{
			return 0;
     4d4:	0005883a 	mov	r2,zero
     4d8:	00000306 	br	4e8 <controller+0x18c>
		}
	}
	gpio_values &= 0x80000000;		//	negeer alle andere bits, die zijn waarschijnlijk HOOG !
     4dc:	e0bffe17 	ldw	r2,-8(fp)
     4e0:	10a0002c 	andhi	r2,r2,32768
     4e4:	e0bffe15 	stw	r2,-8(fp)

}
     4e8:	e037883a 	mov	sp,fp
     4ec:	dfc00117 	ldw	ra,4(sp)
     4f0:	df000017 	ldw	fp,0(sp)
     4f4:	dec00204 	addi	sp,sp,8
     4f8:	f800283a 	ret

000004fc <checkID>:

int checkID(int ID) {
     4fc:	defffe04 	addi	sp,sp,-8
     500:	df000115 	stw	fp,4(sp)
     504:	df000104 	addi	fp,sp,4
     508:	e13fff15 	stw	r4,-4(fp)
	if (ID == 1) {
     50c:	e0bfff17 	ldw	r2,-4(fp)
     510:	10800058 	cmpnei	r2,r2,1
     514:	1000021e 	bne	r2,zero,520 <checkID+0x24>
		return 15;
     518:	008003c4 	movi	r2,15
     51c:	00000606 	br	538 <checkID+0x3c>
	} else if (ID == 2) {
     520:	e0bfff17 	ldw	r2,-4(fp)
     524:	10800098 	cmpnei	r2,r2,2
     528:	1000021e 	bne	r2,zero,534 <checkID+0x38>
		return 300;
     52c:	00804b04 	movi	r2,300
     530:	00000106 	br	538 <checkID+0x3c>

	}
	return 0;
     534:	0005883a 	mov	r2,zero
}
     538:	e037883a 	mov	sp,fp
     53c:	df000017 	ldw	fp,0(sp)
     540:	dec00104 	addi	sp,sp,4
     544:	f800283a 	ret

00000548 <moveUp>:

int moveUp(int ID, int current) {
     548:	defff904 	addi	sp,sp,-28
     54c:	dfc00615 	stw	ra,24(sp)
     550:	df000515 	stw	fp,20(sp)
     554:	df000504 	addi	fp,sp,20
     558:	e13ffe15 	stw	r4,-8(fp)
     55c:	e17fff15 	stw	r5,-4(fp)
	int boven = current;
     560:	e0bfff17 	ldw	r2,-4(fp)
     564:	e0bffc15 	stw	r2,-16(fp)

	int X = checkID(ID);
     568:	e13ffe17 	ldw	r4,-8(fp)
     56c:	00004fc0 	call	4fc <checkID>
     570:	e0bffd15 	stw	r2,-12(fp)

	if (boven >= 4 && boven <= 184) {
     574:	e0bffc17 	ldw	r2,-16(fp)
     578:	10800110 	cmplti	r2,r2,4
     57c:	10001c1e 	bne	r2,zero,5f0 <moveUp+0xa8>
     580:	e0bffc17 	ldw	r2,-16(fp)
     584:	10802e48 	cmpgei	r2,r2,185
     588:	1000191e 	bne	r2,zero,5f0 <moveUp+0xa8>
		VGA_box(X, boven, X + 5, boven + 1, blauw);
     58c:	e0bffd17 	ldw	r2,-12(fp)
     590:	11800144 	addi	r6,r2,5
     594:	e0bffc17 	ldw	r2,-16(fp)
     598:	10c00044 	addi	r3,r2,1
     59c:	00803fc4 	movi	r2,255
     5a0:	d8800015 	stw	r2,0(sp)
     5a4:	e13ffd17 	ldw	r4,-12(fp)
     5a8:	e17ffc17 	ldw	r5,-16(fp)
     5ac:	180f883a 	mov	r7,r3
     5b0:	00025640 	call	2564 <VGA_box>
		VGA_box(X, boven + 50, X + 5, boven + 51, 0);
     5b4:	e0bffc17 	ldw	r2,-16(fp)
     5b8:	11400c84 	addi	r5,r2,50
     5bc:	e0bffd17 	ldw	r2,-12(fp)
     5c0:	10c00144 	addi	r3,r2,5
     5c4:	e0bffc17 	ldw	r2,-16(fp)
     5c8:	10800cc4 	addi	r2,r2,51
     5cc:	d8000015 	stw	zero,0(sp)
     5d0:	e13ffd17 	ldw	r4,-12(fp)
     5d4:	180d883a 	mov	r6,r3
     5d8:	100f883a 	mov	r7,r2
     5dc:	00025640 	call	2564 <VGA_box>
		boven--;
     5e0:	e0bffc17 	ldw	r2,-16(fp)
     5e4:	10bfffc4 	addi	r2,r2,-1
     5e8:	e0bffc15 	stw	r2,-16(fp)
int moveUp(int ID, int current) {
	int boven = current;

	int X = checkID(ID);

	if (boven >= 4 && boven <= 184) {
     5ec:	00001006 	br	630 <moveUp+0xe8>
		VGA_box(X, boven, X + 5, boven + 1, blauw);
		VGA_box(X, boven + 50, X + 5, boven + 51, 0);
		boven--;
	} else if (boven > 184) {
     5f0:	e0bffc17 	ldw	r2,-16(fp)
     5f4:	10802e50 	cmplti	r2,r2,185
     5f8:	10000d1e 	bne	r2,zero,630 <moveUp+0xe8>
		VGA_box(X, boven, X + 5, boven + 1, blauw);
     5fc:	e0bffd17 	ldw	r2,-12(fp)
     600:	11800144 	addi	r6,r2,5
     604:	e0bffc17 	ldw	r2,-16(fp)
     608:	10c00044 	addi	r3,r2,1
     60c:	00803fc4 	movi	r2,255
     610:	d8800015 	stw	r2,0(sp)
     614:	e13ffd17 	ldw	r4,-12(fp)
     618:	e17ffc17 	ldw	r5,-16(fp)
     61c:	180f883a 	mov	r7,r3
     620:	00025640 	call	2564 <VGA_box>
		boven--;
     624:	e0bffc17 	ldw	r2,-16(fp)
     628:	10bfffc4 	addi	r2,r2,-1
     62c:	e0bffc15 	stw	r2,-16(fp)
	}
	return boven;
     630:	e0bffc17 	ldw	r2,-16(fp)

}
     634:	e037883a 	mov	sp,fp
     638:	dfc00117 	ldw	ra,4(sp)
     63c:	df000017 	ldw	fp,0(sp)
     640:	dec00204 	addi	sp,sp,8
     644:	f800283a 	ret

00000648 <moveDown>:
int moveDown(int ID, int current) {
     648:	defff904 	addi	sp,sp,-28
     64c:	dfc00615 	stw	ra,24(sp)
     650:	df000515 	stw	fp,20(sp)
     654:	df000504 	addi	fp,sp,20
     658:	e13ffe15 	stw	r4,-8(fp)
     65c:	e17fff15 	stw	r5,-4(fp)
	int boven = current;
     660:	e0bfff17 	ldw	r2,-4(fp)
     664:	e0bffc15 	stw	r2,-16(fp)

	int X = checkID(ID);
     668:	e13ffe17 	ldw	r4,-8(fp)
     66c:	00004fc0 	call	4fc <checkID>
     670:	e0bffd15 	stw	r2,-12(fp)

	if (boven <= 184 && boven >= 4) {
     674:	e0bffc17 	ldw	r2,-16(fp)
     678:	10802e48 	cmpgei	r2,r2,185
     67c:	10001c1e 	bne	r2,zero,6f0 <moveDown+0xa8>
     680:	e0bffc17 	ldw	r2,-16(fp)
     684:	10800110 	cmplti	r2,r2,4
     688:	1000191e 	bne	r2,zero,6f0 <moveDown+0xa8>
		VGA_box(X, boven + 50, X + 5, boven + 51, blauw);
     68c:	e0bffc17 	ldw	r2,-16(fp)
     690:	11400c84 	addi	r5,r2,50
     694:	e0bffd17 	ldw	r2,-12(fp)
     698:	11800144 	addi	r6,r2,5
     69c:	e0bffc17 	ldw	r2,-16(fp)
     6a0:	10c00cc4 	addi	r3,r2,51
     6a4:	00803fc4 	movi	r2,255
     6a8:	d8800015 	stw	r2,0(sp)
     6ac:	e13ffd17 	ldw	r4,-12(fp)
     6b0:	180f883a 	mov	r7,r3
     6b4:	00025640 	call	2564 <VGA_box>
		VGA_box(X, boven, X + 5, boven + 1, 0);
     6b8:	e0bffd17 	ldw	r2,-12(fp)
     6bc:	10c00144 	addi	r3,r2,5
     6c0:	e0bffc17 	ldw	r2,-16(fp)
     6c4:	10800044 	addi	r2,r2,1
     6c8:	d8000015 	stw	zero,0(sp)
     6cc:	e13ffd17 	ldw	r4,-12(fp)
     6d0:	e17ffc17 	ldw	r5,-16(fp)
     6d4:	180d883a 	mov	r6,r3
     6d8:	100f883a 	mov	r7,r2
     6dc:	00025640 	call	2564 <VGA_box>
		boven++;
     6e0:	e0bffc17 	ldw	r2,-16(fp)
     6e4:	10800044 	addi	r2,r2,1
     6e8:	e0bffc15 	stw	r2,-16(fp)
int moveDown(int ID, int current) {
	int boven = current;

	int X = checkID(ID);

	if (boven <= 184 && boven >= 4) {
     6ec:	00001106 	br	734 <moveDown+0xec>
		VGA_box(X, boven + 50, X + 5, boven + 51, blauw);
		VGA_box(X, boven, X + 5, boven + 1, 0);
		boven++;
	} else if (boven < 4) {
     6f0:	e0bffc17 	ldw	r2,-16(fp)
     6f4:	10800108 	cmpgei	r2,r2,4
     6f8:	10000e1e 	bne	r2,zero,734 <moveDown+0xec>
		VGA_box(X, boven + 50, X + 5, boven + 51, blauw);
     6fc:	e0bffc17 	ldw	r2,-16(fp)
     700:	11400c84 	addi	r5,r2,50
     704:	e0bffd17 	ldw	r2,-12(fp)
     708:	11800144 	addi	r6,r2,5
     70c:	e0bffc17 	ldw	r2,-16(fp)
     710:	10c00cc4 	addi	r3,r2,51
     714:	00803fc4 	movi	r2,255
     718:	d8800015 	stw	r2,0(sp)
     71c:	e13ffd17 	ldw	r4,-12(fp)
     720:	180f883a 	mov	r7,r3
     724:	00025640 	call	2564 <VGA_box>
		boven++;
     728:	e0bffc17 	ldw	r2,-16(fp)
     72c:	10800044 	addi	r2,r2,1
     730:	e0bffc15 	stw	r2,-16(fp)
	}
	return boven;
     734:	e0bffc17 	ldw	r2,-16(fp)

}
     738:	e037883a 	mov	sp,fp
     73c:	dfc00117 	ldw	ra,4(sp)
     740:	df000017 	ldw	fp,0(sp)
     744:	dec00204 	addi	sp,sp,8
     748:	f800283a 	ret

0000074c <Game>:

typedef struct balk {
	int Hoogte;
} Balk;

void Game(void* pdata) {
     74c:	defff604 	addi	sp,sp,-40
     750:	dfc00915 	stw	ra,36(sp)
     754:	df000815 	stw	fp,32(sp)
     758:	df000804 	addi	fp,sp,32
     75c:	e13ffd15 	stw	r4,-12(fp)


	ALT_x1 = 0;
     760:	d027ff15 	stw	zero,-24580(gp)
	ALT_x2 = 165;
     764:	00802944 	movi	r2,165
     768:	d0a80115 	stw	r2,-24572(gp)
	ALT_y = 100;
     76c:	00801904 	movi	r2,100
     770:	d0a7fc15 	stw	r2,-24592(gp)
	ALT_inc_x = 1;
     774:	00800044 	movi	r2,1
     778:	d0a80015 	stw	r2,-24576(gp)
	ALT_inc_y = 1;
     77c:	00800044 	movi	r2,1
     780:	d0a7fd15 	stw	r2,-24588(gp)

	pixel_buffer_x = 319;
     784:	00804fc4 	movi	r2,319
     788:	d0a7fb15 	stw	r2,-24596(gp)
	pixel_buffer_y = 230;
     78c:	00803984 	movi	r2,230
     790:	d0a7f915 	stw	r2,-24604(gp)
	int ID;
	int count;
	Balk * balkje;
	Balk * balkje2;
	
	VGA_box (316, 5, 319, 235, zwart); 					// singleplayer balk weghalen voor de zekerheid
     794:	d8000015 	stw	zero,0(sp)
     798:	01004f04 	movi	r4,316
     79c:	01400144 	movi	r5,5
     7a0:	01804fc4 	movi	r6,319
     7a4:	01c03ac4 	movi	r7,235
     7a8:	00025640 	call	2564 <VGA_box>
	//char_buffer_x = 79; char_buffer_y = 59;

	//blue_x1 = 28; blue_x2 = 52; blue_y1 = 26; blue_y2 = 34;

	while (1) {
		OSFlagPend(Flags, Game_Flag, OS_FLAG_WAIT_CLR_ANY, 0, &err);
     7ac:	d0e7f417 	ldw	r3,-24624(gp)
     7b0:	e0bffc04 	addi	r2,fp,-16
     7b4:	d8800015 	stw	r2,0(sp)
     7b8:	1809883a 	mov	r4,r3
     7bc:	01400084 	movi	r5,2
     7c0:	01800044 	movi	r6,1
     7c4:	000f883a 	mov	r7,zero
     7c8:	00092a80 	call	92a8 <OSFlagPend>

		balkje = (Balk*) OSMboxPend(MailBox, 0, &err);
     7cc:	d0e7f517 	ldw	r3,-24620(gp)
     7d0:	e0bffc04 	addi	r2,fp,-16
     7d4:	1809883a 	mov	r4,r3
     7d8:	000b883a 	mov	r5,zero
     7dc:	100d883a 	mov	r6,r2
     7e0:	000a5a00 	call	a5a0 <OSMboxPend>
     7e4:	e0bffa15 	stw	r2,-24(fp)
		balkje2 = (Balk*) OSMboxPend(MailBox2, 0, &err);
     7e8:	d0e7f317 	ldw	r3,-24628(gp)
     7ec:	e0bffc04 	addi	r2,fp,-16
     7f0:	1809883a 	mov	r4,r3
     7f4:	000b883a 	mov	r5,zero
     7f8:	100d883a 	mov	r6,r2
     7fc:	000a5a00 	call	a5a0 <OSMboxPend>
     800:	e0bffb15 	stw	r2,-20(fp)



		for (i = 0; i <= 9; i++) {
     804:	e03ff915 	stw	zero,-28(fp)
     808:	00001706 	br	868 <Game+0x11c>

			if (score1 == i) {
     80c:	d0e7fa17 	ldw	r3,-24600(gp)
     810:	e0bff917 	ldw	r2,-28(fp)
     814:	1880031e 	bne	r3,r2,824 <Game+0xd8>
				draw_number(i, 1);
     818:	e13ff917 	ldw	r4,-28(fp)
     81c:	01400044 	movi	r5,1
     820:	00027f80 	call	27f8 <draw_number>
			}
			if (score2 == i) {
     824:	d0e7f717 	ldw	r3,-24612(gp)
     828:	e0bff917 	ldw	r2,-28(fp)
     82c:	1880031e 	bne	r3,r2,83c <Game+0xf0>
				draw_number(i, 3);
     830:	e13ff917 	ldw	r4,-28(fp)
     834:	014000c4 	movi	r5,3
     838:	00027f80 	call	27f8 <draw_number>
			}
			if(score1 == 9 || score2 == 9){
     83c:	d0a7fa17 	ldw	r2,-24600(gp)
     840:	10800260 	cmpeqi	r2,r2,9
     844:	1000031e 	bne	r2,zero,854 <Game+0x108>
     848:	d0a7f717 	ldw	r2,-24612(gp)
     84c:	10800258 	cmpnei	r2,r2,9
     850:	1000021e 	bne	r2,zero,85c <Game+0x110>
				score1 =0;
     854:	d027fa15 	stw	zero,-24600(gp)
				score2 =0;
     858:	d027f715 	stw	zero,-24612(gp)
		balkje = (Balk*) OSMboxPend(MailBox, 0, &err);
		balkje2 = (Balk*) OSMboxPend(MailBox2, 0, &err);



		for (i = 0; i <= 9; i++) {
     85c:	e0bff917 	ldw	r2,-28(fp)
     860:	10800044 	addi	r2,r2,1
     864:	e0bff915 	stw	r2,-28(fp)
     868:	e0bff917 	ldw	r2,-28(fp)
     86c:	10800290 	cmplti	r2,r2,10
     870:	103fe61e 	bne	r2,zero,80c <__alt_mem_Flash_flash_data+0xf400080c>
				score1 =0;
				score2 =0;

			}
		}
		draw_middenlijn();
     874:	00026a80 	call	26a8 <draw_middenlijn>
		if (check == 1) {
     878:	d0a00117 	ldw	r2,-32764(gp)
     87c:	10800058 	cmpnei	r2,r2,1
     880:	1000181e 	bne	r2,zero,8e4 <Game+0x198>
			del_middenlijn();
     884:	00027100 	call	2710 <del_middenlijn>
			VGA_text(20, 20, "Houdt de knop ingedrukt om te spelen");
     888:	01000504 	movi	r4,20
     88c:	01400504 	movi	r5,20
     890:	01800074 	movhi	r6,1
     894:	318b8a04 	addi	r6,r6,11816
     898:	00026180 	call	2618 <VGA_text>
			OSTimeDlyHMSM(0, 1, 0, 0);
     89c:	0009883a 	mov	r4,zero
     8a0:	01400044 	movi	r5,1
     8a4:	000d883a 	mov	r6,zero
     8a8:	000f883a 	mov	r7,zero
     8ac:	000ec040 	call	ec04 <OSTimeDlyHMSM>
			VGA_text(20, 20, "                                    ");
     8b0:	01000504 	movi	r4,20
     8b4:	01400504 	movi	r5,20
     8b8:	01800074 	movhi	r6,1
     8bc:	318b9404 	addi	r6,r6,11856
     8c0:	00026180 	call	2618 <VGA_text>

			del_number(1);
     8c4:	01000044 	movi	r4,1
     8c8:	000274c0 	call	274c <del_number>
			del_number(2);
     8cc:	01000084 	movi	r4,2
     8d0:	000274c0 	call	274c <del_number>

			score1 = 0;
     8d4:	d027fa15 	stw	zero,-24600(gp)
			score2 = 0;
     8d8:	d027f715 	stw	zero,-24612(gp)

			i = 0;
     8dc:	e03ff915 	stw	zero,-28(fp)

			check = 0;
     8e0:	d0200115 	stw	zero,-32764(gp)
		}

		if (controller(3) == 1) {
     8e4:	010000c4 	movi	r4,3
     8e8:	000035c0 	call	35c <controller>
     8ec:	10800058 	cmpnei	r2,r2,1
     8f0:	1000a41e 	bne	r2,zero,b84 <Game+0x438>

			VGA_box(ALT_x1, ALT_y, ALT_x1 + 5, ALT_y + 5, zwart); // erase
     8f4:	d127ff17 	ldw	r4,-24580(gp)
     8f8:	d167fc17 	ldw	r5,-24592(gp)
     8fc:	d0a7ff17 	ldw	r2,-24580(gp)
     900:	10c00144 	addi	r3,r2,5
     904:	d0a7fc17 	ldw	r2,-24592(gp)
     908:	10800144 	addi	r2,r2,5
     90c:	d8000015 	stw	zero,0(sp)
     910:	180d883a 	mov	r6,r3
     914:	100f883a 	mov	r7,r2
     918:	00025640 	call	2564 <VGA_box>
			if (first == 1) {
     91c:	d0a00017 	ldw	r2,-32768(gp)
     920:	10800058 	cmpnei	r2,r2,1
     924:	10000f1e 	bne	r2,zero,964 <Game+0x218>
				ALT_x1 = 160 + ALT_x1 + ALT_inc_x;
     928:	d0a7ff17 	ldw	r2,-24580(gp)
     92c:	10c02804 	addi	r3,r2,160
     930:	d0a80017 	ldw	r2,-24576(gp)
     934:	1885883a 	add	r2,r3,r2
     938:	d0a7ff15 	stw	r2,-24580(gp)
				ALT_x2 += ALT_inc_x;
     93c:	d0e80117 	ldw	r3,-24572(gp)
     940:	d0a80017 	ldw	r2,-24576(gp)
     944:	1885883a 	add	r2,r3,r2
     948:	d0a80115 	stw	r2,-24572(gp)
				ALT_y += ALT_inc_y;
     94c:	d0e7fc17 	ldw	r3,-24592(gp)
     950:	d0a7fd17 	ldw	r2,-24588(gp)
     954:	1885883a 	add	r2,r3,r2
     958:	d0a7fc15 	stw	r2,-24592(gp)
				first = 0;
     95c:	d0200015 	stw	zero,-32768(gp)
     960:	00000c06 	br	994 <Game+0x248>
			} else {
				ALT_x1 += ALT_inc_x;
     964:	d0e7ff17 	ldw	r3,-24580(gp)
     968:	d0a80017 	ldw	r2,-24576(gp)
     96c:	1885883a 	add	r2,r3,r2
     970:	d0a7ff15 	stw	r2,-24580(gp)
				ALT_x2 += ALT_inc_x;
     974:	d0e80117 	ldw	r3,-24572(gp)
     978:	d0a80017 	ldw	r2,-24576(gp)
     97c:	1885883a 	add	r2,r3,r2
     980:	d0a80115 	stw	r2,-24572(gp)
				ALT_y += ALT_inc_y;
     984:	d0e7fc17 	ldw	r3,-24592(gp)
     988:	d0a7fd17 	ldw	r2,-24588(gp)
     98c:	1885883a 	add	r2,r3,r2
     990:	d0a7fc15 	stw	r2,-24592(gp)
			}
			VGA_box(ALT_x1, ALT_y, ALT_x1 + 5, ALT_y + 5, wit); // ball
     994:	d127ff17 	ldw	r4,-24580(gp)
     998:	d167fc17 	ldw	r5,-24592(gp)
     99c:	d0a7ff17 	ldw	r2,-24580(gp)
     9a0:	11800144 	addi	r6,r2,5
     9a4:	d0a7fc17 	ldw	r2,-24592(gp)
     9a8:	10c00144 	addi	r3,r2,5
     9ac:	00804034 	movhi	r2,256
     9b0:	10bfffc4 	addi	r2,r2,-1
     9b4:	d8800015 	stw	r2,0(sp)
     9b8:	180f883a 	mov	r7,r3
     9bc:	00025640 	call	2564 <VGA_box>

			//collision rand boven en onder
			if ((ALT_y == pixel_buffer_y) || (ALT_y == 4)) {
     9c0:	d0e7fc17 	ldw	r3,-24592(gp)
     9c4:	d0a7f917 	ldw	r2,-24604(gp)
     9c8:	18800326 	beq	r3,r2,9d8 <Game+0x28c>
     9cc:	d0a7fc17 	ldw	r2,-24592(gp)
     9d0:	10800118 	cmpnei	r2,r2,4
     9d4:	1000031e 	bne	r2,zero,9e4 <Game+0x298>
				ALT_inc_y = -(ALT_inc_y);
     9d8:	d0a7fd17 	ldw	r2,-24588(gp)
     9dc:	0085c83a 	sub	r2,zero,r2
     9e0:	d0a7fd15 	stw	r2,-24588(gp)
			if ((ALT_x2 == pixel_buffer_x) || (ALT_x1 == 0)) {
				//ALT_inc_x = -(ALT_inc_x);
			}

			//links dood
			if (ALT_x1 == 0) {
     9e4:	d0a7ff17 	ldw	r2,-24580(gp)
     9e8:	1000071e 	bne	r2,zero,a08 <Game+0x2bc>
				score2++;
     9ec:	d0a7f717 	ldw	r2,-24612(gp)
     9f0:	10800044 	addi	r2,r2,1
     9f4:	d0a7f715 	stw	r2,-24612(gp)
				gescoord(2);
     9f8:	01000084 	movi	r4,2
     9fc:	0000bbc0 	call	bbc <gescoord>
				del_number(2);
     a00:	01000084 	movi	r4,2
     a04:	000274c0 	call	274c <del_number>
			}

			//rechts dood
			if (ALT_x2 == pixel_buffer_x) {
     a08:	d0e80117 	ldw	r3,-24572(gp)
     a0c:	d0a7fb17 	ldw	r2,-24596(gp)
     a10:	1880071e 	bne	r3,r2,a30 <Game+0x2e4>
				score1++;
     a14:	d0a7fa17 	ldw	r2,-24600(gp)
     a18:	10800044 	addi	r2,r2,1
     a1c:	d0a7fa15 	stw	r2,-24600(gp)
				gescoord(1);
     a20:	01000044 	movi	r4,1
     a24:	0000bbc0 	call	bbc <gescoord>
				del_number(1);
     a28:	01000044 	movi	r4,1
     a2c:	000274c0 	call	274c <del_number>
			}

			//collision linker balkje
			//lange zijde
			if(ALT_x1 == 21 && (ALT_y > balkje->Hoogte - 6 && ALT_y < balkje->Hoogte + 50)){
     a30:	d0a7ff17 	ldw	r2,-24580(gp)
     a34:	10800558 	cmpnei	r2,r2,21
     a38:	10000d1e 	bne	r2,zero,a70 <Game+0x324>
     a3c:	e0bffa17 	ldw	r2,-24(fp)
     a40:	10800017 	ldw	r2,0(r2)
     a44:	10fffe84 	addi	r3,r2,-6
     a48:	d0a7fc17 	ldw	r2,-24592(gp)
     a4c:	1880080e 	bge	r3,r2,a70 <Game+0x324>
     a50:	e0bffa17 	ldw	r2,-24(fp)
     a54:	10800017 	ldw	r2,0(r2)
     a58:	10800c84 	addi	r2,r2,50
     a5c:	d0e7fc17 	ldw	r3,-24592(gp)
     a60:	1880030e 	bge	r3,r2,a70 <Game+0x324>
				ALT_inc_x = -(ALT_inc_x);
     a64:	d0a80017 	ldw	r2,-24576(gp)
     a68:	0085c83a 	sub	r2,zero,r2
     a6c:	d0a80015 	stw	r2,-24576(gp)
			}
			//boven
			if(((ALT_x1 <= 20 && ALT_x1 >= 15) && ALT_y == balkje->Hoogte - 6) || ((ALT_x1 <= 20 && ALT_x1 >= 15) && ALT_y == balkje->Hoogte + 50)){
     a70:	d0a7ff17 	ldw	r2,-24580(gp)
     a74:	10800548 	cmpgei	r2,r2,21
     a78:	1000081e 	bne	r2,zero,a9c <Game+0x350>
     a7c:	d0a7ff17 	ldw	r2,-24580(gp)
     a80:	108003d0 	cmplti	r2,r2,15
     a84:	1000051e 	bne	r2,zero,a9c <Game+0x350>
     a88:	e0bffa17 	ldw	r2,-24(fp)
     a8c:	10800017 	ldw	r2,0(r2)
     a90:	10fffe84 	addi	r3,r2,-6
     a94:	d0a7fc17 	ldw	r2,-24592(gp)
     a98:	18800b26 	beq	r3,r2,ac8 <Game+0x37c>
     a9c:	d0a7ff17 	ldw	r2,-24580(gp)
     aa0:	10800548 	cmpgei	r2,r2,21
     aa4:	10000b1e 	bne	r2,zero,ad4 <Game+0x388>
     aa8:	d0a7ff17 	ldw	r2,-24580(gp)
     aac:	108003d0 	cmplti	r2,r2,15
     ab0:	1000081e 	bne	r2,zero,ad4 <Game+0x388>
     ab4:	e0bffa17 	ldw	r2,-24(fp)
     ab8:	10800017 	ldw	r2,0(r2)
     abc:	10c00c84 	addi	r3,r2,50
     ac0:	d0a7fc17 	ldw	r2,-24592(gp)
     ac4:	1880031e 	bne	r3,r2,ad4 <Game+0x388>
				ALT_inc_y = -(ALT_inc_y);
     ac8:	d0a7fd17 	ldw	r2,-24588(gp)
     acc:	0085c83a 	sub	r2,zero,r2
     ad0:	d0a7fd15 	stw	r2,-24588(gp)
			}

			//collision rechter balkje
			//lange zijde
			if(ALT_x2 == 299 && (ALT_y > balkje2->Hoogte - 6 && ALT_y < balkje2->Hoogte + 50)){
     ad4:	d0a80117 	ldw	r2,-24572(gp)
     ad8:	10804ad8 	cmpnei	r2,r2,299
     adc:	10000d1e 	bne	r2,zero,b14 <Game+0x3c8>
     ae0:	e0bffb17 	ldw	r2,-20(fp)
     ae4:	10800017 	ldw	r2,0(r2)
     ae8:	10fffe84 	addi	r3,r2,-6
     aec:	d0a7fc17 	ldw	r2,-24592(gp)
     af0:	1880080e 	bge	r3,r2,b14 <Game+0x3c8>
     af4:	e0bffb17 	ldw	r2,-20(fp)
     af8:	10800017 	ldw	r2,0(r2)
     afc:	10800c84 	addi	r2,r2,50
     b00:	d0e7fc17 	ldw	r3,-24592(gp)
     b04:	1880030e 	bge	r3,r2,b14 <Game+0x3c8>
				ALT_inc_x = -(ALT_inc_x);
     b08:	d0a80017 	ldw	r2,-24576(gp)
     b0c:	0085c83a 	sub	r2,zero,r2
     b10:	d0a80015 	stw	r2,-24576(gp)
			}
			//boven
			if(((ALT_x2 <= 305 && ALT_x2 >= 300) && ALT_y == balkje2->Hoogte - 6) || ((ALT_x2 <= 305 && ALT_x2 >= 300) && ALT_y == balkje2->Hoogte + 50)){
     b14:	d0a80117 	ldw	r2,-24572(gp)
     b18:	10804c88 	cmpgei	r2,r2,306
     b1c:	1000081e 	bne	r2,zero,b40 <Game+0x3f4>
     b20:	d0a80117 	ldw	r2,-24572(gp)
     b24:	10804b10 	cmplti	r2,r2,300
     b28:	1000051e 	bne	r2,zero,b40 <Game+0x3f4>
     b2c:	e0bffb17 	ldw	r2,-20(fp)
     b30:	10800017 	ldw	r2,0(r2)
     b34:	10fffe84 	addi	r3,r2,-6
     b38:	d0a7fc17 	ldw	r2,-24592(gp)
     b3c:	18800b26 	beq	r3,r2,b6c <Game+0x420>
     b40:	d0a80117 	ldw	r2,-24572(gp)
     b44:	10804c88 	cmpgei	r2,r2,306
     b48:	10000b1e 	bne	r2,zero,b78 <Game+0x42c>
     b4c:	d0a80117 	ldw	r2,-24572(gp)
     b50:	10804b10 	cmplti	r2,r2,300
     b54:	1000081e 	bne	r2,zero,b78 <Game+0x42c>
     b58:	e0bffb17 	ldw	r2,-20(fp)
     b5c:	10800017 	ldw	r2,0(r2)
     b60:	10c00c84 	addi	r3,r2,50
     b64:	d0a7fc17 	ldw	r2,-24592(gp)
     b68:	1880031e 	bne	r3,r2,b78 <Game+0x42c>
				ALT_inc_y = -(ALT_inc_y);
     b6c:	d0a7fd17 	ldw	r2,-24588(gp)
     b70:	0085c83a 	sub	r2,zero,r2
     b74:	d0a7fd15 	stw	r2,-24588(gp)
			}



			OSTimeDly(1);
     b78:	01000044 	movi	r4,1
     b7c:	000eabc0 	call	eabc <OSTimeDly>
     b80:	00000d06 	br	bb8 <Game+0x46c>

		} else if (controller(2) == 2) {
     b84:	01000084 	movi	r4,2
     b88:	000035c0 	call	35c <controller>
     b8c:	10800098 	cmpnei	r2,r2,2
     b90:	1000031e 	bne	r2,zero,ba0 <Game+0x454>
			//links
			endGame(1);
     b94:	01000044 	movi	r4,1
     b98:	0000de00 	call	de0 <endGame>
     b9c:	00000606 	br	bb8 <Game+0x46c>
		}else if(controller(2) == 3){
     ba0:	01000084 	movi	r4,2
     ba4:	000035c0 	call	35c <controller>
     ba8:	108000d8 	cmpnei	r2,r2,3
     bac:	1000021e 	bne	r2,zero,bb8 <Game+0x46c>
			//rechts
			endGame(2);
     bb0:	01000084 	movi	r4,2
     bb4:	0000de00 	call	de0 <endGame>
		}

	}
     bb8:	003efc06 	br	7ac <__alt_mem_Flash_flash_data+0xf40007ac>

00000bbc <gescoord>:
}

void gescoord(int ID){
     bbc:	defffc04 	addi	sp,sp,-16
     bc0:	dfc00315 	stw	ra,12(sp)
     bc4:	df000215 	stw	fp,8(sp)
     bc8:	df000204 	addi	fp,sp,8
     bcc:	e13fff15 	stw	r4,-4(fp)

	VGA_box(ALT_x1, ALT_y, ALT_x1 + 5, ALT_y + 5, zwart); // erase
     bd0:	d127ff17 	ldw	r4,-24580(gp)
     bd4:	d167fc17 	ldw	r5,-24592(gp)
     bd8:	d0a7ff17 	ldw	r2,-24580(gp)
     bdc:	10c00144 	addi	r3,r2,5
     be0:	d0a7fc17 	ldw	r2,-24592(gp)
     be4:	10800144 	addi	r2,r2,5
     be8:	d8000015 	stw	zero,0(sp)
     bec:	180d883a 	mov	r6,r3
     bf0:	100f883a 	mov	r7,r2
     bf4:	00025640 	call	2564 <VGA_box>

	first = 1;
     bf8:	00800044 	movi	r2,1
     bfc:	d0a00015 	stw	r2,-32768(gp)

	if(ID == 1){
     c00:	e0bfff17 	ldw	r2,-4(fp)
     c04:	10800058 	cmpnei	r2,r2,1
     c08:	1000221e 	bne	r2,zero,c94 <gescoord+0xd8>
		VGA_text(30, 25, "Speler 1 heeft gescoord!");
     c0c:	01000784 	movi	r4,30
     c10:	01400644 	movi	r5,25
     c14:	01800074 	movhi	r6,1
     c18:	318b9e04 	addi	r6,r6,11896
     c1c:	00026180 	call	2618 <VGA_text>
		OSTimeDlyHMSM(0, 0, 35, 0);
     c20:	0009883a 	mov	r4,zero
     c24:	000b883a 	mov	r5,zero
     c28:	018008c4 	movi	r6,35
     c2c:	000f883a 	mov	r7,zero
     c30:	000ec040 	call	ec04 <OSTimeDlyHMSM>
		VGA_text(30, 25, "                        ");
     c34:	01000784 	movi	r4,30
     c38:	01400644 	movi	r5,25
     c3c:	01800074 	movhi	r6,1
     c40:	318ba504 	addi	r6,r6,11924
     c44:	00026180 	call	2618 <VGA_text>
		ALT_x1 = 0;
     c48:	d027ff15 	stw	zero,-24580(gp)
		ALT_x2 = 165;
     c4c:	00802944 	movi	r2,165
     c50:	d0a80115 	stw	r2,-24572(gp)
		ALT_y = 100;
     c54:	00801904 	movi	r2,100
     c58:	d0a7fc15 	stw	r2,-24592(gp)
		ALT_inc_x = -1;
     c5c:	00bfffc4 	movi	r2,-1
     c60:	d0a80015 	stw	r2,-24576(gp)
		if(random == 1){
     c64:	d0a7f817 	ldw	r2,-24608(gp)
     c68:	10800058 	cmpnei	r2,r2,1
     c6c:	1000031e 	bne	r2,zero,c7c <gescoord+0xc0>
			ALT_inc_y = -1;
     c70:	00bfffc4 	movi	r2,-1
     c74:	d0a7fd15 	stw	r2,-24588(gp)
     c78:	00000506 	br	c90 <gescoord+0xd4>
			random == 0;
		}else if(random == 0){
     c7c:	d0a7f817 	ldw	r2,-24608(gp)
     c80:	1000031e 	bne	r2,zero,c90 <gescoord+0xd4>
			ALT_inc_y = 1;
     c84:	00800044 	movi	r2,1
     c88:	d0a7fd15 	stw	r2,-24588(gp)
     c8c:	00004f06 	br	dcc <gescoord+0x210>
     c90:	00004e06 	br	dcc <gescoord+0x210>
			random == 1;
		}
	}else if(ID == 2){
     c94:	e0bfff17 	ldw	r2,-4(fp)
     c98:	10800098 	cmpnei	r2,r2,2
     c9c:	1000251e 	bne	r2,zero,d34 <gescoord+0x178>
		VGA_text(30, 25, "Speler 2 heeft gescoord!");
     ca0:	01000784 	movi	r4,30
     ca4:	01400644 	movi	r5,25
     ca8:	01800074 	movhi	r6,1
     cac:	318bac04 	addi	r6,r6,11952
     cb0:	00026180 	call	2618 <VGA_text>
		OSTimeDlyHMSM(0, 0, 35, 0);
     cb4:	0009883a 	mov	r4,zero
     cb8:	000b883a 	mov	r5,zero
     cbc:	018008c4 	movi	r6,35
     cc0:	000f883a 	mov	r7,zero
     cc4:	000ec040 	call	ec04 <OSTimeDlyHMSM>
		VGA_text(30, 25, "                        ");
     cc8:	01000784 	movi	r4,30
     ccc:	01400644 	movi	r5,25
     cd0:	01800074 	movhi	r6,1
     cd4:	318ba504 	addi	r6,r6,11924
     cd8:	00026180 	call	2618 <VGA_text>
		ALT_x1 = 0;
     cdc:	d027ff15 	stw	zero,-24580(gp)
		ALT_x2 = 165;
     ce0:	00802944 	movi	r2,165
     ce4:	d0a80115 	stw	r2,-24572(gp)
		ALT_y = 100;
     ce8:	00801904 	movi	r2,100
     cec:	d0a7fc15 	stw	r2,-24592(gp)
		ALT_inc_x = 1;
     cf0:	00800044 	movi	r2,1
     cf4:	d0a80015 	stw	r2,-24576(gp)
		if(random == 1){
     cf8:	d0a7f817 	ldw	r2,-24608(gp)
     cfc:	10800058 	cmpnei	r2,r2,1
     d00:	1000041e 	bne	r2,zero,d14 <gescoord+0x158>
			ALT_inc_y = 1;
     d04:	00800044 	movi	r2,1
     d08:	d0a7fd15 	stw	r2,-24588(gp)
			random = 0;
     d0c:	d027f815 	stw	zero,-24608(gp)
     d10:	00000706 	br	d30 <gescoord+0x174>
		}else if(random == 0){
     d14:	d0a7f817 	ldw	r2,-24608(gp)
     d18:	1000051e 	bne	r2,zero,d30 <gescoord+0x174>
			ALT_inc_y = -1;
     d1c:	00bfffc4 	movi	r2,-1
     d20:	d0a7fd15 	stw	r2,-24588(gp)
			random = 1;
     d24:	00800044 	movi	r2,1
     d28:	d0a7f815 	stw	r2,-24608(gp)
     d2c:	00002706 	br	dcc <gescoord+0x210>
     d30:	00002606 	br	dcc <gescoord+0x210>
		}
	}else if(ID == 3){
     d34:	e0bfff17 	ldw	r2,-4(fp)
     d38:	108000d8 	cmpnei	r2,r2,3
     d3c:	1000231e 	bne	r2,zero,dcc <gescoord+0x210>
		VGA_text(30, 25, "De computer heeft gescoord!");
     d40:	01000784 	movi	r4,30
     d44:	01400644 	movi	r5,25
     d48:	01800074 	movhi	r6,1
     d4c:	318bb304 	addi	r6,r6,11980
     d50:	00026180 	call	2618 <VGA_text>
		OSTimeDlyHMSM(0, 0, 35, 0);
     d54:	0009883a 	mov	r4,zero
     d58:	000b883a 	mov	r5,zero
     d5c:	018008c4 	movi	r6,35
     d60:	000f883a 	mov	r7,zero
     d64:	000ec040 	call	ec04 <OSTimeDlyHMSM>
		VGA_text(30, 25, "                           ");
     d68:	01000784 	movi	r4,30
     d6c:	01400644 	movi	r5,25
     d70:	01800074 	movhi	r6,1
     d74:	318bba04 	addi	r6,r6,12008
     d78:	00026180 	call	2618 <VGA_text>
		ALT_x1 = 0;
     d7c:	d027ff15 	stw	zero,-24580(gp)
		ALT_x2 = 165;
     d80:	00802944 	movi	r2,165
     d84:	d0a80115 	stw	r2,-24572(gp)
		ALT_y = 100;
     d88:	00801904 	movi	r2,100
     d8c:	d0a7fc15 	stw	r2,-24592(gp)
		ALT_inc_x = -1;
     d90:	00bfffc4 	movi	r2,-1
     d94:	d0a80015 	stw	r2,-24576(gp)
		if(random == 1){
     d98:	d0a7f817 	ldw	r2,-24608(gp)
     d9c:	10800058 	cmpnei	r2,r2,1
     da0:	1000041e 	bne	r2,zero,db4 <gescoord+0x1f8>
			ALT_inc_y = 1;
     da4:	00800044 	movi	r2,1
     da8:	d0a7fd15 	stw	r2,-24588(gp)
			random = 0;
     dac:	d027f815 	stw	zero,-24608(gp)
     db0:	00000606 	br	dcc <gescoord+0x210>
		}else if(random == 0){
     db4:	d0a7f817 	ldw	r2,-24608(gp)
     db8:	1000041e 	bne	r2,zero,dcc <gescoord+0x210>
			ALT_inc_y = -1;
     dbc:	00bfffc4 	movi	r2,-1
     dc0:	d0a7fd15 	stw	r2,-24588(gp)
			random = 1;
     dc4:	00800044 	movi	r2,1
     dc8:	d0a7f815 	stw	r2,-24608(gp)
		}
	}

}
     dcc:	e037883a 	mov	sp,fp
     dd0:	dfc00117 	ldw	ra,4(sp)
     dd4:	df000017 	ldw	fp,0(sp)
     dd8:	dec00204 	addi	sp,sp,8
     ddc:	f800283a 	ret

00000de0 <endGame>:

void endGame(int ID) {
     de0:	defffb04 	addi	sp,sp,-20
     de4:	dfc00415 	stw	ra,16(sp)
     de8:	df000315 	stw	fp,12(sp)
     dec:	df000304 	addi	fp,sp,12
     df0:	e13fff15 	stw	r4,-4(fp)
	INT8U err;

	printf("end game\n");
     df4:	01000074 	movhi	r4,1
     df8:	210bc104 	addi	r4,r4,12036
     dfc:	0002f740 	call	2f74 <puts>

	clearScreen();
     e00:	00020c80 	call	20c8 <clearScreen>

	OSFlagPost(Flags, Game_Flag + C1_Flag + C2_Flag, OS_FLAG_SET, &err);
     e04:	d0a7f417 	ldw	r2,-24624(gp)
     e08:	1009883a 	mov	r4,r2
     e0c:	01400384 	movi	r5,14
     e10:	01800044 	movi	r6,1
     e14:	e1fffe04 	addi	r7,fp,-8
     e18:	00099000 	call	9900 <OSFlagPost>

	if(ID == 1){
     e1c:	e0bfff17 	ldw	r2,-4(fp)
     e20:	10800058 	cmpnei	r2,r2,1
     e24:	1000101e 	bne	r2,zero,e68 <endGame+0x88>
		VGA_text(35, 25, "Player 1 lost");
     e28:	010008c4 	movi	r4,35
     e2c:	01400644 	movi	r5,25
     e30:	01800074 	movhi	r6,1
     e34:	318bc404 	addi	r6,r6,12048
     e38:	00026180 	call	2618 <VGA_text>
		OSTimeDlyHMSM(0, 0, 40, 0);
     e3c:	0009883a 	mov	r4,zero
     e40:	000b883a 	mov	r5,zero
     e44:	01800a04 	movi	r6,40
     e48:	000f883a 	mov	r7,zero
     e4c:	000ec040 	call	ec04 <OSTimeDlyHMSM>
		VGA_text(35, 25, "             ");
     e50:	010008c4 	movi	r4,35
     e54:	01400644 	movi	r5,25
     e58:	01800074 	movhi	r6,1
     e5c:	318bc804 	addi	r6,r6,12064
     e60:	00026180 	call	2618 <VGA_text>
     e64:	00001206 	br	eb0 <endGame+0xd0>
	} else if(ID == 2){
     e68:	e0bfff17 	ldw	r2,-4(fp)
     e6c:	10800098 	cmpnei	r2,r2,2
     e70:	10000f1e 	bne	r2,zero,eb0 <endGame+0xd0>
		VGA_text(35, 25, "Player 2 lost");
     e74:	010008c4 	movi	r4,35
     e78:	01400644 	movi	r5,25
     e7c:	01800074 	movhi	r6,1
     e80:	318bcc04 	addi	r6,r6,12080
     e84:	00026180 	call	2618 <VGA_text>
		OSTimeDlyHMSM(0, 0, 40, 0);
     e88:	0009883a 	mov	r4,zero
     e8c:	000b883a 	mov	r5,zero
     e90:	01800a04 	movi	r6,40
     e94:	000f883a 	mov	r7,zero
     e98:	000ec040 	call	ec04 <OSTimeDlyHMSM>
		VGA_text(35, 25, "             ");
     e9c:	010008c4 	movi	r4,35
     ea0:	01400644 	movi	r5,25
     ea4:	01800074 	movhi	r6,1
     ea8:	318bc804 	addi	r6,r6,12064
     eac:	00026180 	call	2618 <VGA_text>
	}


	OSFlagPost(Flags, Menu_Flag + Menu2_Flag, OS_FLAG_CLR, &err);
     eb0:	d0a7f417 	ldw	r2,-24624(gp)
     eb4:	1009883a 	mov	r4,r2
     eb8:	01400444 	movi	r5,17
     ebc:	000d883a 	mov	r6,zero
     ec0:	e1fffe04 	addi	r7,fp,-8
     ec4:	00099000 	call	9900 <OSFlagPost>

	teken_menu();
     ec8:	00022880 	call	2288 <teken_menu>

	VGA_box(ALT_x1, ALT_y, ALT_x1 + 5, ALT_y + 5, zwart); // erase
     ecc:	d127ff17 	ldw	r4,-24580(gp)
     ed0:	d167fc17 	ldw	r5,-24592(gp)
     ed4:	d0a7ff17 	ldw	r2,-24580(gp)
     ed8:	10c00144 	addi	r3,r2,5
     edc:	d0a7fc17 	ldw	r2,-24592(gp)
     ee0:	10800144 	addi	r2,r2,5
     ee4:	d8000015 	stw	zero,0(sp)
     ee8:	180d883a 	mov	r6,r3
     eec:	100f883a 	mov	r7,r2
     ef0:	00025640 	call	2564 <VGA_box>

	ALT_x1 = 0;
     ef4:	d027ff15 	stw	zero,-24580(gp)
	ALT_x2 = 165;
     ef8:	00802944 	movi	r2,165
     efc:	d0a80115 	stw	r2,-24572(gp)
	ALT_y = 100;
     f00:	00801904 	movi	r2,100
     f04:	d0a7fc15 	stw	r2,-24592(gp)
	ALT_inc_x = 1;
     f08:	00800044 	movi	r2,1
     f0c:	d0a80015 	stw	r2,-24576(gp)
	ALT_inc_y = 1;
     f10:	00800044 	movi	r2,1
     f14:	d0a7fd15 	stw	r2,-24588(gp)

	check = 1;
     f18:	00800044 	movi	r2,1
     f1c:	d0a00115 	stw	r2,-32764(gp)
	first = 1;
     f20:	00800044 	movi	r2,1
     f24:	d0a00015 	stw	r2,-32768(gp)

}
     f28:	e037883a 	mov	sp,fp
     f2c:	dfc00117 	ldw	ra,4(sp)
     f30:	df000017 	ldw	fp,0(sp)
     f34:	dec00204 	addi	sp,sp,8
     f38:	f800283a 	ret

00000f3c <endSingleplayer>:

void endSingleplayer(){
     f3c:	defffc04 	addi	sp,sp,-16
     f40:	dfc00315 	stw	ra,12(sp)
     f44:	df000215 	stw	fp,8(sp)
     f48:	df000204 	addi	fp,sp,8
	INT8U err;

	printf("end Singleplayer\n");
     f4c:	01000074 	movhi	r4,1
     f50:	210bd004 	addi	r4,r4,12096
     f54:	0002f740 	call	2f74 <puts>

	clearScreen();
     f58:	00020c80 	call	20c8 <clearScreen>

	OSFlagPost(Flags, Singleplayer_Flag + C1_Flag, OS_FLAG_SET, &err);
     f5c:	d0a7f417 	ldw	r2,-24624(gp)
     f60:	1009883a 	mov	r4,r2
     f64:	01400904 	movi	r5,36
     f68:	01800044 	movi	r6,1
     f6c:	e1ffff04 	addi	r7,fp,-4
     f70:	00099000 	call	9900 <OSFlagPost>

	VGA_text(35, 25, "GAME OVER");
     f74:	010008c4 	movi	r4,35
     f78:	01400644 	movi	r5,25
     f7c:	01800074 	movhi	r6,1
     f80:	318bd504 	addi	r6,r6,12116
     f84:	00026180 	call	2618 <VGA_text>
	OSTimeDlyHMSM(0, 0, 40, 0);
     f88:	0009883a 	mov	r4,zero
     f8c:	000b883a 	mov	r5,zero
     f90:	01800a04 	movi	r6,40
     f94:	000f883a 	mov	r7,zero
     f98:	000ec040 	call	ec04 <OSTimeDlyHMSM>
	VGA_text(35, 25, "         ");
     f9c:	010008c4 	movi	r4,35
     fa0:	01400644 	movi	r5,25
     fa4:	01800074 	movhi	r6,1
     fa8:	318bd804 	addi	r6,r6,12128
     fac:	00026180 	call	2618 <VGA_text>



	OSFlagPost(Flags, Menu_Flag + Menu2_Flag, OS_FLAG_CLR, &err);
     fb0:	d0a7f417 	ldw	r2,-24624(gp)
     fb4:	1009883a 	mov	r4,r2
     fb8:	01400444 	movi	r5,17
     fbc:	000d883a 	mov	r6,zero
     fc0:	e1ffff04 	addi	r7,fp,-4
     fc4:	00099000 	call	9900 <OSFlagPost>

	teken_menu();
     fc8:	00022880 	call	2288 <teken_menu>

	VGA_box (316, 4, 319, 235, zwart); 					// singleplayer balk weghalen voor de zekerheid
     fcc:	d8000015 	stw	zero,0(sp)
     fd0:	01004f04 	movi	r4,316
     fd4:	01400104 	movi	r5,4
     fd8:	01804fc4 	movi	r6,319
     fdc:	01c03ac4 	movi	r7,235
     fe0:	00025640 	call	2564 <VGA_box>

	VGA_box(ALT_x1, ALT_y, ALT_x1 + 5, ALT_y + 5, zwart); // erase
     fe4:	d127ff17 	ldw	r4,-24580(gp)
     fe8:	d167fc17 	ldw	r5,-24592(gp)
     fec:	d0a7ff17 	ldw	r2,-24580(gp)
     ff0:	10c00144 	addi	r3,r2,5
     ff4:	d0a7fc17 	ldw	r2,-24592(gp)
     ff8:	10800144 	addi	r2,r2,5
     ffc:	d8000015 	stw	zero,0(sp)
    1000:	180d883a 	mov	r6,r3
    1004:	100f883a 	mov	r7,r2
    1008:	00025640 	call	2564 <VGA_box>

	ALT_x1 = 0;
    100c:	d027ff15 	stw	zero,-24580(gp)
	ALT_x2 = 165;
    1010:	00802944 	movi	r2,165
    1014:	d0a80115 	stw	r2,-24572(gp)
	ALT_y = 100;
    1018:	00801904 	movi	r2,100
    101c:	d0a7fc15 	stw	r2,-24592(gp)
	ALT_inc_x = 1;
    1020:	00800044 	movi	r2,1
    1024:	d0a80015 	stw	r2,-24576(gp)
	ALT_inc_y = 1;
    1028:	00800044 	movi	r2,1
    102c:	d0a7fd15 	stw	r2,-24588(gp)

	leven = beginLevens;
    1030:	008000c4 	movi	r2,3
    1034:	d0a00215 	stw	r2,-32760(gp)
	first = 1;
    1038:	00800044 	movi	r2,1
    103c:	d0a00015 	stw	r2,-32768(gp)
}
    1040:	e037883a 	mov	sp,fp
    1044:	dfc00117 	ldw	ra,4(sp)
    1048:	df000017 	ldw	fp,0(sp)
    104c:	dec00204 	addi	sp,sp,8
    1050:	f800283a 	ret

00001054 <Singleplayer>:

void Singleplayer(void* pdata){
    1054:	defff804 	addi	sp,sp,-32
    1058:	dfc00715 	stw	ra,28(sp)
    105c:	df000615 	stw	fp,24(sp)
    1060:	df000604 	addi	fp,sp,24
    1064:	e13fff15 	stw	r4,-4(fp)
	
	ALT_x1 = 0;
    1068:	d027ff15 	stw	zero,-24580(gp)
	ALT_x2 = 165;
    106c:	00802944 	movi	r2,165
    1070:	d0a80115 	stw	r2,-24572(gp)
	ALT_y = 100;
    1074:	00801904 	movi	r2,100
    1078:	d0a7fc15 	stw	r2,-24592(gp)
	ALT_inc_x = 1;
    107c:	00800044 	movi	r2,1
    1080:	d0a80015 	stw	r2,-24576(gp)
	ALT_inc_y = 1;
    1084:	00800044 	movi	r2,1
    1088:	d0a7fd15 	stw	r2,-24588(gp)

	pixel_buffer_x = 315;
    108c:	00804ec4 	movi	r2,315
    1090:	d0a7fb15 	stw	r2,-24596(gp)
	pixel_buffer_y = 230;
    1094:	00803984 	movi	r2,230
    1098:	d0a7f915 	stw	r2,-24604(gp)
	int count;
	int q;
	Balk * balkje;
	Balk * balkje2;
	
	int score3 = 0;
    109c:	e03ffc15 	stw	zero,-16(fp)
	
	
	VGA_box (316, 0, 319, 239, groen); 					// rechts
    10a0:	0081a5c4 	movi	r2,1687
    10a4:	d8800015 	stw	r2,0(sp)
    10a8:	01004f04 	movi	r4,316
    10ac:	000b883a 	mov	r5,zero
    10b0:	01804fc4 	movi	r6,319
    10b4:	01c03bc4 	movi	r7,239
    10b8:	00025640 	call	2564 <VGA_box>
	
	while (1) {
		OSFlagPend(Flags, Singleplayer_Flag, OS_FLAG_WAIT_CLR_ANY, 0, &err);
    10bc:	d0e7f417 	ldw	r3,-24624(gp)
    10c0:	e0bffe04 	addi	r2,fp,-8
    10c4:	d8800015 	stw	r2,0(sp)
    10c8:	1809883a 	mov	r4,r3
    10cc:	01400804 	movi	r5,32
    10d0:	01800044 	movi	r6,1
    10d4:	000f883a 	mov	r7,zero
    10d8:	00092a80 	call	92a8 <OSFlagPend>

		balkje = (Balk*) OSMboxPend(MailBox, 0, &err);
    10dc:	d0e7f517 	ldw	r3,-24620(gp)
    10e0:	e0bffe04 	addi	r2,fp,-8
    10e4:	1809883a 	mov	r4,r3
    10e8:	000b883a 	mov	r5,zero
    10ec:	100d883a 	mov	r6,r2
    10f0:	000a5a00 	call	a5a0 <OSMboxPend>
    10f4:	e0bffd15 	stw	r2,-12(fp)

		//printf("ID is: %d\tHoogte is: %d\n", balkje->ID, balkje->Hoogte);

		for (i = 0; i <= 999; i++) {
    10f8:	e03ffb15 	stw	zero,-20(fp)
    10fc:	00004906 	br	1224 <Singleplayer+0x1d0>

			if(score3 == i){
    1100:	e0fffc17 	ldw	r3,-16(fp)
    1104:	e0bffb17 	ldw	r2,-20(fp)
    1108:	18803c1e 	bne	r3,r2,11fc <Singleplayer+0x1a8>

				if (score3 >= 0 && score3 <= 9){
    110c:	e0bffc17 	ldw	r2,-16(fp)
    1110:	10000716 	blt	r2,zero,1130 <Singleplayer+0xdc>
    1114:	e0bffc17 	ldw	r2,-16(fp)
    1118:	10800288 	cmpgei	r2,r2,10
    111c:	1000041e 	bne	r2,zero,1130 <Singleplayer+0xdc>
					draw_number(i, 3);
    1120:	e13ffb17 	ldw	r4,-20(fp)
    1124:	014000c4 	movi	r5,3
    1128:	00027f80 	call	27f8 <draw_number>

		for (i = 0; i <= 999; i++) {

			if(score3 == i){

				if (score3 >= 0 && score3 <= 9){
    112c:	00003306 	br	11fc <Singleplayer+0x1a8>
					draw_number(i, 3);
				} else if (score3 >= 10 && score3 <= 99){
    1130:	e0bffc17 	ldw	r2,-16(fp)
    1134:	10800290 	cmplti	r2,r2,10
    1138:	1000121e 	bne	r2,zero,1184 <Singleplayer+0x130>
    113c:	e0bffc17 	ldw	r2,-16(fp)
    1140:	10801908 	cmpgei	r2,r2,100
    1144:	10000f1e 	bne	r2,zero,1184 <Singleplayer+0x130>
					draw_number(i /10 , 2);
    1148:	e0fffb17 	ldw	r3,-20(fp)
    114c:	00800284 	movi	r2,10
    1150:	1885283a 	div	r2,r3,r2
    1154:	1009883a 	mov	r4,r2
    1158:	01400084 	movi	r5,2
    115c:	00027f80 	call	27f8 <draw_number>
					draw_number(i %10, 3);
    1160:	e0bffb17 	ldw	r2,-20(fp)
    1164:	00c00284 	movi	r3,10
    1168:	10c7283a 	div	r3,r2,r3
    116c:	18c002a4 	muli	r3,r3,10
    1170:	10c5c83a 	sub	r2,r2,r3
    1174:	1009883a 	mov	r4,r2
    1178:	014000c4 	movi	r5,3
    117c:	00027f80 	call	27f8 <draw_number>

			if(score3 == i){

				if (score3 >= 0 && score3 <= 9){
					draw_number(i, 3);
				} else if (score3 >= 10 && score3 <= 99){
    1180:	00001e06 	br	11fc <Singleplayer+0x1a8>
					draw_number(i /10 , 2);
					draw_number(i %10, 3);
				} else if (score3 >= 100 && score3 <= 999){
    1184:	e0bffc17 	ldw	r2,-16(fp)
    1188:	10801910 	cmplti	r2,r2,100
    118c:	10001b1e 	bne	r2,zero,11fc <Singleplayer+0x1a8>
    1190:	e0bffc17 	ldw	r2,-16(fp)
    1194:	1080fa08 	cmpgei	r2,r2,1000
    1198:	1000181e 	bne	r2,zero,11fc <Singleplayer+0x1a8>
					draw_number(i /100 , 1);
    119c:	e0fffb17 	ldw	r3,-20(fp)
    11a0:	00801904 	movi	r2,100
    11a4:	1885283a 	div	r2,r3,r2
    11a8:	1009883a 	mov	r4,r2
    11ac:	01400044 	movi	r5,1
    11b0:	00027f80 	call	27f8 <draw_number>
					draw_number(i %10, 2);
    11b4:	e0bffb17 	ldw	r2,-20(fp)
    11b8:	00c00284 	movi	r3,10
    11bc:	10c7283a 	div	r3,r2,r3
    11c0:	18c002a4 	muli	r3,r3,10
    11c4:	10c5c83a 	sub	r2,r2,r3
    11c8:	1009883a 	mov	r4,r2
    11cc:	01400084 	movi	r5,2
    11d0:	00027f80 	call	27f8 <draw_number>
					draw_number(i %10 /10, 3);
    11d4:	e0bffb17 	ldw	r2,-20(fp)
    11d8:	00c00284 	movi	r3,10
    11dc:	10c7283a 	div	r3,r2,r3
    11e0:	18c002a4 	muli	r3,r3,10
    11e4:	10c7c83a 	sub	r3,r2,r3
    11e8:	00800284 	movi	r2,10
    11ec:	1885283a 	div	r2,r3,r2
    11f0:	1009883a 	mov	r4,r2
    11f4:	014000c4 	movi	r5,3
    11f8:	00027f80 	call	27f8 <draw_number>
				}
			}
			if((score3 == 999) || (leven == 0)){ // max score of geen levens meer, spel eindigt.
    11fc:	e0bffc17 	ldw	r2,-16(fp)
    1200:	1080f9e0 	cmpeqi	r2,r2,999
    1204:	1000021e 	bne	r2,zero,1210 <Singleplayer+0x1bc>
    1208:	d0a00217 	ldw	r2,-32760(gp)
    120c:	1000021e 	bne	r2,zero,1218 <Singleplayer+0x1c4>
				score3 =0;
    1210:	e03ffc15 	stw	zero,-16(fp)
				endSingleplayer();
    1214:	0000f3c0 	call	f3c <endSingleplayer>

		balkje = (Balk*) OSMboxPend(MailBox, 0, &err);

		//printf("ID is: %d\tHoogte is: %d\n", balkje->ID, balkje->Hoogte);

		for (i = 0; i <= 999; i++) {
    1218:	e0bffb17 	ldw	r2,-20(fp)
    121c:	10800044 	addi	r2,r2,1
    1220:	e0bffb15 	stw	r2,-20(fp)
    1224:	e0bffb17 	ldw	r2,-20(fp)
    1228:	1080fa10 	cmplti	r2,r2,1000
    122c:	103fb41e 	bne	r2,zero,1100 <__alt_mem_Flash_flash_data+0xf4001100>
//
//			check = 0;
//		}


		VGA_box(ALT_x1, ALT_y, ALT_x1 + 5, ALT_y + 5, zwart); // erase
    1230:	d127ff17 	ldw	r4,-24580(gp)
    1234:	d167fc17 	ldw	r5,-24592(gp)
    1238:	d0a7ff17 	ldw	r2,-24580(gp)
    123c:	10c00144 	addi	r3,r2,5
    1240:	d0a7fc17 	ldw	r2,-24592(gp)
    1244:	10800144 	addi	r2,r2,5
    1248:	d8000015 	stw	zero,0(sp)
    124c:	180d883a 	mov	r6,r3
    1250:	100f883a 	mov	r7,r2
    1254:	00025640 	call	2564 <VGA_box>

		if (first == 1) {
    1258:	d0a00017 	ldw	r2,-32768(gp)
    125c:	10800058 	cmpnei	r2,r2,1
    1260:	10000f1e 	bne	r2,zero,12a0 <Singleplayer+0x24c>
			ALT_x1 = 160 + ALT_x1 + ALT_inc_x;
    1264:	d0a7ff17 	ldw	r2,-24580(gp)
    1268:	10c02804 	addi	r3,r2,160
    126c:	d0a80017 	ldw	r2,-24576(gp)
    1270:	1885883a 	add	r2,r3,r2
    1274:	d0a7ff15 	stw	r2,-24580(gp)
			ALT_x2 += ALT_inc_x;
    1278:	d0e80117 	ldw	r3,-24572(gp)
    127c:	d0a80017 	ldw	r2,-24576(gp)
    1280:	1885883a 	add	r2,r3,r2
    1284:	d0a80115 	stw	r2,-24572(gp)
			ALT_y += ALT_inc_y;
    1288:	d0e7fc17 	ldw	r3,-24592(gp)
    128c:	d0a7fd17 	ldw	r2,-24588(gp)
    1290:	1885883a 	add	r2,r3,r2
    1294:	d0a7fc15 	stw	r2,-24592(gp)
			first = 0;
    1298:	d0200015 	stw	zero,-32768(gp)
    129c:	00000c06 	br	12d0 <Singleplayer+0x27c>
		} else {
			ALT_x1 += ALT_inc_x;
    12a0:	d0e7ff17 	ldw	r3,-24580(gp)
    12a4:	d0a80017 	ldw	r2,-24576(gp)
    12a8:	1885883a 	add	r2,r3,r2
    12ac:	d0a7ff15 	stw	r2,-24580(gp)
			ALT_x2 += ALT_inc_x;
    12b0:	d0e80117 	ldw	r3,-24572(gp)
    12b4:	d0a80017 	ldw	r2,-24576(gp)
    12b8:	1885883a 	add	r2,r3,r2
    12bc:	d0a80115 	stw	r2,-24572(gp)
			ALT_y += ALT_inc_y;
    12c0:	d0e7fc17 	ldw	r3,-24592(gp)
    12c4:	d0a7fd17 	ldw	r2,-24588(gp)
    12c8:	1885883a 	add	r2,r3,r2
    12cc:	d0a7fc15 	stw	r2,-24592(gp)
		}
		VGA_box(ALT_x1, ALT_y, ALT_x1 + 5, ALT_y + 5, wit); // ball
    12d0:	d127ff17 	ldw	r4,-24580(gp)
    12d4:	d167fc17 	ldw	r5,-24592(gp)
    12d8:	d0a7ff17 	ldw	r2,-24580(gp)
    12dc:	11800144 	addi	r6,r2,5
    12e0:	d0a7fc17 	ldw	r2,-24592(gp)
    12e4:	10c00144 	addi	r3,r2,5
    12e8:	00804034 	movhi	r2,256
    12ec:	10bfffc4 	addi	r2,r2,-1
    12f0:	d8800015 	stw	r2,0(sp)
    12f4:	180f883a 	mov	r7,r3
    12f8:	00025640 	call	2564 <VGA_box>

		//collision rand boven en onder
		if ((ALT_y == pixel_buffer_y) || (ALT_y == 4)) {
    12fc:	d0e7fc17 	ldw	r3,-24592(gp)
    1300:	d0a7f917 	ldw	r2,-24604(gp)
    1304:	18800326 	beq	r3,r2,1314 <Singleplayer+0x2c0>
    1308:	d0a7fc17 	ldw	r2,-24592(gp)
    130c:	10800118 	cmpnei	r2,r2,4
    1310:	1000031e 	bne	r2,zero,1320 <Singleplayer+0x2cc>
			ALT_inc_y = -(ALT_inc_y);
    1314:	d0a7fd17 	ldw	r2,-24588(gp)
    1318:	0085c83a 	sub	r2,zero,r2
    131c:	d0a7fd15 	stw	r2,-24588(gp)
		}
		//collision rand rechts en links
		if ((ALT_x2 == pixel_buffer_x)) {
    1320:	d0e80117 	ldw	r3,-24572(gp)
    1324:	d0a7fb17 	ldw	r2,-24596(gp)
    1328:	1880071e 	bne	r3,r2,1348 <Singleplayer+0x2f4>
			ALT_inc_x = -(ALT_inc_x);
    132c:	d0a80017 	ldw	r2,-24576(gp)
    1330:	0085c83a 	sub	r2,zero,r2
    1334:	d0a80015 	stw	r2,-24576(gp)
			deleteNummer();
    1338:	00027bc0 	call	27bc <deleteNummer>
			score3++;
    133c:	e0bffc17 	ldw	r2,-16(fp)
    1340:	10800044 	addi	r2,r2,1
    1344:	e0bffc15 	stw	r2,-16(fp)

		}

		//links dood
		if (ALT_x1 == 0) {
    1348:	d0a7ff17 	ldw	r2,-24580(gp)
    134c:	1000051e 	bne	r2,zero,1364 <Singleplayer+0x310>
			leven--;
    1350:	d0a00217 	ldw	r2,-32760(gp)
    1354:	10bfffc4 	addi	r2,r2,-1
    1358:	d0a00215 	stw	r2,-32760(gp)
			gescoord(3);
    135c:	010000c4 	movi	r4,3
    1360:	0000bbc0 	call	bbc <gescoord>
//				score3++;
//			}

		//collision linker balkje
		//lange zijde
		if(ALT_x1 == 21 && (ALT_y > balkje->Hoogte && ALT_y < balkje->Hoogte + 50)){
    1364:	d0a7ff17 	ldw	r2,-24580(gp)
    1368:	10800558 	cmpnei	r2,r2,21
    136c:	10000c1e 	bne	r2,zero,13a0 <Singleplayer+0x34c>
    1370:	e0bffd17 	ldw	r2,-12(fp)
    1374:	10c00017 	ldw	r3,0(r2)
    1378:	d0a7fc17 	ldw	r2,-24592(gp)
    137c:	1880080e 	bge	r3,r2,13a0 <Singleplayer+0x34c>
    1380:	e0bffd17 	ldw	r2,-12(fp)
    1384:	10800017 	ldw	r2,0(r2)
    1388:	10800c84 	addi	r2,r2,50
    138c:	d0e7fc17 	ldw	r3,-24592(gp)
    1390:	1880030e 	bge	r3,r2,13a0 <Singleplayer+0x34c>
			ALT_inc_x = -(ALT_inc_x);
    1394:	d0a80017 	ldw	r2,-24576(gp)
    1398:	0085c83a 	sub	r2,zero,r2
    139c:	d0a80015 	stw	r2,-24576(gp)
		}
		//boven
		if((ALT_x1 < 24 && ALT_x1 > 21) && ALT_y == balkje->Hoogte){
    13a0:	d0a7ff17 	ldw	r2,-24580(gp)
    13a4:	10800608 	cmpgei	r2,r2,24
    13a8:	10000a1e 	bne	r2,zero,13d4 <Singleplayer+0x380>
    13ac:	d0a7ff17 	ldw	r2,-24580(gp)
    13b0:	10800590 	cmplti	r2,r2,22
    13b4:	1000071e 	bne	r2,zero,13d4 <Singleplayer+0x380>
    13b8:	e0bffd17 	ldw	r2,-12(fp)
    13bc:	10c00017 	ldw	r3,0(r2)
    13c0:	d0a7fc17 	ldw	r2,-24592(gp)
    13c4:	1880031e 	bne	r3,r2,13d4 <Singleplayer+0x380>
			ALT_inc_y = -(ALT_inc_y);
    13c8:	d0a7fd17 	ldw	r2,-24588(gp)
    13cc:	0085c83a 	sub	r2,zero,r2
    13d0:	d0a7fd15 	stw	r2,-24588(gp)
		}
		//onder
		if((ALT_x1 < 24 && ALT_x1 > 21) && ALT_y == balkje->Hoogte + 50){
    13d4:	d0a7ff17 	ldw	r2,-24580(gp)
    13d8:	10800608 	cmpgei	r2,r2,24
    13dc:	10000b1e 	bne	r2,zero,140c <Singleplayer+0x3b8>
    13e0:	d0a7ff17 	ldw	r2,-24580(gp)
    13e4:	10800590 	cmplti	r2,r2,22
    13e8:	1000081e 	bne	r2,zero,140c <Singleplayer+0x3b8>
    13ec:	e0bffd17 	ldw	r2,-12(fp)
    13f0:	10800017 	ldw	r2,0(r2)
    13f4:	10c00c84 	addi	r3,r2,50
    13f8:	d0a7fc17 	ldw	r2,-24592(gp)
    13fc:	1880031e 	bne	r3,r2,140c <Singleplayer+0x3b8>
			ALT_inc_y = -(ALT_inc_y);
    1400:	d0a7fd17 	ldw	r2,-24588(gp)
    1404:	0085c83a 	sub	r2,zero,r2
    1408:	d0a7fd15 	stw	r2,-24588(gp)
		}



		OSTimeDly(1);
    140c:	01000044 	movi	r4,1
    1410:	000eabc0 	call	eabc <OSTimeDly>


	}
    1414:	003f2906 	br	10bc <__alt_mem_Flash_flash_data+0xf40010bc>

00001418 <nummer1>:
	
}

static void nummer1(int q){
    1418:	defffc04 	addi	sp,sp,-16
    141c:	dfc00315 	stw	ra,12(sp)
    1420:	df000215 	stw	fp,8(sp)
    1424:	df000204 	addi	fp,sp,8
    1428:	e13fff15 	stw	r4,-4(fp)

	VGA_box(X + 5, 20, X+7, 60, wit);
    142c:	d0a80217 	ldw	r2,-24568(gp)
    1430:	11000144 	addi	r4,r2,5
    1434:	d0a80217 	ldw	r2,-24568(gp)
    1438:	10c001c4 	addi	r3,r2,7
    143c:	00804034 	movhi	r2,256
    1440:	10bfffc4 	addi	r2,r2,-1
    1444:	d8800015 	stw	r2,0(sp)
    1448:	01400504 	movi	r5,20
    144c:	180d883a 	mov	r6,r3
    1450:	01c00f04 	movi	r7,60
    1454:	00025640 	call	2564 <VGA_box>
}
    1458:	e037883a 	mov	sp,fp
    145c:	dfc00117 	ldw	ra,4(sp)
    1460:	df000017 	ldw	fp,0(sp)
    1464:	dec00204 	addi	sp,sp,8
    1468:	f800283a 	ret

0000146c <nummer2>:

static void nummer2(int q){
    146c:	defffc04 	addi	sp,sp,-16
    1470:	dfc00315 	stw	ra,12(sp)
    1474:	df000215 	stw	fp,8(sp)
    1478:	df000204 	addi	fp,sp,8
    147c:	e13fff15 	stw	r4,-4(fp)
	VGA_box(X, 20, X+ 20, 22, wit);					//bovenste lijn
    1480:	d1280217 	ldw	r4,-24568(gp)
    1484:	d0a80217 	ldw	r2,-24568(gp)
    1488:	10c00504 	addi	r3,r2,20
    148c:	00804034 	movhi	r2,256
    1490:	10bfffc4 	addi	r2,r2,-1
    1494:	d8800015 	stw	r2,0(sp)
    1498:	01400504 	movi	r5,20
    149c:	180d883a 	mov	r6,r3
    14a0:	01c00584 	movi	r7,22
    14a4:	00025640 	call	2564 <VGA_box>
	VGA_box(X + 18, 22, X+ 20, 38, wit);			//lijn naar beneden
    14a8:	d0a80217 	ldw	r2,-24568(gp)
    14ac:	11000484 	addi	r4,r2,18
    14b0:	d0a80217 	ldw	r2,-24568(gp)
    14b4:	10c00504 	addi	r3,r2,20
    14b8:	00804034 	movhi	r2,256
    14bc:	10bfffc4 	addi	r2,r2,-1
    14c0:	d8800015 	stw	r2,0(sp)
    14c4:	01400584 	movi	r5,22
    14c8:	180d883a 	mov	r6,r3
    14cc:	01c00984 	movi	r7,38
    14d0:	00025640 	call	2564 <VGA_box>
	VGA_box(X, 38, X+ 20, 40, wit);					//lijn naar links
    14d4:	d1280217 	ldw	r4,-24568(gp)
    14d8:	d0a80217 	ldw	r2,-24568(gp)
    14dc:	10c00504 	addi	r3,r2,20
    14e0:	00804034 	movhi	r2,256
    14e4:	10bfffc4 	addi	r2,r2,-1
    14e8:	d8800015 	stw	r2,0(sp)
    14ec:	01400984 	movi	r5,38
    14f0:	180d883a 	mov	r6,r3
    14f4:	01c00a04 	movi	r7,40
    14f8:	00025640 	call	2564 <VGA_box>
	VGA_box(X, 40, X+ 2, 58, wit);					//lijn naar beneden
    14fc:	d1280217 	ldw	r4,-24568(gp)
    1500:	d0a80217 	ldw	r2,-24568(gp)
    1504:	10c00084 	addi	r3,r2,2
    1508:	00804034 	movhi	r2,256
    150c:	10bfffc4 	addi	r2,r2,-1
    1510:	d8800015 	stw	r2,0(sp)
    1514:	01400a04 	movi	r5,40
    1518:	180d883a 	mov	r6,r3
    151c:	01c00e84 	movi	r7,58
    1520:	00025640 	call	2564 <VGA_box>
	VGA_box(X, 58, X+ 20, 60, wit);					//lijn naar rechts
    1524:	d1280217 	ldw	r4,-24568(gp)
    1528:	d0a80217 	ldw	r2,-24568(gp)
    152c:	10c00504 	addi	r3,r2,20
    1530:	00804034 	movhi	r2,256
    1534:	10bfffc4 	addi	r2,r2,-1
    1538:	d8800015 	stw	r2,0(sp)
    153c:	01400e84 	movi	r5,58
    1540:	180d883a 	mov	r6,r3
    1544:	01c00f04 	movi	r7,60
    1548:	00025640 	call	2564 <VGA_box>
}
    154c:	e037883a 	mov	sp,fp
    1550:	dfc00117 	ldw	ra,4(sp)
    1554:	df000017 	ldw	fp,0(sp)
    1558:	dec00204 	addi	sp,sp,8
    155c:	f800283a 	ret

00001560 <nummer3>:

static void nummer3(int q){
    1560:	defffc04 	addi	sp,sp,-16
    1564:	dfc00315 	stw	ra,12(sp)
    1568:	df000215 	stw	fp,8(sp)
    156c:	df000204 	addi	fp,sp,8
    1570:	e13fff15 	stw	r4,-4(fp)
	VGA_box(X, 20, X+ 20, 22, wit);					//bovenste lijn
    1574:	d1280217 	ldw	r4,-24568(gp)
    1578:	d0a80217 	ldw	r2,-24568(gp)
    157c:	10c00504 	addi	r3,r2,20
    1580:	00804034 	movhi	r2,256
    1584:	10bfffc4 	addi	r2,r2,-1
    1588:	d8800015 	stw	r2,0(sp)
    158c:	01400504 	movi	r5,20
    1590:	180d883a 	mov	r6,r3
    1594:	01c00584 	movi	r7,22
    1598:	00025640 	call	2564 <VGA_box>
	VGA_box(X + 18, 22, X+ 20, 60, wit);			//rechter lijn
    159c:	d0a80217 	ldw	r2,-24568(gp)
    15a0:	11000484 	addi	r4,r2,18
    15a4:	d0a80217 	ldw	r2,-24568(gp)
    15a8:	10c00504 	addi	r3,r2,20
    15ac:	00804034 	movhi	r2,256
    15b0:	10bfffc4 	addi	r2,r2,-1
    15b4:	d8800015 	stw	r2,0(sp)
    15b8:	01400584 	movi	r5,22
    15bc:	180d883a 	mov	r6,r3
    15c0:	01c00f04 	movi	r7,60
    15c4:	00025640 	call	2564 <VGA_box>
	VGA_box(X, 39, X+ 20, 41, wit);					//midden lijn
    15c8:	d1280217 	ldw	r4,-24568(gp)
    15cc:	d0a80217 	ldw	r2,-24568(gp)
    15d0:	10c00504 	addi	r3,r2,20
    15d4:	00804034 	movhi	r2,256
    15d8:	10bfffc4 	addi	r2,r2,-1
    15dc:	d8800015 	stw	r2,0(sp)
    15e0:	014009c4 	movi	r5,39
    15e4:	180d883a 	mov	r6,r3
    15e8:	01c00a44 	movi	r7,41
    15ec:	00025640 	call	2564 <VGA_box>
	VGA_box(X, 58, X+ 20, 60, wit);					//onderste lijn
    15f0:	d1280217 	ldw	r4,-24568(gp)
    15f4:	d0a80217 	ldw	r2,-24568(gp)
    15f8:	10c00504 	addi	r3,r2,20
    15fc:	00804034 	movhi	r2,256
    1600:	10bfffc4 	addi	r2,r2,-1
    1604:	d8800015 	stw	r2,0(sp)
    1608:	01400e84 	movi	r5,58
    160c:	180d883a 	mov	r6,r3
    1610:	01c00f04 	movi	r7,60
    1614:	00025640 	call	2564 <VGA_box>
}
    1618:	e037883a 	mov	sp,fp
    161c:	dfc00117 	ldw	ra,4(sp)
    1620:	df000017 	ldw	fp,0(sp)
    1624:	dec00204 	addi	sp,sp,8
    1628:	f800283a 	ret

0000162c <nummer4>:

static void nummer4(int q){
    162c:	defffc04 	addi	sp,sp,-16
    1630:	dfc00315 	stw	ra,12(sp)
    1634:	df000215 	stw	fp,8(sp)
    1638:	df000204 	addi	fp,sp,8
    163c:	e13fff15 	stw	r4,-4(fp)
		VGA_box(X, 20, X+2, 40, wit);					//linkse lijn
    1640:	d1280217 	ldw	r4,-24568(gp)
    1644:	d0a80217 	ldw	r2,-24568(gp)
    1648:	10c00084 	addi	r3,r2,2
    164c:	00804034 	movhi	r2,256
    1650:	10bfffc4 	addi	r2,r2,-1
    1654:	d8800015 	stw	r2,0(sp)
    1658:	01400504 	movi	r5,20
    165c:	180d883a 	mov	r6,r3
    1660:	01c00a04 	movi	r7,40
    1664:	00025640 	call	2564 <VGA_box>
		VGA_box(X, 39, X + 20, 41, wit);				//middelste lijn
    1668:	d1280217 	ldw	r4,-24568(gp)
    166c:	d0a80217 	ldw	r2,-24568(gp)
    1670:	10c00504 	addi	r3,r2,20
    1674:	00804034 	movhi	r2,256
    1678:	10bfffc4 	addi	r2,r2,-1
    167c:	d8800015 	stw	r2,0(sp)
    1680:	014009c4 	movi	r5,39
    1684:	180d883a 	mov	r6,r3
    1688:	01c00a44 	movi	r7,41
    168c:	00025640 	call	2564 <VGA_box>
		VGA_box(X + 18, 20, X + 20, 60, wit);			//rechtse lijn
    1690:	d0a80217 	ldw	r2,-24568(gp)
    1694:	11000484 	addi	r4,r2,18
    1698:	d0a80217 	ldw	r2,-24568(gp)
    169c:	10c00504 	addi	r3,r2,20
    16a0:	00804034 	movhi	r2,256
    16a4:	10bfffc4 	addi	r2,r2,-1
    16a8:	d8800015 	stw	r2,0(sp)
    16ac:	01400504 	movi	r5,20
    16b0:	180d883a 	mov	r6,r3
    16b4:	01c00f04 	movi	r7,60
    16b8:	00025640 	call	2564 <VGA_box>
}
    16bc:	e037883a 	mov	sp,fp
    16c0:	dfc00117 	ldw	ra,4(sp)
    16c4:	df000017 	ldw	fp,0(sp)
    16c8:	dec00204 	addi	sp,sp,8
    16cc:	f800283a 	ret

000016d0 <nummer5>:

static void nummer5(int q){
    16d0:	defffc04 	addi	sp,sp,-16
    16d4:	dfc00315 	stw	ra,12(sp)
    16d8:	df000215 	stw	fp,8(sp)
    16dc:	df000204 	addi	fp,sp,8
    16e0:	e13fff15 	stw	r4,-4(fp)
		VGA_box(X, 20, X+ 20, 22, wit);					//bovenste lijn
    16e4:	d1280217 	ldw	r4,-24568(gp)
    16e8:	d0a80217 	ldw	r2,-24568(gp)
    16ec:	10c00504 	addi	r3,r2,20
    16f0:	00804034 	movhi	r2,256
    16f4:	10bfffc4 	addi	r2,r2,-1
    16f8:	d8800015 	stw	r2,0(sp)
    16fc:	01400504 	movi	r5,20
    1700:	180d883a 	mov	r6,r3
    1704:	01c00584 	movi	r7,22
    1708:	00025640 	call	2564 <VGA_box>
		VGA_box(X, 22, X+ 2, 38, wit);					//lijn naar beneden
    170c:	d1280217 	ldw	r4,-24568(gp)
    1710:	d0a80217 	ldw	r2,-24568(gp)
    1714:	10c00084 	addi	r3,r2,2
    1718:	00804034 	movhi	r2,256
    171c:	10bfffc4 	addi	r2,r2,-1
    1720:	d8800015 	stw	r2,0(sp)
    1724:	01400584 	movi	r5,22
    1728:	180d883a 	mov	r6,r3
    172c:	01c00984 	movi	r7,38
    1730:	00025640 	call	2564 <VGA_box>
		VGA_box(X, 38, X+ 20, 40, wit);					//lijn naar links
    1734:	d1280217 	ldw	r4,-24568(gp)
    1738:	d0a80217 	ldw	r2,-24568(gp)
    173c:	10c00504 	addi	r3,r2,20
    1740:	00804034 	movhi	r2,256
    1744:	10bfffc4 	addi	r2,r2,-1
    1748:	d8800015 	stw	r2,0(sp)
    174c:	01400984 	movi	r5,38
    1750:	180d883a 	mov	r6,r3
    1754:	01c00a04 	movi	r7,40
    1758:	00025640 	call	2564 <VGA_box>
		VGA_box(X + 18, 40, X+ 20, 58, wit);			//lijn naar beneden
    175c:	d0a80217 	ldw	r2,-24568(gp)
    1760:	11000484 	addi	r4,r2,18
    1764:	d0a80217 	ldw	r2,-24568(gp)
    1768:	10c00504 	addi	r3,r2,20
    176c:	00804034 	movhi	r2,256
    1770:	10bfffc4 	addi	r2,r2,-1
    1774:	d8800015 	stw	r2,0(sp)
    1778:	01400a04 	movi	r5,40
    177c:	180d883a 	mov	r6,r3
    1780:	01c00e84 	movi	r7,58
    1784:	00025640 	call	2564 <VGA_box>
		VGA_box(X, 58, X+ 20, 60, wit);					//lijn naar rechts
    1788:	d1280217 	ldw	r4,-24568(gp)
    178c:	d0a80217 	ldw	r2,-24568(gp)
    1790:	10c00504 	addi	r3,r2,20
    1794:	00804034 	movhi	r2,256
    1798:	10bfffc4 	addi	r2,r2,-1
    179c:	d8800015 	stw	r2,0(sp)
    17a0:	01400e84 	movi	r5,58
    17a4:	180d883a 	mov	r6,r3
    17a8:	01c00f04 	movi	r7,60
    17ac:	00025640 	call	2564 <VGA_box>
}
    17b0:	e037883a 	mov	sp,fp
    17b4:	dfc00117 	ldw	ra,4(sp)
    17b8:	df000017 	ldw	fp,0(sp)
    17bc:	dec00204 	addi	sp,sp,8
    17c0:	f800283a 	ret

000017c4 <nummer6>:

static void nummer6(int q){
    17c4:	defffc04 	addi	sp,sp,-16
    17c8:	dfc00315 	stw	ra,12(sp)
    17cc:	df000215 	stw	fp,8(sp)
    17d0:	df000204 	addi	fp,sp,8
    17d4:	e13fff15 	stw	r4,-4(fp)
		VGA_box(X, 20, X+2, 60, wit);					//lijn links
    17d8:	d1280217 	ldw	r4,-24568(gp)
    17dc:	d0a80217 	ldw	r2,-24568(gp)
    17e0:	10c00084 	addi	r3,r2,2
    17e4:	00804034 	movhi	r2,256
    17e8:	10bfffc4 	addi	r2,r2,-1
    17ec:	d8800015 	stw	r2,0(sp)
    17f0:	01400504 	movi	r5,20
    17f4:	180d883a 	mov	r6,r3
    17f8:	01c00f04 	movi	r7,60
    17fc:	00025640 	call	2564 <VGA_box>
		VGA_box(X, 20, X+ 20, 22, wit);					//bovenste lijn
    1800:	d1280217 	ldw	r4,-24568(gp)
    1804:	d0a80217 	ldw	r2,-24568(gp)
    1808:	10c00504 	addi	r3,r2,20
    180c:	00804034 	movhi	r2,256
    1810:	10bfffc4 	addi	r2,r2,-1
    1814:	d8800015 	stw	r2,0(sp)
    1818:	01400504 	movi	r5,20
    181c:	180d883a 	mov	r6,r3
    1820:	01c00584 	movi	r7,22
    1824:	00025640 	call	2564 <VGA_box>
		VGA_box(X, 58, X+ 20, 60, wit);					//onderste lijn
    1828:	d1280217 	ldw	r4,-24568(gp)
    182c:	d0a80217 	ldw	r2,-24568(gp)
    1830:	10c00504 	addi	r3,r2,20
    1834:	00804034 	movhi	r2,256
    1838:	10bfffc4 	addi	r2,r2,-1
    183c:	d8800015 	stw	r2,0(sp)
    1840:	01400e84 	movi	r5,58
    1844:	180d883a 	mov	r6,r3
    1848:	01c00f04 	movi	r7,60
    184c:	00025640 	call	2564 <VGA_box>
		VGA_box(X + 18, 40, X+ 20, 58, wit);			//lijn rechts
    1850:	d0a80217 	ldw	r2,-24568(gp)
    1854:	11000484 	addi	r4,r2,18
    1858:	d0a80217 	ldw	r2,-24568(gp)
    185c:	10c00504 	addi	r3,r2,20
    1860:	00804034 	movhi	r2,256
    1864:	10bfffc4 	addi	r2,r2,-1
    1868:	d8800015 	stw	r2,0(sp)
    186c:	01400a04 	movi	r5,40
    1870:	180d883a 	mov	r6,r3
    1874:	01c00e84 	movi	r7,58
    1878:	00025640 	call	2564 <VGA_box>
		VGA_box(X, 39, X + 20, 41, wit);				//middelste lijn
    187c:	d1280217 	ldw	r4,-24568(gp)
    1880:	d0a80217 	ldw	r2,-24568(gp)
    1884:	10c00504 	addi	r3,r2,20
    1888:	00804034 	movhi	r2,256
    188c:	10bfffc4 	addi	r2,r2,-1
    1890:	d8800015 	stw	r2,0(sp)
    1894:	014009c4 	movi	r5,39
    1898:	180d883a 	mov	r6,r3
    189c:	01c00a44 	movi	r7,41
    18a0:	00025640 	call	2564 <VGA_box>
}
    18a4:	e037883a 	mov	sp,fp
    18a8:	dfc00117 	ldw	ra,4(sp)
    18ac:	df000017 	ldw	fp,0(sp)
    18b0:	dec00204 	addi	sp,sp,8
    18b4:	f800283a 	ret

000018b8 <nummer7>:

static void nummer7(int q){
    18b8:	defffc04 	addi	sp,sp,-16
    18bc:	dfc00315 	stw	ra,12(sp)
    18c0:	df000215 	stw	fp,8(sp)
    18c4:	df000204 	addi	fp,sp,8
    18c8:	e13fff15 	stw	r4,-4(fp)
		VGA_box(X + 18, 20, X + 20, 60, wit);			//rechtse lijn
    18cc:	d0a80217 	ldw	r2,-24568(gp)
    18d0:	11000484 	addi	r4,r2,18
    18d4:	d0a80217 	ldw	r2,-24568(gp)
    18d8:	10c00504 	addi	r3,r2,20
    18dc:	00804034 	movhi	r2,256
    18e0:	10bfffc4 	addi	r2,r2,-1
    18e4:	d8800015 	stw	r2,0(sp)
    18e8:	01400504 	movi	r5,20
    18ec:	180d883a 	mov	r6,r3
    18f0:	01c00f04 	movi	r7,60
    18f4:	00025640 	call	2564 <VGA_box>
		VGA_box(X, 20, X+ 20, 22, wit);					//bovenste lijn
    18f8:	d1280217 	ldw	r4,-24568(gp)
    18fc:	d0a80217 	ldw	r2,-24568(gp)
    1900:	10c00504 	addi	r3,r2,20
    1904:	00804034 	movhi	r2,256
    1908:	10bfffc4 	addi	r2,r2,-1
    190c:	d8800015 	stw	r2,0(sp)
    1910:	01400504 	movi	r5,20
    1914:	180d883a 	mov	r6,r3
    1918:	01c00584 	movi	r7,22
    191c:	00025640 	call	2564 <VGA_box>
}
    1920:	e037883a 	mov	sp,fp
    1924:	dfc00117 	ldw	ra,4(sp)
    1928:	df000017 	ldw	fp,0(sp)
    192c:	dec00204 	addi	sp,sp,8
    1930:	f800283a 	ret

00001934 <nummer8>:

static void nummer8(int q){
    1934:	defffc04 	addi	sp,sp,-16
    1938:	dfc00315 	stw	ra,12(sp)
    193c:	df000215 	stw	fp,8(sp)
    1940:	df000204 	addi	fp,sp,8
    1944:	e13fff15 	stw	r4,-4(fp)
		VGA_box(X + 18, 20, X + 20, 60, wit);			//rechtse lijn
    1948:	d0a80217 	ldw	r2,-24568(gp)
    194c:	11000484 	addi	r4,r2,18
    1950:	d0a80217 	ldw	r2,-24568(gp)
    1954:	10c00504 	addi	r3,r2,20
    1958:	00804034 	movhi	r2,256
    195c:	10bfffc4 	addi	r2,r2,-1
    1960:	d8800015 	stw	r2,0(sp)
    1964:	01400504 	movi	r5,20
    1968:	180d883a 	mov	r6,r3
    196c:	01c00f04 	movi	r7,60
    1970:	00025640 	call	2564 <VGA_box>
		VGA_box(X, 20, X+2, 60, wit);					//lijn links
    1974:	d1280217 	ldw	r4,-24568(gp)
    1978:	d0a80217 	ldw	r2,-24568(gp)
    197c:	10c00084 	addi	r3,r2,2
    1980:	00804034 	movhi	r2,256
    1984:	10bfffc4 	addi	r2,r2,-1
    1988:	d8800015 	stw	r2,0(sp)
    198c:	01400504 	movi	r5,20
    1990:	180d883a 	mov	r6,r3
    1994:	01c00f04 	movi	r7,60
    1998:	00025640 	call	2564 <VGA_box>
		VGA_box(X, 20, X+ 20, 22, wit);					//bovenste lijn
    199c:	d1280217 	ldw	r4,-24568(gp)
    19a0:	d0a80217 	ldw	r2,-24568(gp)
    19a4:	10c00504 	addi	r3,r2,20
    19a8:	00804034 	movhi	r2,256
    19ac:	10bfffc4 	addi	r2,r2,-1
    19b0:	d8800015 	stw	r2,0(sp)
    19b4:	01400504 	movi	r5,20
    19b8:	180d883a 	mov	r6,r3
    19bc:	01c00584 	movi	r7,22
    19c0:	00025640 	call	2564 <VGA_box>
		VGA_box(X, 39, X + 20, 41, wit);				//middelste lijn
    19c4:	d1280217 	ldw	r4,-24568(gp)
    19c8:	d0a80217 	ldw	r2,-24568(gp)
    19cc:	10c00504 	addi	r3,r2,20
    19d0:	00804034 	movhi	r2,256
    19d4:	10bfffc4 	addi	r2,r2,-1
    19d8:	d8800015 	stw	r2,0(sp)
    19dc:	014009c4 	movi	r5,39
    19e0:	180d883a 	mov	r6,r3
    19e4:	01c00a44 	movi	r7,41
    19e8:	00025640 	call	2564 <VGA_box>
		VGA_box(X, 58, X+ 20, 60, wit);					//onderste lijn
    19ec:	d1280217 	ldw	r4,-24568(gp)
    19f0:	d0a80217 	ldw	r2,-24568(gp)
    19f4:	10c00504 	addi	r3,r2,20
    19f8:	00804034 	movhi	r2,256
    19fc:	10bfffc4 	addi	r2,r2,-1
    1a00:	d8800015 	stw	r2,0(sp)
    1a04:	01400e84 	movi	r5,58
    1a08:	180d883a 	mov	r6,r3
    1a0c:	01c00f04 	movi	r7,60
    1a10:	00025640 	call	2564 <VGA_box>
}
    1a14:	e037883a 	mov	sp,fp
    1a18:	dfc00117 	ldw	ra,4(sp)
    1a1c:	df000017 	ldw	fp,0(sp)
    1a20:	dec00204 	addi	sp,sp,8
    1a24:	f800283a 	ret

00001a28 <nummer9>:

static void nummer9(int q){
    1a28:	defffc04 	addi	sp,sp,-16
    1a2c:	dfc00315 	stw	ra,12(sp)
    1a30:	df000215 	stw	fp,8(sp)
    1a34:	df000204 	addi	fp,sp,8
    1a38:	e13fff15 	stw	r4,-4(fp)
		VGA_box(X + 18, 20, X + 20, 60, wit);			//rechtse lijn
    1a3c:	d0a80217 	ldw	r2,-24568(gp)
    1a40:	11000484 	addi	r4,r2,18
    1a44:	d0a80217 	ldw	r2,-24568(gp)
    1a48:	10c00504 	addi	r3,r2,20
    1a4c:	00804034 	movhi	r2,256
    1a50:	10bfffc4 	addi	r2,r2,-1
    1a54:	d8800015 	stw	r2,0(sp)
    1a58:	01400504 	movi	r5,20
    1a5c:	180d883a 	mov	r6,r3
    1a60:	01c00f04 	movi	r7,60
    1a64:	00025640 	call	2564 <VGA_box>
		VGA_box(X, 20, X+2, 40, wit);					//linkse lijn
    1a68:	d1280217 	ldw	r4,-24568(gp)
    1a6c:	d0a80217 	ldw	r2,-24568(gp)
    1a70:	10c00084 	addi	r3,r2,2
    1a74:	00804034 	movhi	r2,256
    1a78:	10bfffc4 	addi	r2,r2,-1
    1a7c:	d8800015 	stw	r2,0(sp)
    1a80:	01400504 	movi	r5,20
    1a84:	180d883a 	mov	r6,r3
    1a88:	01c00a04 	movi	r7,40
    1a8c:	00025640 	call	2564 <VGA_box>
		VGA_box(X, 20, X+ 20, 22, wit);					//bovenste lijn
    1a90:	d1280217 	ldw	r4,-24568(gp)
    1a94:	d0a80217 	ldw	r2,-24568(gp)
    1a98:	10c00504 	addi	r3,r2,20
    1a9c:	00804034 	movhi	r2,256
    1aa0:	10bfffc4 	addi	r2,r2,-1
    1aa4:	d8800015 	stw	r2,0(sp)
    1aa8:	01400504 	movi	r5,20
    1aac:	180d883a 	mov	r6,r3
    1ab0:	01c00584 	movi	r7,22
    1ab4:	00025640 	call	2564 <VGA_box>
		VGA_box(X, 39, X + 20, 41, wit);				//middelste lijn
    1ab8:	d1280217 	ldw	r4,-24568(gp)
    1abc:	d0a80217 	ldw	r2,-24568(gp)
    1ac0:	10c00504 	addi	r3,r2,20
    1ac4:	00804034 	movhi	r2,256
    1ac8:	10bfffc4 	addi	r2,r2,-1
    1acc:	d8800015 	stw	r2,0(sp)
    1ad0:	014009c4 	movi	r5,39
    1ad4:	180d883a 	mov	r6,r3
    1ad8:	01c00a44 	movi	r7,41
    1adc:	00025640 	call	2564 <VGA_box>
		VGA_box(X, 58, X+ 20, 60, wit);					//onderste lijn
    1ae0:	d1280217 	ldw	r4,-24568(gp)
    1ae4:	d0a80217 	ldw	r2,-24568(gp)
    1ae8:	10c00504 	addi	r3,r2,20
    1aec:	00804034 	movhi	r2,256
    1af0:	10bfffc4 	addi	r2,r2,-1
    1af4:	d8800015 	stw	r2,0(sp)
    1af8:	01400e84 	movi	r5,58
    1afc:	180d883a 	mov	r6,r3
    1b00:	01c00f04 	movi	r7,60
    1b04:	00025640 	call	2564 <VGA_box>
}
    1b08:	e037883a 	mov	sp,fp
    1b0c:	dfc00117 	ldw	ra,4(sp)
    1b10:	df000017 	ldw	fp,0(sp)
    1b14:	dec00204 	addi	sp,sp,8
    1b18:	f800283a 	ret

00001b1c <nummer0>:

static void nummer0(int q){
    1b1c:	defffc04 	addi	sp,sp,-16
    1b20:	dfc00315 	stw	ra,12(sp)
    1b24:	df000215 	stw	fp,8(sp)
    1b28:	df000204 	addi	fp,sp,8
    1b2c:	e13fff15 	stw	r4,-4(fp)
		VGA_box(X + 18, 20, X + 20, 60, wit);			//rechtse lijn
    1b30:	d0a80217 	ldw	r2,-24568(gp)
    1b34:	11000484 	addi	r4,r2,18
    1b38:	d0a80217 	ldw	r2,-24568(gp)
    1b3c:	10c00504 	addi	r3,r2,20
    1b40:	00804034 	movhi	r2,256
    1b44:	10bfffc4 	addi	r2,r2,-1
    1b48:	d8800015 	stw	r2,0(sp)
    1b4c:	01400504 	movi	r5,20
    1b50:	180d883a 	mov	r6,r3
    1b54:	01c00f04 	movi	r7,60
    1b58:	00025640 	call	2564 <VGA_box>
		VGA_box(X, 20, X+2, 60, wit);					//lijn links
    1b5c:	d1280217 	ldw	r4,-24568(gp)
    1b60:	d0a80217 	ldw	r2,-24568(gp)
    1b64:	10c00084 	addi	r3,r2,2
    1b68:	00804034 	movhi	r2,256
    1b6c:	10bfffc4 	addi	r2,r2,-1
    1b70:	d8800015 	stw	r2,0(sp)
    1b74:	01400504 	movi	r5,20
    1b78:	180d883a 	mov	r6,r3
    1b7c:	01c00f04 	movi	r7,60
    1b80:	00025640 	call	2564 <VGA_box>
		VGA_box(X, 20, X+ 20, 22, wit);					//bovenste lijn
    1b84:	d1280217 	ldw	r4,-24568(gp)
    1b88:	d0a80217 	ldw	r2,-24568(gp)
    1b8c:	10c00504 	addi	r3,r2,20
    1b90:	00804034 	movhi	r2,256
    1b94:	10bfffc4 	addi	r2,r2,-1
    1b98:	d8800015 	stw	r2,0(sp)
    1b9c:	01400504 	movi	r5,20
    1ba0:	180d883a 	mov	r6,r3
    1ba4:	01c00584 	movi	r7,22
    1ba8:	00025640 	call	2564 <VGA_box>
		VGA_box(X, 58, X+ 20, 60, wit);					//onderste lijn
    1bac:	d1280217 	ldw	r4,-24568(gp)
    1bb0:	d0a80217 	ldw	r2,-24568(gp)
    1bb4:	10c00504 	addi	r3,r2,20
    1bb8:	00804034 	movhi	r2,256
    1bbc:	10bfffc4 	addi	r2,r2,-1
    1bc0:	d8800015 	stw	r2,0(sp)
    1bc4:	01400e84 	movi	r5,58
    1bc8:	180d883a 	mov	r6,r3
    1bcc:	01c00f04 	movi	r7,60
    1bd0:	00025640 	call	2564 <VGA_box>
}
    1bd4:	e037883a 	mov	sp,fp
    1bd8:	dfc00117 	ldw	ra,4(sp)
    1bdc:	df000017 	ldw	fp,0(sp)
    1be0:	dec00204 	addi	sp,sp,8
    1be4:	f800283a 	ret

00001be8 <exec>:

void(*nummer[])(void) = { nummer0, nummer1, nummer2, nummer3, nummer4, nummer5, nummer6, nummer7, nummer8, nummer9 };

void exec(int value)
{
    1be8:	defffd04 	addi	sp,sp,-12
    1bec:	dfc00215 	stw	ra,8(sp)
    1bf0:	df000115 	stw	fp,4(sp)
    1bf4:	df000104 	addi	fp,sp,4
    1bf8:	e13fff15 	stw	r4,-4(fp)
	if (value) {
    1bfc:	e0bfff17 	ldw	r2,-4(fp)
    1c00:	10001126 	beq	r2,zero,1c48 <exec+0x60>
		exec(value / 10);
    1c04:	e0ffff17 	ldw	r3,-4(fp)
    1c08:	00800284 	movi	r2,10
    1c0c:	1885283a 	div	r2,r3,r2
    1c10:	1009883a 	mov	r4,r2
    1c14:	0001be80 	call	1be8 <exec>
		nummer[value % 10]();
    1c18:	e0bfff17 	ldw	r2,-4(fp)
    1c1c:	00c00284 	movi	r3,10
    1c20:	10c7283a 	div	r3,r2,r3
    1c24:	18c002a4 	muli	r3,r3,10
    1c28:	10c7c83a 	sub	r3,r2,r3
    1c2c:	00800074 	movhi	r2,1
    1c30:	108cc404 	addi	r2,r2,13072
    1c34:	18c7883a 	add	r3,r3,r3
    1c38:	18c7883a 	add	r3,r3,r3
    1c3c:	10c5883a 	add	r2,r2,r3
    1c40:	10800017 	ldw	r2,0(r2)
    1c44:	103ee83a 	callr	r2
	}
}
    1c48:	e037883a 	mov	sp,fp
    1c4c:	dfc00117 	ldw	ra,4(sp)
    1c50:	df000017 	ldw	fp,0(sp)
    1c54:	dec00204 	addi	sp,sp,8
    1c58:	f800283a 	ret

00001c5c <menu>:
int eenkeer = 1;
int onePress = 1;
int last;
int changed;

void menu(void* pdata){
    1c5c:	defffa04 	addi	sp,sp,-24
    1c60:	dfc00515 	stw	ra,20(sp)
    1c64:	df000415 	stw	fp,16(sp)
    1c68:	df000404 	addi	fp,sp,16
    1c6c:	e13fff15 	stw	r4,-4(fp)
	int ID = (int*)pdata;
    1c70:	e0bfff17 	ldw	r2,-4(fp)
    1c74:	e0bffd15 	stw	r2,-12(fp)
	INT8U err;

	teken_menu();
    1c78:	00022880 	call	2288 <teken_menu>

	while(1){
		OSFlagPend(Flags, Menu_Flag, OS_FLAG_WAIT_CLR_ALL, 0, &err);
    1c7c:	d0e7f417 	ldw	r3,-24624(gp)
    1c80:	e0bffe04 	addi	r2,fp,-8
    1c84:	d8800015 	stw	r2,0(sp)
    1c88:	1809883a 	mov	r4,r3
    1c8c:	01400044 	movi	r5,1
    1c90:	000d883a 	mov	r6,zero
    1c94:	000f883a 	mov	r7,zero
    1c98:	00092a80 	call	92a8 <OSFlagPend>

		if (controller(ID) == 1){
    1c9c:	e13ffd17 	ldw	r4,-12(fp)
    1ca0:	000035c0 	call	35c <controller>
    1ca4:	10800058 	cmpnei	r2,r2,1
    1ca8:	1000111e 	bne	r2,zero,1cf0 <menu+0x94>
			if(changed != 0){
    1cac:	d0a80517 	ldw	r2,-24556(gp)
    1cb0:	10000926 	beq	r2,zero,1cd8 <menu+0x7c>
				gameModeMenu++;
    1cb4:	d0a00317 	ldw	r2,-32756(gp)
    1cb8:	10800044 	addi	r2,r2,1
    1cbc:	d0a00315 	stw	r2,-32756(gp)
				eenkeer = 1;
    1cc0:	00800044 	movi	r2,1
    1cc4:	d0a00a15 	stw	r2,-32728(gp)
				changed=0;
    1cc8:	d0280515 	stw	zero,-24556(gp)
				printf("heeft 1 gereturned \n");
    1ccc:	01000074 	movhi	r4,1
    1cd0:	210bdb04 	addi	r4,r4,12140
    1cd4:	0002f740 	call	2f74 <puts>
			}
			if (gameModeMenu >= 5){
    1cd8:	d0a00317 	ldw	r2,-32756(gp)
    1cdc:	10800150 	cmplti	r2,r2,5
    1ce0:	1000161e 	bne	r2,zero,1d3c <menu+0xe0>
				gameModeMenu = 1;
    1ce4:	00800044 	movi	r2,1
    1ce8:	d0a00315 	stw	r2,-32756(gp)
    1cec:	00001306 	br	1d3c <menu+0xe0>
			}
		} else if (controller(ID) == 0){
    1cf0:	e13ffd17 	ldw	r4,-12(fp)
    1cf4:	000035c0 	call	35c <controller>
    1cf8:	1000101e 	bne	r2,zero,1d3c <menu+0xe0>
			if(changed !=0){
    1cfc:	d0a80517 	ldw	r2,-24556(gp)
    1d00:	10000a26 	beq	r2,zero,1d2c <menu+0xd0>
				gameModeMenu--;
    1d04:	d0a00317 	ldw	r2,-32756(gp)
    1d08:	10bfffc4 	addi	r2,r2,-1
    1d0c:	d0a00315 	stw	r2,-32756(gp)
				last=0;
    1d10:	d0280415 	stw	zero,-24560(gp)
				changed=0;
    1d14:	d0280515 	stw	zero,-24556(gp)
				eenkeer = 1;
    1d18:	00800044 	movi	r2,1
    1d1c:	d0a00a15 	stw	r2,-32728(gp)
				printf("heeft 0 gereturned \n");
    1d20:	01000074 	movhi	r4,1
    1d24:	210be004 	addi	r4,r4,12160
    1d28:	0002f740 	call	2f74 <puts>
			}
			if (gameModeMenu <= 0){
    1d2c:	d0a00317 	ldw	r2,-32756(gp)
    1d30:	00800216 	blt	zero,r2,1d3c <menu+0xe0>
				gameModeMenu = 4;
    1d34:	00800104 	movi	r2,4
    1d38:	d0a00315 	stw	r2,-32756(gp)
			}
		}
		OSTimeDly(20);
    1d3c:	01000504 	movi	r4,20
    1d40:	000eabc0 	call	eabc <OSTimeDly>
	}
    1d44:	003fcd06 	br	1c7c <__alt_mem_Flash_flash_data+0xf4001c7c>

00001d48 <selecteerMenu>:

}

void selecteerMenu(void *pdata){
    1d48:	defffa04 	addi	sp,sp,-24
    1d4c:	dfc00515 	stw	ra,20(sp)
    1d50:	df000415 	stw	fp,16(sp)
    1d54:	df000404 	addi	fp,sp,16
    1d58:	e13fff15 	stw	r4,-4(fp)
	INT8U err;
	int ID = (int*)pdata;
    1d5c:	e0bfff17 	ldw	r2,-4(fp)
    1d60:	e0bffd15 	stw	r2,-12(fp)



	while(1){
	OSFlagPend(Flags, Menu2_Flag, OS_FLAG_WAIT_CLR_ALL, 0, &err);
    1d64:	d0e7f417 	ldw	r3,-24624(gp)
    1d68:	e0bffe04 	addi	r2,fp,-8
    1d6c:	d8800015 	stw	r2,0(sp)
    1d70:	1809883a 	mov	r4,r3
    1d74:	01400404 	movi	r5,16
    1d78:	000d883a 	mov	r6,zero
    1d7c:	000f883a 	mov	r7,zero
    1d80:	00092a80 	call	92a8 <OSFlagPend>

		if (gameModeMenu == 1){
    1d84:	d0a00317 	ldw	r2,-32756(gp)
    1d88:	10800058 	cmpnei	r2,r2,1
    1d8c:	10003a1e 	bne	r2,zero,1e78 <selecteerMenu+0x130>
			if(eenkeer == 1){
    1d90:	d0a00a17 	ldw	r2,-32728(gp)
    1d94:	10800058 	cmpnei	r2,r2,1
    1d98:	10001f1e 	bne	r2,zero,1e18 <selecteerMenu+0xd0>
				clearScreen();
    1d9c:	00020c80 	call	20c8 <clearScreen>
				VGA_box(xLinks*4, xBoven*4, xRechts*4, xOnder*4, rood);
    1da0:	d0a00417 	ldw	r2,-32752(gp)
    1da4:	1085883a 	add	r2,r2,r2
    1da8:	1085883a 	add	r2,r2,r2
    1dac:	1009883a 	mov	r4,r2
    1db0:	d0a00617 	ldw	r2,-32744(gp)
    1db4:	1085883a 	add	r2,r2,r2
    1db8:	1085883a 	add	r2,r2,r2
    1dbc:	100b883a 	mov	r5,r2
    1dc0:	d0a00517 	ldw	r2,-32748(gp)
    1dc4:	1085883a 	add	r2,r2,r2
    1dc8:	1085883a 	add	r2,r2,r2
    1dcc:	100d883a 	mov	r6,r2
    1dd0:	d0a00717 	ldw	r2,-32740(gp)
    1dd4:	1085883a 	add	r2,r2,r2
    1dd8:	1085883a 	add	r2,r2,r2
    1ddc:	1007883a 	mov	r3,r2
    1de0:	00be0014 	movui	r2,63488
    1de4:	d8800015 	stw	r2,0(sp)
    1de8:	180f883a 	mov	r7,r3
    1dec:	00025640 	call	2564 <VGA_box>
				VGA_text (xMenu, yMenu, "Singleplayer");
    1df0:	d0e00817 	ldw	r3,-32736(gp)
    1df4:	d0a00917 	ldw	r2,-32732(gp)
    1df8:	1809883a 	mov	r4,r3
    1dfc:	100b883a 	mov	r5,r2
    1e00:	01800074 	movhi	r6,1
    1e04:	318be504 	addi	r6,r6,12180
    1e08:	00026180 	call	2618 <VGA_text>
				eenkeer = 0;
    1e0c:	d0200a15 	stw	zero,-32728(gp)
				changed = 1;
    1e10:	00800044 	movi	r2,1
    1e14:	d0a80515 	stw	r2,-24556(gp)
			}
			if(controller(ID) == 2){
    1e18:	e13ffd17 	ldw	r4,-12(fp)
    1e1c:	000035c0 	call	35c <controller>
    1e20:	10800098 	cmpnei	r2,r2,2
    1e24:	1000a51e 	bne	r2,zero,20bc <selecteerMenu+0x374>
				clearScreen();
    1e28:	00020c80 	call	20c8 <clearScreen>
				clearText();
    1e2c:	00021080 	call	2108 <clearText>
				printf("start Singleplayer\n");
    1e30:	01000074 	movhi	r4,1
    1e34:	210be904 	addi	r4,r4,12196
    1e38:	0002f740 	call	2f74 <puts>
				OSFlagPost(Flags, Singleplayer_Flag + C1_Flag, OS_FLAG_CLR, &err);
    1e3c:	d0e7f417 	ldw	r3,-24624(gp)
    1e40:	e0bffe04 	addi	r2,fp,-8
    1e44:	1809883a 	mov	r4,r3
    1e48:	01400904 	movi	r5,36
    1e4c:	000d883a 	mov	r6,zero
    1e50:	100f883a 	mov	r7,r2
    1e54:	00099000 	call	9900 <OSFlagPost>
				OSFlagPost(Flags, Menu_Flag + Menu2_Flag, OS_FLAG_SET, &err);
    1e58:	d0e7f417 	ldw	r3,-24624(gp)
    1e5c:	e0bffe04 	addi	r2,fp,-8
    1e60:	1809883a 	mov	r4,r3
    1e64:	01400444 	movi	r5,17
    1e68:	01800044 	movi	r6,1
    1e6c:	100f883a 	mov	r7,r2
    1e70:	00099000 	call	9900 <OSFlagPost>
    1e74:	00009106 	br	20bc <selecteerMenu+0x374>
			}
		} else if (gameModeMenu == 2){
    1e78:	d0a00317 	ldw	r2,-32756(gp)
    1e7c:	10800098 	cmpnei	r2,r2,2
    1e80:	10003d1e 	bne	r2,zero,1f78 <selecteerMenu+0x230>
			if(eenkeer == 1){
    1e84:	d0a00a17 	ldw	r2,-32728(gp)
    1e88:	10800058 	cmpnei	r2,r2,1
    1e8c:	1000221e 	bne	r2,zero,1f18 <selecteerMenu+0x1d0>
				clearScreen();
    1e90:	00020c80 	call	20c8 <clearScreen>
				VGA_box(xLinks*4, xBoven*4 + 16, xRechts*4, xOnder*4 + 16, rood);
    1e94:	d0a00417 	ldw	r2,-32752(gp)
    1e98:	1085883a 	add	r2,r2,r2
    1e9c:	1085883a 	add	r2,r2,r2
    1ea0:	1009883a 	mov	r4,r2
    1ea4:	d0a00617 	ldw	r2,-32744(gp)
    1ea8:	10800104 	addi	r2,r2,4
    1eac:	1085883a 	add	r2,r2,r2
    1eb0:	1085883a 	add	r2,r2,r2
    1eb4:	100b883a 	mov	r5,r2
    1eb8:	d0a00517 	ldw	r2,-32748(gp)
    1ebc:	1085883a 	add	r2,r2,r2
    1ec0:	1085883a 	add	r2,r2,r2
    1ec4:	100d883a 	mov	r6,r2
    1ec8:	d0a00717 	ldw	r2,-32740(gp)
    1ecc:	10800104 	addi	r2,r2,4
    1ed0:	1085883a 	add	r2,r2,r2
    1ed4:	1085883a 	add	r2,r2,r2
    1ed8:	1007883a 	mov	r3,r2
    1edc:	00be0014 	movui	r2,63488
    1ee0:	d8800015 	stw	r2,0(sp)
    1ee4:	180f883a 	mov	r7,r3
    1ee8:	00025640 	call	2564 <VGA_box>
				VGA_text (xMenu, yMenu + 4, "Multiplayer");
    1eec:	d0e00817 	ldw	r3,-32736(gp)
    1ef0:	d0a00917 	ldw	r2,-32732(gp)
    1ef4:	10800104 	addi	r2,r2,4
    1ef8:	1809883a 	mov	r4,r3
    1efc:	100b883a 	mov	r5,r2
    1f00:	01800074 	movhi	r6,1
    1f04:	318bee04 	addi	r6,r6,12216
    1f08:	00026180 	call	2618 <VGA_text>
				eenkeer = 0;
    1f0c:	d0200a15 	stw	zero,-32728(gp)
				changed = 1;
    1f10:	00800044 	movi	r2,1
    1f14:	d0a80515 	stw	r2,-24556(gp)
			}
			if(controller(ID) == 2){
    1f18:	e13ffd17 	ldw	r4,-12(fp)
    1f1c:	000035c0 	call	35c <controller>
    1f20:	10800098 	cmpnei	r2,r2,2
    1f24:	1000651e 	bne	r2,zero,20bc <selecteerMenu+0x374>
				clearScreen();
    1f28:	00020c80 	call	20c8 <clearScreen>
				clearText();
    1f2c:	00021080 	call	2108 <clearText>
				printf("start game\n");
    1f30:	01000074 	movhi	r4,1
    1f34:	210bf104 	addi	r4,r4,12228
    1f38:	0002f740 	call	2f74 <puts>
				OSFlagPost(Flags, Game_Flag + C1_Flag + C2_Flag, OS_FLAG_CLR, &err);
    1f3c:	d0e7f417 	ldw	r3,-24624(gp)
    1f40:	e0bffe04 	addi	r2,fp,-8
    1f44:	1809883a 	mov	r4,r3
    1f48:	01400384 	movi	r5,14
    1f4c:	000d883a 	mov	r6,zero
    1f50:	100f883a 	mov	r7,r2
    1f54:	00099000 	call	9900 <OSFlagPost>
				OSFlagPost(Flags, Menu_Flag + Menu2_Flag, OS_FLAG_SET, &err);
    1f58:	d0e7f417 	ldw	r3,-24624(gp)
    1f5c:	e0bffe04 	addi	r2,fp,-8
    1f60:	1809883a 	mov	r4,r3
    1f64:	01400444 	movi	r5,17
    1f68:	01800044 	movi	r6,1
    1f6c:	100f883a 	mov	r7,r2
    1f70:	00099000 	call	9900 <OSFlagPost>
    1f74:	00005106 	br	20bc <selecteerMenu+0x374>
			}

		} else if (gameModeMenu == 3){
    1f78:	d0a00317 	ldw	r2,-32756(gp)
    1f7c:	108000d8 	cmpnei	r2,r2,3
    1f80:	1000261e 	bne	r2,zero,201c <selecteerMenu+0x2d4>
			if(eenkeer == 1){
    1f84:	d0a00a17 	ldw	r2,-32728(gp)
    1f88:	10800058 	cmpnei	r2,r2,1
    1f8c:	10004b1e 	bne	r2,zero,20bc <selecteerMenu+0x374>
				clearScreen();
    1f90:	00020c80 	call	20c8 <clearScreen>
				VGA_box(xLinks*4, xBoven*4 + 32, xRechts*4, xOnder*4 + 32, rood);
    1f94:	d0a00417 	ldw	r2,-32752(gp)
    1f98:	1085883a 	add	r2,r2,r2
    1f9c:	1085883a 	add	r2,r2,r2
    1fa0:	1009883a 	mov	r4,r2
    1fa4:	d0a00617 	ldw	r2,-32744(gp)
    1fa8:	10800204 	addi	r2,r2,8
    1fac:	1085883a 	add	r2,r2,r2
    1fb0:	1085883a 	add	r2,r2,r2
    1fb4:	100b883a 	mov	r5,r2
    1fb8:	d0a00517 	ldw	r2,-32748(gp)
    1fbc:	1085883a 	add	r2,r2,r2
    1fc0:	1085883a 	add	r2,r2,r2
    1fc4:	100d883a 	mov	r6,r2
    1fc8:	d0a00717 	ldw	r2,-32740(gp)
    1fcc:	10800204 	addi	r2,r2,8
    1fd0:	1085883a 	add	r2,r2,r2
    1fd4:	1085883a 	add	r2,r2,r2
    1fd8:	1007883a 	mov	r3,r2
    1fdc:	00be0014 	movui	r2,63488
    1fe0:	d8800015 	stw	r2,0(sp)
    1fe4:	180f883a 	mov	r7,r3
    1fe8:	00025640 	call	2564 <VGA_box>
				VGA_text (xMenu, yMenu +  8, "Highscores");
    1fec:	d0e00817 	ldw	r3,-32736(gp)
    1ff0:	d0a00917 	ldw	r2,-32732(gp)
    1ff4:	10800204 	addi	r2,r2,8
    1ff8:	1809883a 	mov	r4,r3
    1ffc:	100b883a 	mov	r5,r2
    2000:	01800074 	movhi	r6,1
    2004:	318bf404 	addi	r6,r6,12240
    2008:	00026180 	call	2618 <VGA_text>
				eenkeer = 0;
    200c:	d0200a15 	stw	zero,-32728(gp)
				changed = 1;
    2010:	00800044 	movi	r2,1
    2014:	d0a80515 	stw	r2,-24556(gp)
    2018:	00002806 	br	20bc <selecteerMenu+0x374>

			}
		} else if (gameModeMenu == 4){
    201c:	d0a00317 	ldw	r2,-32756(gp)
    2020:	10800118 	cmpnei	r2,r2,4
    2024:	1000251e 	bne	r2,zero,20bc <selecteerMenu+0x374>
			if(eenkeer == 1){
    2028:	d0a00a17 	ldw	r2,-32728(gp)
    202c:	10800058 	cmpnei	r2,r2,1
    2030:	1000221e 	bne	r2,zero,20bc <selecteerMenu+0x374>
				clearScreen();
    2034:	00020c80 	call	20c8 <clearScreen>
				VGA_box(xLinks*4, xBoven*4 + 48, xRechts*4, xOnder*4 + 48, rood);
    2038:	d0a00417 	ldw	r2,-32752(gp)
    203c:	1085883a 	add	r2,r2,r2
    2040:	1085883a 	add	r2,r2,r2
    2044:	1009883a 	mov	r4,r2
    2048:	d0a00617 	ldw	r2,-32744(gp)
    204c:	10800304 	addi	r2,r2,12
    2050:	1085883a 	add	r2,r2,r2
    2054:	1085883a 	add	r2,r2,r2
    2058:	100b883a 	mov	r5,r2
    205c:	d0a00517 	ldw	r2,-32748(gp)
    2060:	1085883a 	add	r2,r2,r2
    2064:	1085883a 	add	r2,r2,r2
    2068:	100d883a 	mov	r6,r2
    206c:	d0a00717 	ldw	r2,-32740(gp)
    2070:	10800304 	addi	r2,r2,12
    2074:	1085883a 	add	r2,r2,r2
    2078:	1085883a 	add	r2,r2,r2
    207c:	1007883a 	mov	r3,r2
    2080:	00be0014 	movui	r2,63488
    2084:	d8800015 	stw	r2,0(sp)
    2088:	180f883a 	mov	r7,r3
    208c:	00025640 	call	2564 <VGA_box>
				VGA_text (xMenu, yMenu + 12, "Tutorial");
    2090:	d0e00817 	ldw	r3,-32736(gp)
    2094:	d0a00917 	ldw	r2,-32732(gp)
    2098:	10800304 	addi	r2,r2,12
    209c:	1809883a 	mov	r4,r3
    20a0:	100b883a 	mov	r5,r2
    20a4:	01800074 	movhi	r6,1
    20a8:	318bf704 	addi	r6,r6,12252
    20ac:	00026180 	call	2618 <VGA_text>
				eenkeer = 0;
    20b0:	d0200a15 	stw	zero,-32728(gp)
				changed = 1;
    20b4:	00800044 	movi	r2,1
    20b8:	d0a80515 	stw	r2,-24556(gp)

			}
		}

		OSTimeDly(20);
    20bc:	01000504 	movi	r4,20
    20c0:	000eabc0 	call	eabc <OSTimeDly>
	}
    20c4:	003f2706 	br	1d64 <__alt_mem_Flash_flash_data+0xf4001d64>

000020c8 <clearScreen>:
}

void clearScreen(){
    20c8:	defffd04 	addi	sp,sp,-12
    20cc:	dfc00215 	stw	ra,8(sp)
    20d0:	df000115 	stw	fp,4(sp)
    20d4:	df000104 	addi	fp,sp,4
	VGA_box(25,70, 200,135, 0);
    20d8:	d8000015 	stw	zero,0(sp)
    20dc:	01000644 	movi	r4,25
    20e0:	01401184 	movi	r5,70
    20e4:	01803204 	movi	r6,200
    20e8:	01c021c4 	movi	r7,135
    20ec:	00025640 	call	2564 <VGA_box>
	del_middenlijn();
    20f0:	00027100 	call	2710 <del_middenlijn>
}
    20f4:	e037883a 	mov	sp,fp
    20f8:	dfc00117 	ldw	ra,4(sp)
    20fc:	df000017 	ldw	fp,0(sp)
    2100:	dec00204 	addi	sp,sp,8
    2104:	f800283a 	ret

00002108 <clearText>:

void clearText(){
    2108:	defffe04 	addi	sp,sp,-8
    210c:	dfc00115 	stw	ra,4(sp)
    2110:	df000015 	stw	fp,0(sp)
    2114:	d839883a 	mov	fp,sp
	VGA_text (xMenu, yMenu, "            ");
    2118:	d0e00817 	ldw	r3,-32736(gp)
    211c:	d0a00917 	ldw	r2,-32732(gp)
    2120:	1809883a 	mov	r4,r3
    2124:	100b883a 	mov	r5,r2
    2128:	01800074 	movhi	r6,1
    212c:	318bfa04 	addi	r6,r6,12264
    2130:	00026180 	call	2618 <VGA_text>
	VGA_text (xMenu, yMenu + 4, "           ");
    2134:	d0e00817 	ldw	r3,-32736(gp)
    2138:	d0a00917 	ldw	r2,-32732(gp)
    213c:	10800104 	addi	r2,r2,4
    2140:	1809883a 	mov	r4,r3
    2144:	100b883a 	mov	r5,r2
    2148:	01800074 	movhi	r6,1
    214c:	318bfe04 	addi	r6,r6,12280
    2150:	00026180 	call	2618 <VGA_text>
	VGA_text (xMenu, yMenu+8, "          ");
    2154:	d0e00817 	ldw	r3,-32736(gp)
    2158:	d0a00917 	ldw	r2,-32732(gp)
    215c:	10800204 	addi	r2,r2,8
    2160:	1809883a 	mov	r4,r3
    2164:	100b883a 	mov	r5,r2
    2168:	01800074 	movhi	r6,1
    216c:	318c0104 	addi	r6,r6,12292
    2170:	00026180 	call	2618 <VGA_text>
	VGA_text (xMenu, yMenu+12, "        ");
    2174:	d0e00817 	ldw	r3,-32736(gp)
    2178:	d0a00917 	ldw	r2,-32732(gp)
    217c:	10800304 	addi	r2,r2,12
    2180:	1809883a 	mov	r4,r3
    2184:	100b883a 	mov	r5,r2
    2188:	01800074 	movhi	r6,1
    218c:	318c0404 	addi	r6,r6,12304
    2190:	00026180 	call	2618 <VGA_text>
}
    2194:	e037883a 	mov	sp,fp
    2198:	dfc00117 	ldw	ra,4(sp)
    219c:	df000017 	ldw	fp,0(sp)
    21a0:	dec00204 	addi	sp,sp,8
    21a4:	f800283a 	ret

000021a8 <tekenBox>:

void tekenBox(int Links, int Boven, int Rechts, int Onder, short Kleur){
    21a8:	defff804 	addi	sp,sp,-32
    21ac:	dfc00715 	stw	ra,28(sp)
    21b0:	df000615 	stw	fp,24(sp)
    21b4:	df000604 	addi	fp,sp,24
    21b8:	e13ffb15 	stw	r4,-20(fp)
    21bc:	e17ffc15 	stw	r5,-16(fp)
    21c0:	e1bffd15 	stw	r6,-12(fp)
    21c4:	e1fffe15 	stw	r7,-8(fp)
    21c8:	e0800217 	ldw	r2,8(fp)
    21cc:	e0bfff0d 	sth	r2,-4(fp)
	VGA_box(Links, Boven, Rechts, Onder, Kleur);
    21d0:	e0bfff0f 	ldh	r2,-4(fp)
    21d4:	d8800015 	stw	r2,0(sp)
    21d8:	e13ffb17 	ldw	r4,-20(fp)
    21dc:	e17ffc17 	ldw	r5,-16(fp)
    21e0:	e1bffd17 	ldw	r6,-12(fp)
    21e4:	e1fffe17 	ldw	r7,-8(fp)
    21e8:	00025640 	call	2564 <VGA_box>
}
    21ec:	e037883a 	mov	sp,fp
    21f0:	dfc00117 	ldw	ra,4(sp)
    21f4:	df000017 	ldw	fp,0(sp)
    21f8:	dec00204 	addi	sp,sp,8
    21fc:	f800283a 	ret

00002200 <tekenBox2>:
// tekenBox en tekenBox2 maken samen het visuele effect van het selecteren van een menu optie.
void tekenBox2(int Links, int Boven, int Rechts, int Onder, short Kleur){
    2200:	defff804 	addi	sp,sp,-32
    2204:	dfc00715 	stw	ra,28(sp)
    2208:	df000615 	stw	fp,24(sp)
    220c:	df000604 	addi	fp,sp,24
    2210:	e13ffb15 	stw	r4,-20(fp)
    2214:	e17ffc15 	stw	r5,-16(fp)
    2218:	e1bffd15 	stw	r6,-12(fp)
    221c:	e1fffe15 	stw	r7,-8(fp)
    2220:	e0800217 	ldw	r2,8(fp)
    2224:	e0bfff0d 	sth	r2,-4(fp)
	Links = Links + 1;
    2228:	e0bffb17 	ldw	r2,-20(fp)
    222c:	10800044 	addi	r2,r2,1
    2230:	e0bffb15 	stw	r2,-20(fp)
	Boven = Boven + 1;
    2234:	e0bffc17 	ldw	r2,-16(fp)
    2238:	10800044 	addi	r2,r2,1
    223c:	e0bffc15 	stw	r2,-16(fp)
	Rechts = Rechts - 1;
    2240:	e0bffd17 	ldw	r2,-12(fp)
    2244:	10bfffc4 	addi	r2,r2,-1
    2248:	e0bffd15 	stw	r2,-12(fp)
	Onder = Onder -1;
    224c:	e0bffe17 	ldw	r2,-8(fp)
    2250:	10bfffc4 	addi	r2,r2,-1
    2254:	e0bffe15 	stw	r2,-8(fp)

	VGA_box(Links, Boven, Rechts, Onder, Kleur);
    2258:	e0bfff0f 	ldh	r2,-4(fp)
    225c:	d8800015 	stw	r2,0(sp)
    2260:	e13ffb17 	ldw	r4,-20(fp)
    2264:	e17ffc17 	ldw	r5,-16(fp)
    2268:	e1bffd17 	ldw	r6,-12(fp)
    226c:	e1fffe17 	ldw	r7,-8(fp)
    2270:	00025640 	call	2564 <VGA_box>
}
    2274:	e037883a 	mov	sp,fp
    2278:	dfc00117 	ldw	ra,4(sp)
    227c:	df000017 	ldw	fp,0(sp)
    2280:	dec00204 	addi	sp,sp,8
    2284:	f800283a 	ret

00002288 <teken_menu>:

void teken_menu(){
    2288:	defffd04 	addi	sp,sp,-12
    228c:	dfc00215 	stw	ra,8(sp)
    2290:	df000115 	stw	fp,4(sp)
    2294:	df000104 	addi	fp,sp,4
	VGA_text (xMenu, yMenu, "Singleplayer");
    2298:	d0e00817 	ldw	r3,-32736(gp)
    229c:	d0a00917 	ldw	r2,-32732(gp)
    22a0:	1809883a 	mov	r4,r3
    22a4:	100b883a 	mov	r5,r2
    22a8:	01800074 	movhi	r6,1
    22ac:	318be504 	addi	r6,r6,12180
    22b0:	00026180 	call	2618 <VGA_text>
	VGA_text (xMenu, yMenu + 4, "Multiplayer");
    22b4:	d0e00817 	ldw	r3,-32736(gp)
    22b8:	d0a00917 	ldw	r2,-32732(gp)
    22bc:	10800104 	addi	r2,r2,4
    22c0:	1809883a 	mov	r4,r3
    22c4:	100b883a 	mov	r5,r2
    22c8:	01800074 	movhi	r6,1
    22cc:	318bee04 	addi	r6,r6,12216
    22d0:	00026180 	call	2618 <VGA_text>
	VGA_text (xMenu, yMenu+8, "Highscores");
    22d4:	d0e00817 	ldw	r3,-32736(gp)
    22d8:	d0a00917 	ldw	r2,-32732(gp)
    22dc:	10800204 	addi	r2,r2,8
    22e0:	1809883a 	mov	r4,r3
    22e4:	100b883a 	mov	r5,r2
    22e8:	01800074 	movhi	r6,1
    22ec:	318bf404 	addi	r6,r6,12240
    22f0:	00026180 	call	2618 <VGA_text>
	VGA_text (xMenu, yMenu+12, "Tutorial");
    22f4:	d0e00817 	ldw	r3,-32736(gp)
    22f8:	d0a00917 	ldw	r2,-32732(gp)
    22fc:	10800304 	addi	r2,r2,12
    2300:	1809883a 	mov	r4,r3
    2304:	100b883a 	mov	r5,r2
    2308:	01800074 	movhi	r6,1
    230c:	318bf704 	addi	r6,r6,12252
    2310:	00026180 	call	2618 <VGA_text>
	VGA_box(xLinks*4, xBoven*4 + 16, xRechts*4, xOnder*4 + 16, rood);
    2314:	d0a00417 	ldw	r2,-32752(gp)
    2318:	1085883a 	add	r2,r2,r2
    231c:	1085883a 	add	r2,r2,r2
    2320:	1009883a 	mov	r4,r2
    2324:	d0a00617 	ldw	r2,-32744(gp)
    2328:	10800104 	addi	r2,r2,4
    232c:	1085883a 	add	r2,r2,r2
    2330:	1085883a 	add	r2,r2,r2
    2334:	100b883a 	mov	r5,r2
    2338:	d0a00517 	ldw	r2,-32748(gp)
    233c:	1085883a 	add	r2,r2,r2
    2340:	1085883a 	add	r2,r2,r2
    2344:	100d883a 	mov	r6,r2
    2348:	d0a00717 	ldw	r2,-32740(gp)
    234c:	10800104 	addi	r2,r2,4
    2350:	1085883a 	add	r2,r2,r2
    2354:	1085883a 	add	r2,r2,r2
    2358:	1007883a 	mov	r3,r2
    235c:	00be0014 	movui	r2,63488
    2360:	d8800015 	stw	r2,0(sp)
    2364:	180f883a 	mov	r7,r3
    2368:	00025640 	call	2564 <VGA_box>

}
    236c:	e037883a 	mov	sp,fp
    2370:	dfc00117 	ldw	ra,4(sp)
    2374:	df000017 	ldw	fp,0(sp)
    2378:	dec00204 	addi	sp,sp,8
    237c:	f800283a 	ret

00002380 <main>:
void * Messages[500];


/* The main function creates two task and starts multi-tasking */
int main(void)
{
    2380:	defffb04 	addi	sp,sp,-20
    2384:	dfc00415 	stw	ra,16(sp)
    2388:	df000315 	stw	fp,12(sp)
    238c:	df000304 	addi	fp,sp,12
	INT8U err;
	OSInit();
    2390:	00070780 	call	7078 <OSInit>
	int counter = 0x50000;				// 1/(50 MHz) x (0x960000) ~= 200 msec
    2394:	00800174 	movhi	r2,5
    2398:	e0bffe15 	stw	r2,-8(fp)
	*(interval_timer_ptr + 0x2) = (counter & 0xFFFF);
    239c:	d0a00c17 	ldw	r2,-32720(gp)
    23a0:	10800204 	addi	r2,r2,8
    23a4:	e0fffe17 	ldw	r3,-8(fp)
    23a8:	18ffffcc 	andi	r3,r3,65535
    23ac:	10c00015 	stw	r3,0(r2)
	*(interval_timer_ptr + 0x3) = (counter >> 16) & 0xFFFF;
    23b0:	d0a00c17 	ldw	r2,-32720(gp)
    23b4:	10800304 	addi	r2,r2,12
    23b8:	e0fffe17 	ldw	r3,-8(fp)
    23bc:	1806d43a 	srli	r3,r3,16
    23c0:	10c00015 	stw	r3,0(r2)

	*(interval_timer_ptr + 1) = 0x7;	// STOP = 0, START = 1, CONT = 1, ITO = 1
    23c4:	d0a00c17 	ldw	r2,-32720(gp)
    23c8:	10800104 	addi	r2,r2,4
    23cc:	00c001c4 	movi	r3,7
    23d0:	10c00015 	stw	r3,0(r2)

	Flags = OSFlagCreate(Game_Flag + C1_Flag + C2_Flag, &err);
    23d4:	e0bfff04 	addi	r2,fp,-4
    23d8:	01000384 	movi	r4,14
    23dc:	100b883a 	mov	r5,r2
    23e0:	0008c900 	call	8c90 <OSFlagCreate>
    23e4:	d0a7f415 	stw	r2,-24624(gp)

	gameSem = OSSemCreate(0);
    23e8:	0009883a 	mov	r4,zero
    23ec:	000c7700 	call	c770 <OSSemCreate>
    23f0:	d0a7fe15 	stw	r2,-24584(gp)
	controllerSem = OSSemCreate(0);
    23f4:	0009883a 	mov	r4,zero
    23f8:	000c7700 	call	c770 <OSSemCreate>
    23fc:	d0a7f115 	stw	r2,-24636(gp)

	MailBox = OSMboxCreate((void *)0);
    2400:	0009883a 	mov	r4,zero
    2404:	000a23c0 	call	a23c <OSMboxCreate>
    2408:	d0a7f515 	stw	r2,-24620(gp)
	MailBox2 = OSMboxCreate((void *)0);
    240c:	0009883a 	mov	r4,zero
    2410:	000a23c0 	call	a23c <OSMboxCreate>
    2414:	d0a7f315 	stw	r2,-24628(gp)


	VGA_box (0, 0, 319, 239, 0);						//clear screen
    2418:	d8000015 	stw	zero,0(sp)
    241c:	0009883a 	mov	r4,zero
    2420:	000b883a 	mov	r5,zero
    2424:	01804fc4 	movi	r6,319
    2428:	01c03bc4 	movi	r7,239
    242c:	00025640 	call	2564 <VGA_box>
	VGA_box (15, 50, 20, 100, 0x0000ff);				// links
    2430:	00803fc4 	movi	r2,255
    2434:	d8800015 	stw	r2,0(sp)
    2438:	010003c4 	movi	r4,15
    243c:	01400c84 	movi	r5,50
    2440:	01800504 	movi	r6,20
    2444:	01c01904 	movi	r7,100
    2448:	00025640 	call	2564 <VGA_box>
	VGA_box (300, 50, 305, 100, 0x0000ff);				// rechts
    244c:	00803fc4 	movi	r2,255
    2450:	d8800015 	stw	r2,0(sp)
    2454:	01004b04 	movi	r4,300
    2458:	01400c84 	movi	r5,50
    245c:	01804c44 	movi	r6,305
    2460:	01c01904 	movi	r7,100
    2464:	00025640 	call	2564 <VGA_box>

	VGA_box (0, 0, 319, 3, groen);					// boven
    2468:	0081a5c4 	movi	r2,1687
    246c:	d8800015 	stw	r2,0(sp)
    2470:	0009883a 	mov	r4,zero
    2474:	000b883a 	mov	r5,zero
    2478:	01804fc4 	movi	r6,319
    247c:	01c000c4 	movi	r7,3
    2480:	00025640 	call	2564 <VGA_box>
	VGA_box (0, 236, 319, 239, groen);				// onder
    2484:	0081a5c4 	movi	r2,1687
    2488:	d8800015 	stw	r2,0(sp)
    248c:	0009883a 	mov	r4,zero
    2490:	01403b04 	movi	r5,236
    2494:	01804fc4 	movi	r6,319
    2498:	01c03bc4 	movi	r7,239
    249c:	00025640 	call	2564 <VGA_box>


	OSTaskCreate(controllers,(void*) 1,&controller1_stk[TASK_STACKSIZE-1],controller1_PRIORITY);
    24a0:	01000034 	movhi	r4,0
    24a4:	2100a004 	addi	r4,r4,640
    24a8:	01400044 	movi	r5,1
    24ac:	018000b4 	movhi	r6,2
    24b0:	31b47404 	addi	r6,r6,-11824
    24b4:	01c002c4 	movi	r7,11
    24b8:	000d7080 	call	d708 <OSTaskCreate>
	OSTaskCreate(controllers,(void*) 2,&controller2_stk[TASK_STACKSIZE-1],controller2_PRIORITY);
    24bc:	01000034 	movhi	r4,0
    24c0:	2100a004 	addi	r4,r4,640
    24c4:	01400084 	movi	r5,2
    24c8:	018000b4 	movhi	r6,2
    24cc:	31bc7404 	addi	r6,r6,-3632
    24d0:	01c00304 	movi	r7,12
    24d4:	000d7080 	call	d708 <OSTaskCreate>
	OSTaskCreate(Game,(void*) 0, &Game_stk[TASK_STACKSIZE-1],Game_PRIORITY);
    24d8:	01000034 	movhi	r4,0
    24dc:	2101d304 	addi	r4,r4,1868
    24e0:	000b883a 	mov	r5,zero
    24e4:	018000b4 	movhi	r6,2
    24e8:	31847404 	addi	r6,r6,4560
    24ec:	01c00184 	movi	r7,6
    24f0:	000d7080 	call	d708 <OSTaskCreate>
	OSTaskCreate(Singleplayer,(void*) 0, &Singleplayer_stk[TASK_STACKSIZE-1],Singleplayer_PRIORITY);
    24f4:	01000034 	movhi	r4,0
    24f8:	21041504 	addi	r4,r4,4180
    24fc:	000b883a 	mov	r5,zero
    2500:	018000b4 	movhi	r6,2
    2504:	31a47404 	addi	r6,r6,-28208
    2508:	01c001c4 	movi	r7,7
    250c:	000d7080 	call	d708 <OSTaskCreate>


	OSTaskCreate(menu, (void*) 2, &menu_stk[TASK_STACKSIZE-1],menu_PRIORITY);
    2510:	01000034 	movhi	r4,0
    2514:	21071704 	addi	r4,r4,7260
    2518:	01400084 	movi	r5,2
    251c:	018000b4 	movhi	r6,2
    2520:	31ac7404 	addi	r6,r6,-20016
    2524:	01c00244 	movi	r7,9
    2528:	000d7080 	call	d708 <OSTaskCreate>
	OSTaskCreate(selecteerMenu, (void*) 3, &menu_stk2[TASK_STACKSIZE-1], menu_PRIORITY +1);
    252c:	01000034 	movhi	r4,0
    2530:	21075204 	addi	r4,r4,7496
    2534:	014000c4 	movi	r5,3
    2538:	018000b4 	movhi	r6,2
    253c:	318e6804 	addi	r6,r6,14752
    2540:	01c00284 	movi	r7,10
    2544:	000d7080 	call	d708 <OSTaskCreate>
	OSStart();
    2548:	000739c0 	call	739c <OSStart>
	return 0;
    254c:	0005883a 	mov	r2,zero
}
    2550:	e037883a 	mov	sp,fp
    2554:	dfc00117 	ldw	ra,4(sp)
    2558:	df000017 	ldw	fp,0(sp)
    255c:	dec00204 	addi	sp,sp,8
    2560:	f800283a 	ret

00002564 <VGA_box>:

void VGA_box(int x1, int y1, int x2, int y2, short pixel_color)
{
    2564:	defff604 	addi	sp,sp,-40
    2568:	df000915 	stw	fp,36(sp)
    256c:	df000904 	addi	fp,sp,36
    2570:	e13ffb15 	stw	r4,-20(fp)
    2574:	e17ffc15 	stw	r5,-16(fp)
    2578:	e1bffd15 	stw	r6,-12(fp)
    257c:	e1fffe15 	stw	r7,-8(fp)
    2580:	e0800117 	ldw	r2,4(fp)
    2584:	e0bfff0d 	sth	r2,-4(fp)
	int offset, row, col;
  	volatile short * pixel_buffer = (short *) 0x08000000;	// VGA pixel buffer
    2588:	00820034 	movhi	r2,2048
    258c:	e0bff915 	stw	r2,-28(fp)

	/* assume that the box coordinates are valid */
	for (row = y1; row <= y2; row++)
    2590:	e0bffc17 	ldw	r2,-16(fp)
    2594:	e0bff715 	stw	r2,-36(fp)
    2598:	00001806 	br	25fc <VGA_box+0x98>
	{
		col = x1;
    259c:	e0bffb17 	ldw	r2,-20(fp)
    25a0:	e0bff815 	stw	r2,-32(fp)
		while (col <= x2)
    25a4:	00000f06 	br	25e4 <VGA_box+0x80>
		{
			offset = (row << 9) + col;
    25a8:	e0bff717 	ldw	r2,-36(fp)
    25ac:	1006927a 	slli	r3,r2,9
    25b0:	e0bff817 	ldw	r2,-32(fp)
    25b4:	1885883a 	add	r2,r3,r2
    25b8:	e0bffa15 	stw	r2,-24(fp)
			*(pixel_buffer + offset) = pixel_color;	// compute halfword address, set pixel
    25bc:	e0bffa17 	ldw	r2,-24(fp)
    25c0:	1085883a 	add	r2,r2,r2
    25c4:	1007883a 	mov	r3,r2
    25c8:	e0bff917 	ldw	r2,-28(fp)
    25cc:	10c5883a 	add	r2,r2,r3
    25d0:	e0ffff0b 	ldhu	r3,-4(fp)
    25d4:	10c0000d 	sth	r3,0(r2)
			++col;
    25d8:	e0bff817 	ldw	r2,-32(fp)
    25dc:	10800044 	addi	r2,r2,1
    25e0:	e0bff815 	stw	r2,-32(fp)

	/* assume that the box coordinates are valid */
	for (row = y1; row <= y2; row++)
	{
		col = x1;
		while (col <= x2)
    25e4:	e0bff817 	ldw	r2,-32(fp)
    25e8:	e0fffd17 	ldw	r3,-12(fp)
    25ec:	18bfee0e 	bge	r3,r2,25a8 <__alt_mem_Flash_flash_data+0xf40025a8>
{
	int offset, row, col;
  	volatile short * pixel_buffer = (short *) 0x08000000;	// VGA pixel buffer

	/* assume that the box coordinates are valid */
	for (row = y1; row <= y2; row++)
    25f0:	e0bff717 	ldw	r2,-36(fp)
    25f4:	10800044 	addi	r2,r2,1
    25f8:	e0bff715 	stw	r2,-36(fp)
    25fc:	e0bff717 	ldw	r2,-36(fp)
    2600:	e0fffe17 	ldw	r3,-8(fp)
    2604:	18bfe50e 	bge	r3,r2,259c <__alt_mem_Flash_flash_data+0xf400259c>
			offset = (row << 9) + col;
			*(pixel_buffer + offset) = pixel_color;	// compute halfword address, set pixel
			++col;
		}
	}
}
    2608:	e037883a 	mov	sp,fp
    260c:	df000017 	ldw	fp,0(sp)
    2610:	dec00104 	addi	sp,sp,4
    2614:	f800283a 	ret

00002618 <VGA_text>:

void VGA_text(int x, int y, char * text_ptr)
{
    2618:	defffa04 	addi	sp,sp,-24
    261c:	df000515 	stw	fp,20(sp)
    2620:	df000504 	addi	fp,sp,20
    2624:	e13ffd15 	stw	r4,-12(fp)
    2628:	e17ffe15 	stw	r5,-8(fp)
    262c:	e1bfff15 	stw	r6,-4(fp)
	int offset;
  	volatile char * character_buffer = (char *) 0x09000000;	// VGA character buffer
    2630:	00824034 	movhi	r2,2304
    2634:	e0bffc15 	stw	r2,-16(fp)

	/* assume that the text string fits on one line */
	offset = (y << 7) + x;
    2638:	e0bffe17 	ldw	r2,-8(fp)
    263c:	100691fa 	slli	r3,r2,7
    2640:	e0bffd17 	ldw	r2,-12(fp)
    2644:	1885883a 	add	r2,r3,r2
    2648:	e0bffb15 	stw	r2,-20(fp)
	while ( *(text_ptr) )
    264c:	00000c06 	br	2680 <VGA_text+0x68>
	{
		*(character_buffer + offset) = *(text_ptr);	// write to the character buffer
    2650:	e0bffb17 	ldw	r2,-20(fp)
    2654:	e0fffc17 	ldw	r3,-16(fp)
    2658:	1885883a 	add	r2,r3,r2
    265c:	e0ffff17 	ldw	r3,-4(fp)
    2660:	18c00003 	ldbu	r3,0(r3)
    2664:	10c00005 	stb	r3,0(r2)
		++text_ptr;
    2668:	e0bfff17 	ldw	r2,-4(fp)
    266c:	10800044 	addi	r2,r2,1
    2670:	e0bfff15 	stw	r2,-4(fp)
		++offset;
    2674:	e0bffb17 	ldw	r2,-20(fp)
    2678:	10800044 	addi	r2,r2,1
    267c:	e0bffb15 	stw	r2,-20(fp)
	int offset;
  	volatile char * character_buffer = (char *) 0x09000000;	// VGA character buffer

	/* assume that the text string fits on one line */
	offset = (y << 7) + x;
	while ( *(text_ptr) )
    2680:	e0bfff17 	ldw	r2,-4(fp)
    2684:	10800003 	ldbu	r2,0(r2)
    2688:	10803fcc 	andi	r2,r2,255
    268c:	1080201c 	xori	r2,r2,128
    2690:	10bfe004 	addi	r2,r2,-128
    2694:	103fee1e 	bne	r2,zero,2650 <__alt_mem_Flash_flash_data+0xf4002650>
	{
		*(character_buffer + offset) = *(text_ptr);	// write to the character buffer
		++text_ptr;
		++offset;
	}
}
    2698:	e037883a 	mov	sp,fp
    269c:	df000017 	ldw	fp,0(sp)
    26a0:	dec00104 	addi	sp,sp,4
    26a4:	f800283a 	ret

000026a8 <draw_middenlijn>:

void draw_middenlijn(){
    26a8:	defffc04 	addi	sp,sp,-16
    26ac:	dfc00315 	stw	ra,12(sp)
    26b0:	df000215 	stw	fp,8(sp)
    26b4:	df000204 	addi	fp,sp,8
	int i = 0;
    26b8:	e03fff15 	stw	zero,-4(fp)
	while(i < 240){
    26bc:	00000c06 	br	26f0 <draw_middenlijn+0x48>
		VGA_box (159, i, 160, i+ 7, groen);				// middenlijntje
    26c0:	e0bfff17 	ldw	r2,-4(fp)
    26c4:	10c001c4 	addi	r3,r2,7
    26c8:	0081a5c4 	movi	r2,1687
    26cc:	d8800015 	stw	r2,0(sp)
    26d0:	010027c4 	movi	r4,159
    26d4:	e17fff17 	ldw	r5,-4(fp)
    26d8:	01802804 	movi	r6,160
    26dc:	180f883a 	mov	r7,r3
    26e0:	00025640 	call	2564 <VGA_box>
		i = i + 11;
    26e4:	e0bfff17 	ldw	r2,-4(fp)
    26e8:	108002c4 	addi	r2,r2,11
    26ec:	e0bfff15 	stw	r2,-4(fp)
	}
}

void draw_middenlijn(){
	int i = 0;
	while(i < 240){
    26f0:	e0bfff17 	ldw	r2,-4(fp)
    26f4:	10803c10 	cmplti	r2,r2,240
    26f8:	103ff11e 	bne	r2,zero,26c0 <__alt_mem_Flash_flash_data+0xf40026c0>
		VGA_box (159, i, 160, i+ 7, groen);				// middenlijntje
		i = i + 11;
	}
}
    26fc:	e037883a 	mov	sp,fp
    2700:	dfc00117 	ldw	ra,4(sp)
    2704:	df000017 	ldw	fp,0(sp)
    2708:	dec00204 	addi	sp,sp,8
    270c:	f800283a 	ret

00002710 <del_middenlijn>:

void del_middenlijn(){
    2710:	defffd04 	addi	sp,sp,-12
    2714:	dfc00215 	stw	ra,8(sp)
    2718:	df000115 	stw	fp,4(sp)
    271c:	df000104 	addi	fp,sp,4
	VGA_box(159, 4, 160, 235, 0);
    2720:	d8000015 	stw	zero,0(sp)
    2724:	010027c4 	movi	r4,159
    2728:	01400104 	movi	r5,4
    272c:	01802804 	movi	r6,160
    2730:	01c03ac4 	movi	r7,235
    2734:	00025640 	call	2564 <VGA_box>
}
    2738:	e037883a 	mov	sp,fp
    273c:	dfc00117 	ldw	ra,4(sp)
    2740:	df000017 	ldw	fp,0(sp)
    2744:	dec00204 	addi	sp,sp,8
    2748:	f800283a 	ret

0000274c <del_number>:

void del_number(int side){
    274c:	defffc04 	addi	sp,sp,-16
    2750:	dfc00315 	stw	ra,12(sp)
    2754:	df000215 	stw	fp,8(sp)
    2758:	df000204 	addi	fp,sp,8
    275c:	e13fff15 	stw	r4,-4(fp)
	if(side == 1){
    2760:	e0bfff17 	ldw	r2,-4(fp)
    2764:	10800058 	cmpnei	r2,r2,1
    2768:	1000061e 	bne	r2,zero,2784 <del_number+0x38>
		VGA_box(120, 20, 140, 60, 0);
    276c:	d8000015 	stw	zero,0(sp)
    2770:	01001e04 	movi	r4,120
    2774:	01400504 	movi	r5,20
    2778:	01802304 	movi	r6,140
    277c:	01c00f04 	movi	r7,60
    2780:	00025640 	call	2564 <VGA_box>
	}
	if(side == 2){
    2784:	e0bfff17 	ldw	r2,-4(fp)
    2788:	10800098 	cmpnei	r2,r2,2
    278c:	1000061e 	bne	r2,zero,27a8 <del_number+0x5c>
		VGA_box(180, 20, 200, 60, 0);
    2790:	d8000015 	stw	zero,0(sp)
    2794:	01002d04 	movi	r4,180
    2798:	01400504 	movi	r5,20
    279c:	01803204 	movi	r6,200
    27a0:	01c00f04 	movi	r7,60
    27a4:	00025640 	call	2564 <VGA_box>
	}
}
    27a8:	e037883a 	mov	sp,fp
    27ac:	dfc00117 	ldw	ra,4(sp)
    27b0:	df000017 	ldw	fp,0(sp)
    27b4:	dec00204 	addi	sp,sp,8
    27b8:	f800283a 	ret

000027bc <deleteNummer>:

void deleteNummer(){
    27bc:	defffd04 	addi	sp,sp,-12
    27c0:	dfc00215 	stw	ra,8(sp)
    27c4:	df000115 	stw	fp,4(sp)
    27c8:	df000104 	addi	fp,sp,4
	VGA_box(120, 20, 200, 60, 0);
    27cc:	d8000015 	stw	zero,0(sp)
    27d0:	01001e04 	movi	r4,120
    27d4:	01400504 	movi	r5,20
    27d8:	01803204 	movi	r6,200
    27dc:	01c00f04 	movi	r7,60
    27e0:	00025640 	call	2564 <VGA_box>
}
    27e4:	e037883a 	mov	sp,fp
    27e8:	dfc00117 	ldw	ra,4(sp)
    27ec:	df000017 	ldw	fp,0(sp)
    27f0:	dec00204 	addi	sp,sp,8
    27f4:	f800283a 	ret

000027f8 <draw_number>:

void draw_number(int nummer, int ID){
    27f8:	defffa04 	addi	sp,sp,-24
    27fc:	dfc00515 	stw	ra,20(sp)
    2800:	df000415 	stw	fp,16(sp)
    2804:	df000404 	addi	fp,sp,16
    2808:	e13ffe15 	stw	r4,-8(fp)
    280c:	e17fff15 	stw	r5,-4(fp)

	int X = checkIDScore(ID);
    2810:	e13fff17 	ldw	r4,-4(fp)
    2814:	0002e6c0 	call	2e6c <checkIDScore>
    2818:	e0bffd15 	stw	r2,-12(fp)

	if(nummer == 1){
    281c:	e0bffe17 	ldw	r2,-8(fp)
    2820:	10800058 	cmpnei	r2,r2,1
    2824:	10000b1e 	bne	r2,zero,2854 <draw_number+0x5c>
		VGA_box(X + 5, 20, X+7, 60, wit);
    2828:	e0bffd17 	ldw	r2,-12(fp)
    282c:	11000144 	addi	r4,r2,5
    2830:	e0bffd17 	ldw	r2,-12(fp)
    2834:	10c001c4 	addi	r3,r2,7
    2838:	00bfffc4 	movi	r2,-1
    283c:	d8800015 	stw	r2,0(sp)
    2840:	01400504 	movi	r5,20
    2844:	180d883a 	mov	r6,r3
    2848:	01c00f04 	movi	r7,60
    284c:	00025640 	call	2564 <VGA_box>
    2850:	00018106 	br	2e58 <draw_number+0x660>
	}else if(nummer == 2){
    2854:	e0bffe17 	ldw	r2,-8(fp)
    2858:	10800098 	cmpnei	r2,r2,2
    285c:	10002f1e 	bne	r2,zero,291c <draw_number+0x124>
		VGA_box(X, 20, X+ 20, 22, wit);					//bovenste lijn
    2860:	e0bffd17 	ldw	r2,-12(fp)
    2864:	10c00504 	addi	r3,r2,20
    2868:	00bfffc4 	movi	r2,-1
    286c:	d8800015 	stw	r2,0(sp)
    2870:	e13ffd17 	ldw	r4,-12(fp)
    2874:	01400504 	movi	r5,20
    2878:	180d883a 	mov	r6,r3
    287c:	01c00584 	movi	r7,22
    2880:	00025640 	call	2564 <VGA_box>
		VGA_box(X + 18, 22, X+ 20, 38, wit);			//lijn naar beneden
    2884:	e0bffd17 	ldw	r2,-12(fp)
    2888:	11000484 	addi	r4,r2,18
    288c:	e0bffd17 	ldw	r2,-12(fp)
    2890:	10c00504 	addi	r3,r2,20
    2894:	00bfffc4 	movi	r2,-1
    2898:	d8800015 	stw	r2,0(sp)
    289c:	01400584 	movi	r5,22
    28a0:	180d883a 	mov	r6,r3
    28a4:	01c00984 	movi	r7,38
    28a8:	00025640 	call	2564 <VGA_box>
		VGA_box(X, 38, X+ 20, 40, wit);					//lijn naar links
    28ac:	e0bffd17 	ldw	r2,-12(fp)
    28b0:	10c00504 	addi	r3,r2,20
    28b4:	00bfffc4 	movi	r2,-1
    28b8:	d8800015 	stw	r2,0(sp)
    28bc:	e13ffd17 	ldw	r4,-12(fp)
    28c0:	01400984 	movi	r5,38
    28c4:	180d883a 	mov	r6,r3
    28c8:	01c00a04 	movi	r7,40
    28cc:	00025640 	call	2564 <VGA_box>
		VGA_box(X, 40, X+ 2, 58, wit);					//lijn naar beneden
    28d0:	e0bffd17 	ldw	r2,-12(fp)
    28d4:	10c00084 	addi	r3,r2,2
    28d8:	00bfffc4 	movi	r2,-1
    28dc:	d8800015 	stw	r2,0(sp)
    28e0:	e13ffd17 	ldw	r4,-12(fp)
    28e4:	01400a04 	movi	r5,40
    28e8:	180d883a 	mov	r6,r3
    28ec:	01c00e84 	movi	r7,58
    28f0:	00025640 	call	2564 <VGA_box>
		VGA_box(X, 58, X+ 20, 60, wit);					//lijn naar rechts
    28f4:	e0bffd17 	ldw	r2,-12(fp)
    28f8:	10c00504 	addi	r3,r2,20
    28fc:	00bfffc4 	movi	r2,-1
    2900:	d8800015 	stw	r2,0(sp)
    2904:	e13ffd17 	ldw	r4,-12(fp)
    2908:	01400e84 	movi	r5,58
    290c:	180d883a 	mov	r6,r3
    2910:	01c00f04 	movi	r7,60
    2914:	00025640 	call	2564 <VGA_box>
    2918:	00014f06 	br	2e58 <draw_number+0x660>
	}else if(nummer == 3){
    291c:	e0bffe17 	ldw	r2,-8(fp)
    2920:	108000d8 	cmpnei	r2,r2,3
    2924:	1000261e 	bne	r2,zero,29c0 <draw_number+0x1c8>
		VGA_box(X, 20, X+ 20, 22, wit);					//bovenste lijn
    2928:	e0bffd17 	ldw	r2,-12(fp)
    292c:	10c00504 	addi	r3,r2,20
    2930:	00bfffc4 	movi	r2,-1
    2934:	d8800015 	stw	r2,0(sp)
    2938:	e13ffd17 	ldw	r4,-12(fp)
    293c:	01400504 	movi	r5,20
    2940:	180d883a 	mov	r6,r3
    2944:	01c00584 	movi	r7,22
    2948:	00025640 	call	2564 <VGA_box>
		VGA_box(X + 18, 22, X+ 20, 60, wit);			//rechter lijn
    294c:	e0bffd17 	ldw	r2,-12(fp)
    2950:	11000484 	addi	r4,r2,18
    2954:	e0bffd17 	ldw	r2,-12(fp)
    2958:	10c00504 	addi	r3,r2,20
    295c:	00bfffc4 	movi	r2,-1
    2960:	d8800015 	stw	r2,0(sp)
    2964:	01400584 	movi	r5,22
    2968:	180d883a 	mov	r6,r3
    296c:	01c00f04 	movi	r7,60
    2970:	00025640 	call	2564 <VGA_box>
		VGA_box(X, 39, X+ 20, 41, wit);					//midden lijn
    2974:	e0bffd17 	ldw	r2,-12(fp)
    2978:	10c00504 	addi	r3,r2,20
    297c:	00bfffc4 	movi	r2,-1
    2980:	d8800015 	stw	r2,0(sp)
    2984:	e13ffd17 	ldw	r4,-12(fp)
    2988:	014009c4 	movi	r5,39
    298c:	180d883a 	mov	r6,r3
    2990:	01c00a44 	movi	r7,41
    2994:	00025640 	call	2564 <VGA_box>
		VGA_box(X, 58, X+ 20, 60, wit);					//onderste lijn
    2998:	e0bffd17 	ldw	r2,-12(fp)
    299c:	10c00504 	addi	r3,r2,20
    29a0:	00bfffc4 	movi	r2,-1
    29a4:	d8800015 	stw	r2,0(sp)
    29a8:	e13ffd17 	ldw	r4,-12(fp)
    29ac:	01400e84 	movi	r5,58
    29b0:	180d883a 	mov	r6,r3
    29b4:	01c00f04 	movi	r7,60
    29b8:	00025640 	call	2564 <VGA_box>
    29bc:	00012606 	br	2e58 <draw_number+0x660>
	}else if(nummer == 4){
    29c0:	e0bffe17 	ldw	r2,-8(fp)
    29c4:	10800118 	cmpnei	r2,r2,4
    29c8:	10001d1e 	bne	r2,zero,2a40 <draw_number+0x248>
		VGA_box(X, 20, X+2, 40, wit);					//linkse lijn
    29cc:	e0bffd17 	ldw	r2,-12(fp)
    29d0:	10c00084 	addi	r3,r2,2
    29d4:	00bfffc4 	movi	r2,-1
    29d8:	d8800015 	stw	r2,0(sp)
    29dc:	e13ffd17 	ldw	r4,-12(fp)
    29e0:	01400504 	movi	r5,20
    29e4:	180d883a 	mov	r6,r3
    29e8:	01c00a04 	movi	r7,40
    29ec:	00025640 	call	2564 <VGA_box>
		VGA_box(X, 39, X + 20, 41, wit);				//middelste lijn
    29f0:	e0bffd17 	ldw	r2,-12(fp)
    29f4:	10c00504 	addi	r3,r2,20
    29f8:	00bfffc4 	movi	r2,-1
    29fc:	d8800015 	stw	r2,0(sp)
    2a00:	e13ffd17 	ldw	r4,-12(fp)
    2a04:	014009c4 	movi	r5,39
    2a08:	180d883a 	mov	r6,r3
    2a0c:	01c00a44 	movi	r7,41
    2a10:	00025640 	call	2564 <VGA_box>
		VGA_box(X + 18, 20, X + 20, 60, wit);			//rechtse lijn
    2a14:	e0bffd17 	ldw	r2,-12(fp)
    2a18:	11000484 	addi	r4,r2,18
    2a1c:	e0bffd17 	ldw	r2,-12(fp)
    2a20:	10c00504 	addi	r3,r2,20
    2a24:	00bfffc4 	movi	r2,-1
    2a28:	d8800015 	stw	r2,0(sp)
    2a2c:	01400504 	movi	r5,20
    2a30:	180d883a 	mov	r6,r3
    2a34:	01c00f04 	movi	r7,60
    2a38:	00025640 	call	2564 <VGA_box>
    2a3c:	00010606 	br	2e58 <draw_number+0x660>
	}else if(nummer == 5){
    2a40:	e0bffe17 	ldw	r2,-8(fp)
    2a44:	10800158 	cmpnei	r2,r2,5
    2a48:	10002f1e 	bne	r2,zero,2b08 <draw_number+0x310>
		VGA_box(X, 20, X+ 20, 22, wit);					//bovenste lijn
    2a4c:	e0bffd17 	ldw	r2,-12(fp)
    2a50:	10c00504 	addi	r3,r2,20
    2a54:	00bfffc4 	movi	r2,-1
    2a58:	d8800015 	stw	r2,0(sp)
    2a5c:	e13ffd17 	ldw	r4,-12(fp)
    2a60:	01400504 	movi	r5,20
    2a64:	180d883a 	mov	r6,r3
    2a68:	01c00584 	movi	r7,22
    2a6c:	00025640 	call	2564 <VGA_box>
		VGA_box(X, 22, X+ 2, 38, wit);					//lijn naar beneden
    2a70:	e0bffd17 	ldw	r2,-12(fp)
    2a74:	10c00084 	addi	r3,r2,2
    2a78:	00bfffc4 	movi	r2,-1
    2a7c:	d8800015 	stw	r2,0(sp)
    2a80:	e13ffd17 	ldw	r4,-12(fp)
    2a84:	01400584 	movi	r5,22
    2a88:	180d883a 	mov	r6,r3
    2a8c:	01c00984 	movi	r7,38
    2a90:	00025640 	call	2564 <VGA_box>
		VGA_box(X, 38, X+ 20, 40, wit);					//lijn naar links
    2a94:	e0bffd17 	ldw	r2,-12(fp)
    2a98:	10c00504 	addi	r3,r2,20
    2a9c:	00bfffc4 	movi	r2,-1
    2aa0:	d8800015 	stw	r2,0(sp)
    2aa4:	e13ffd17 	ldw	r4,-12(fp)
    2aa8:	01400984 	movi	r5,38
    2aac:	180d883a 	mov	r6,r3
    2ab0:	01c00a04 	movi	r7,40
    2ab4:	00025640 	call	2564 <VGA_box>
		VGA_box(X + 18, 40, X+ 20, 58, wit);			//lijn naar beneden
    2ab8:	e0bffd17 	ldw	r2,-12(fp)
    2abc:	11000484 	addi	r4,r2,18
    2ac0:	e0bffd17 	ldw	r2,-12(fp)
    2ac4:	10c00504 	addi	r3,r2,20
    2ac8:	00bfffc4 	movi	r2,-1
    2acc:	d8800015 	stw	r2,0(sp)
    2ad0:	01400a04 	movi	r5,40
    2ad4:	180d883a 	mov	r6,r3
    2ad8:	01c00e84 	movi	r7,58
    2adc:	00025640 	call	2564 <VGA_box>
		VGA_box(X, 58, X+ 20, 60, wit);					//lijn naar rechts
    2ae0:	e0bffd17 	ldw	r2,-12(fp)
    2ae4:	10c00504 	addi	r3,r2,20
    2ae8:	00bfffc4 	movi	r2,-1
    2aec:	d8800015 	stw	r2,0(sp)
    2af0:	e13ffd17 	ldw	r4,-12(fp)
    2af4:	01400e84 	movi	r5,58
    2af8:	180d883a 	mov	r6,r3
    2afc:	01c00f04 	movi	r7,60
    2b00:	00025640 	call	2564 <VGA_box>
    2b04:	0000d406 	br	2e58 <draw_number+0x660>
	}else if(nummer == 6){
    2b08:	e0bffe17 	ldw	r2,-8(fp)
    2b0c:	10800198 	cmpnei	r2,r2,6
    2b10:	10002f1e 	bne	r2,zero,2bd0 <draw_number+0x3d8>
		VGA_box(X, 20, X+2, 60, wit);					//lijn links
    2b14:	e0bffd17 	ldw	r2,-12(fp)
    2b18:	10c00084 	addi	r3,r2,2
    2b1c:	00bfffc4 	movi	r2,-1
    2b20:	d8800015 	stw	r2,0(sp)
    2b24:	e13ffd17 	ldw	r4,-12(fp)
    2b28:	01400504 	movi	r5,20
    2b2c:	180d883a 	mov	r6,r3
    2b30:	01c00f04 	movi	r7,60
    2b34:	00025640 	call	2564 <VGA_box>
		VGA_box(X, 20, X+ 20, 22, wit);					//bovenste lijn
    2b38:	e0bffd17 	ldw	r2,-12(fp)
    2b3c:	10c00504 	addi	r3,r2,20
    2b40:	00bfffc4 	movi	r2,-1
    2b44:	d8800015 	stw	r2,0(sp)
    2b48:	e13ffd17 	ldw	r4,-12(fp)
    2b4c:	01400504 	movi	r5,20
    2b50:	180d883a 	mov	r6,r3
    2b54:	01c00584 	movi	r7,22
    2b58:	00025640 	call	2564 <VGA_box>
		VGA_box(X, 58, X+ 20, 60, wit);					//onderste lijn
    2b5c:	e0bffd17 	ldw	r2,-12(fp)
    2b60:	10c00504 	addi	r3,r2,20
    2b64:	00bfffc4 	movi	r2,-1
    2b68:	d8800015 	stw	r2,0(sp)
    2b6c:	e13ffd17 	ldw	r4,-12(fp)
    2b70:	01400e84 	movi	r5,58
    2b74:	180d883a 	mov	r6,r3
    2b78:	01c00f04 	movi	r7,60
    2b7c:	00025640 	call	2564 <VGA_box>
		VGA_box(X + 18, 40, X+ 20, 58, wit);			//lijn rechts
    2b80:	e0bffd17 	ldw	r2,-12(fp)
    2b84:	11000484 	addi	r4,r2,18
    2b88:	e0bffd17 	ldw	r2,-12(fp)
    2b8c:	10c00504 	addi	r3,r2,20
    2b90:	00bfffc4 	movi	r2,-1
    2b94:	d8800015 	stw	r2,0(sp)
    2b98:	01400a04 	movi	r5,40
    2b9c:	180d883a 	mov	r6,r3
    2ba0:	01c00e84 	movi	r7,58
    2ba4:	00025640 	call	2564 <VGA_box>
		VGA_box(X, 39, X + 20, 41, wit);				//middelste lijn
    2ba8:	e0bffd17 	ldw	r2,-12(fp)
    2bac:	10c00504 	addi	r3,r2,20
    2bb0:	00bfffc4 	movi	r2,-1
    2bb4:	d8800015 	stw	r2,0(sp)
    2bb8:	e13ffd17 	ldw	r4,-12(fp)
    2bbc:	014009c4 	movi	r5,39
    2bc0:	180d883a 	mov	r6,r3
    2bc4:	01c00a44 	movi	r7,41
    2bc8:	00025640 	call	2564 <VGA_box>
    2bcc:	0000a206 	br	2e58 <draw_number+0x660>
	}else if(nummer == 7){
    2bd0:	e0bffe17 	ldw	r2,-8(fp)
    2bd4:	108001d8 	cmpnei	r2,r2,7
    2bd8:	1000141e 	bne	r2,zero,2c2c <draw_number+0x434>
		VGA_box(X + 18, 20, X + 20, 60, wit);			//rechtse lijn
    2bdc:	e0bffd17 	ldw	r2,-12(fp)
    2be0:	11000484 	addi	r4,r2,18
    2be4:	e0bffd17 	ldw	r2,-12(fp)
    2be8:	10c00504 	addi	r3,r2,20
    2bec:	00bfffc4 	movi	r2,-1
    2bf0:	d8800015 	stw	r2,0(sp)
    2bf4:	01400504 	movi	r5,20
    2bf8:	180d883a 	mov	r6,r3
    2bfc:	01c00f04 	movi	r7,60
    2c00:	00025640 	call	2564 <VGA_box>
		VGA_box(X, 20, X+ 20, 22, wit);					//bovenste lijn
    2c04:	e0bffd17 	ldw	r2,-12(fp)
    2c08:	10c00504 	addi	r3,r2,20
    2c0c:	00bfffc4 	movi	r2,-1
    2c10:	d8800015 	stw	r2,0(sp)
    2c14:	e13ffd17 	ldw	r4,-12(fp)
    2c18:	01400504 	movi	r5,20
    2c1c:	180d883a 	mov	r6,r3
    2c20:	01c00584 	movi	r7,22
    2c24:	00025640 	call	2564 <VGA_box>
    2c28:	00008b06 	br	2e58 <draw_number+0x660>
	}else if(nummer == 8){
    2c2c:	e0bffe17 	ldw	r2,-8(fp)
    2c30:	10800218 	cmpnei	r2,r2,8
    2c34:	10002f1e 	bne	r2,zero,2cf4 <draw_number+0x4fc>
		VGA_box(X + 18, 20, X + 20, 60, wit);			//rechtse lijn
    2c38:	e0bffd17 	ldw	r2,-12(fp)
    2c3c:	11000484 	addi	r4,r2,18
    2c40:	e0bffd17 	ldw	r2,-12(fp)
    2c44:	10c00504 	addi	r3,r2,20
    2c48:	00bfffc4 	movi	r2,-1
    2c4c:	d8800015 	stw	r2,0(sp)
    2c50:	01400504 	movi	r5,20
    2c54:	180d883a 	mov	r6,r3
    2c58:	01c00f04 	movi	r7,60
    2c5c:	00025640 	call	2564 <VGA_box>
		VGA_box(X, 20, X+2, 60, wit);					//lijn links
    2c60:	e0bffd17 	ldw	r2,-12(fp)
    2c64:	10c00084 	addi	r3,r2,2
    2c68:	00bfffc4 	movi	r2,-1
    2c6c:	d8800015 	stw	r2,0(sp)
    2c70:	e13ffd17 	ldw	r4,-12(fp)
    2c74:	01400504 	movi	r5,20
    2c78:	180d883a 	mov	r6,r3
    2c7c:	01c00f04 	movi	r7,60
    2c80:	00025640 	call	2564 <VGA_box>
		VGA_box(X, 20, X+ 20, 22, wit);					//bovenste lijn
    2c84:	e0bffd17 	ldw	r2,-12(fp)
    2c88:	10c00504 	addi	r3,r2,20
    2c8c:	00bfffc4 	movi	r2,-1
    2c90:	d8800015 	stw	r2,0(sp)
    2c94:	e13ffd17 	ldw	r4,-12(fp)
    2c98:	01400504 	movi	r5,20
    2c9c:	180d883a 	mov	r6,r3
    2ca0:	01c00584 	movi	r7,22
    2ca4:	00025640 	call	2564 <VGA_box>
		VGA_box(X, 39, X + 20, 41, wit);				//middelste lijn
    2ca8:	e0bffd17 	ldw	r2,-12(fp)
    2cac:	10c00504 	addi	r3,r2,20
    2cb0:	00bfffc4 	movi	r2,-1
    2cb4:	d8800015 	stw	r2,0(sp)
    2cb8:	e13ffd17 	ldw	r4,-12(fp)
    2cbc:	014009c4 	movi	r5,39
    2cc0:	180d883a 	mov	r6,r3
    2cc4:	01c00a44 	movi	r7,41
    2cc8:	00025640 	call	2564 <VGA_box>
		VGA_box(X, 58, X+ 20, 60, wit);					//onderste lijn
    2ccc:	e0bffd17 	ldw	r2,-12(fp)
    2cd0:	10c00504 	addi	r3,r2,20
    2cd4:	00bfffc4 	movi	r2,-1
    2cd8:	d8800015 	stw	r2,0(sp)
    2cdc:	e13ffd17 	ldw	r4,-12(fp)
    2ce0:	01400e84 	movi	r5,58
    2ce4:	180d883a 	mov	r6,r3
    2ce8:	01c00f04 	movi	r7,60
    2cec:	00025640 	call	2564 <VGA_box>
    2cf0:	00005906 	br	2e58 <draw_number+0x660>
	}else if(nummer == 9){
    2cf4:	e0bffe17 	ldw	r2,-8(fp)
    2cf8:	10800258 	cmpnei	r2,r2,9
    2cfc:	10002f1e 	bne	r2,zero,2dbc <draw_number+0x5c4>
		VGA_box(X + 18, 20, X + 20, 60, wit);			//rechtse lijn
    2d00:	e0bffd17 	ldw	r2,-12(fp)
    2d04:	11000484 	addi	r4,r2,18
    2d08:	e0bffd17 	ldw	r2,-12(fp)
    2d0c:	10c00504 	addi	r3,r2,20
    2d10:	00bfffc4 	movi	r2,-1
    2d14:	d8800015 	stw	r2,0(sp)
    2d18:	01400504 	movi	r5,20
    2d1c:	180d883a 	mov	r6,r3
    2d20:	01c00f04 	movi	r7,60
    2d24:	00025640 	call	2564 <VGA_box>
		VGA_box(X, 20, X+2, 40, wit);					//linkse lijn
    2d28:	e0bffd17 	ldw	r2,-12(fp)
    2d2c:	10c00084 	addi	r3,r2,2
    2d30:	00bfffc4 	movi	r2,-1
    2d34:	d8800015 	stw	r2,0(sp)
    2d38:	e13ffd17 	ldw	r4,-12(fp)
    2d3c:	01400504 	movi	r5,20
    2d40:	180d883a 	mov	r6,r3
    2d44:	01c00a04 	movi	r7,40
    2d48:	00025640 	call	2564 <VGA_box>
		VGA_box(X, 20, X+ 20, 22, wit);					//bovenste lijn
    2d4c:	e0bffd17 	ldw	r2,-12(fp)
    2d50:	10c00504 	addi	r3,r2,20
    2d54:	00bfffc4 	movi	r2,-1
    2d58:	d8800015 	stw	r2,0(sp)
    2d5c:	e13ffd17 	ldw	r4,-12(fp)
    2d60:	01400504 	movi	r5,20
    2d64:	180d883a 	mov	r6,r3
    2d68:	01c00584 	movi	r7,22
    2d6c:	00025640 	call	2564 <VGA_box>
		VGA_box(X, 39, X + 20, 41, wit);				//middelste lijn
    2d70:	e0bffd17 	ldw	r2,-12(fp)
    2d74:	10c00504 	addi	r3,r2,20
    2d78:	00bfffc4 	movi	r2,-1
    2d7c:	d8800015 	stw	r2,0(sp)
    2d80:	e13ffd17 	ldw	r4,-12(fp)
    2d84:	014009c4 	movi	r5,39
    2d88:	180d883a 	mov	r6,r3
    2d8c:	01c00a44 	movi	r7,41
    2d90:	00025640 	call	2564 <VGA_box>
		VGA_box(X, 58, X+ 20, 60, wit);					//onderste lijn
    2d94:	e0bffd17 	ldw	r2,-12(fp)
    2d98:	10c00504 	addi	r3,r2,20
    2d9c:	00bfffc4 	movi	r2,-1
    2da0:	d8800015 	stw	r2,0(sp)
    2da4:	e13ffd17 	ldw	r4,-12(fp)
    2da8:	01400e84 	movi	r5,58
    2dac:	180d883a 	mov	r6,r3
    2db0:	01c00f04 	movi	r7,60
    2db4:	00025640 	call	2564 <VGA_box>
    2db8:	00002706 	br	2e58 <draw_number+0x660>
	}else if(nummer == 0){
    2dbc:	e0bffe17 	ldw	r2,-8(fp)
    2dc0:	1000251e 	bne	r2,zero,2e58 <draw_number+0x660>
		VGA_box(X + 18, 20, X + 20, 60, wit);			//rechtse lijn
    2dc4:	e0bffd17 	ldw	r2,-12(fp)
    2dc8:	11000484 	addi	r4,r2,18
    2dcc:	e0bffd17 	ldw	r2,-12(fp)
    2dd0:	10c00504 	addi	r3,r2,20
    2dd4:	00bfffc4 	movi	r2,-1
    2dd8:	d8800015 	stw	r2,0(sp)
    2ddc:	01400504 	movi	r5,20
    2de0:	180d883a 	mov	r6,r3
    2de4:	01c00f04 	movi	r7,60
    2de8:	00025640 	call	2564 <VGA_box>
		VGA_box(X, 20, X+2, 60, wit);					//lijn links
    2dec:	e0bffd17 	ldw	r2,-12(fp)
    2df0:	10c00084 	addi	r3,r2,2
    2df4:	00bfffc4 	movi	r2,-1
    2df8:	d8800015 	stw	r2,0(sp)
    2dfc:	e13ffd17 	ldw	r4,-12(fp)
    2e00:	01400504 	movi	r5,20
    2e04:	180d883a 	mov	r6,r3
    2e08:	01c00f04 	movi	r7,60
    2e0c:	00025640 	call	2564 <VGA_box>
		VGA_box(X, 20, X+ 20, 22, wit);					//bovenste lijn
    2e10:	e0bffd17 	ldw	r2,-12(fp)
    2e14:	10c00504 	addi	r3,r2,20
    2e18:	00bfffc4 	movi	r2,-1
    2e1c:	d8800015 	stw	r2,0(sp)
    2e20:	e13ffd17 	ldw	r4,-12(fp)
    2e24:	01400504 	movi	r5,20
    2e28:	180d883a 	mov	r6,r3
    2e2c:	01c00584 	movi	r7,22
    2e30:	00025640 	call	2564 <VGA_box>
		VGA_box(X, 58, X+ 20, 60, wit);					//onderste lijn
    2e34:	e0bffd17 	ldw	r2,-12(fp)
    2e38:	10c00504 	addi	r3,r2,20
    2e3c:	00bfffc4 	movi	r2,-1
    2e40:	d8800015 	stw	r2,0(sp)
    2e44:	e13ffd17 	ldw	r4,-12(fp)
    2e48:	01400e84 	movi	r5,58
    2e4c:	180d883a 	mov	r6,r3
    2e50:	01c00f04 	movi	r7,60
    2e54:	00025640 	call	2564 <VGA_box>
	}
}
    2e58:	e037883a 	mov	sp,fp
    2e5c:	dfc00117 	ldw	ra,4(sp)
    2e60:	df000017 	ldw	fp,0(sp)
    2e64:	dec00204 	addi	sp,sp,8
    2e68:	f800283a 	ret

00002e6c <checkIDScore>:

int checkIDScore(int ID){
    2e6c:	defffe04 	addi	sp,sp,-8
    2e70:	df000115 	stw	fp,4(sp)
    2e74:	df000104 	addi	fp,sp,4
    2e78:	e13fff15 	stw	r4,-4(fp)
	if(ID == 1){
    2e7c:	e0bfff17 	ldw	r2,-4(fp)
    2e80:	10800058 	cmpnei	r2,r2,1
    2e84:	1000021e 	bne	r2,zero,2e90 <checkIDScore+0x24>
		return 120;
    2e88:	00801e04 	movi	r2,120
    2e8c:	00000b06 	br	2ebc <checkIDScore+0x50>
	}else if(ID == 2){
    2e90:	e0bfff17 	ldw	r2,-4(fp)
    2e94:	10800098 	cmpnei	r2,r2,2
    2e98:	1000021e 	bne	r2,zero,2ea4 <checkIDScore+0x38>
		return 150;
    2e9c:	00802584 	movi	r2,150
    2ea0:	00000606 	br	2ebc <checkIDScore+0x50>
	}else if(ID == 3){
    2ea4:	e0bfff17 	ldw	r2,-4(fp)
    2ea8:	108000d8 	cmpnei	r2,r2,3
    2eac:	1000021e 	bne	r2,zero,2eb8 <checkIDScore+0x4c>
		return 180;
    2eb0:	00802d04 	movi	r2,180
    2eb4:	00000106 	br	2ebc <checkIDScore+0x50>
	}
	
	return 0;
    2eb8:	0005883a 	mov	r2,zero
}
    2ebc:	e037883a 	mov	sp,fp
    2ec0:	df000017 	ldw	fp,0(sp)
    2ec4:	dec00104 	addi	sp,sp,4
    2ec8:	f800283a 	ret

00002ecc <_puts_r>:
    2ecc:	defff604 	addi	sp,sp,-40
    2ed0:	dc000715 	stw	r16,28(sp)
    2ed4:	2021883a 	mov	r16,r4
    2ed8:	2809883a 	mov	r4,r5
    2edc:	dc400815 	stw	r17,32(sp)
    2ee0:	dfc00915 	stw	ra,36(sp)
    2ee4:	2823883a 	mov	r17,r5
    2ee8:	0002f880 	call	2f88 <strlen>
    2eec:	81400217 	ldw	r5,8(r16)
    2ef0:	11000044 	addi	r4,r2,1
    2ef4:	d8800115 	stw	r2,4(sp)
    2ef8:	00800074 	movhi	r2,1
    2efc:	2980030b 	ldhu	r6,12(r5)
    2f00:	108c0704 	addi	r2,r2,12316
    2f04:	d8800215 	stw	r2,8(sp)
    2f08:	00800044 	movi	r2,1
    2f0c:	d8800315 	stw	r2,12(sp)
    2f10:	00800084 	movi	r2,2
    2f14:	d8800515 	stw	r2,20(sp)
    2f18:	dc400015 	stw	r17,0(sp)
    2f1c:	d9000615 	stw	r4,24(sp)
    2f20:	dec00415 	stw	sp,16(sp)
    2f24:	3088000c 	andi	r2,r6,8192
    2f28:	1000061e 	bne	r2,zero,2f44 <_puts_r+0x78>
    2f2c:	29001917 	ldw	r4,100(r5)
    2f30:	00b7ffc4 	movi	r2,-8193
    2f34:	31880014 	ori	r6,r6,8192
    2f38:	2084703a 	and	r2,r4,r2
    2f3c:	2980030d 	sth	r6,12(r5)
    2f40:	28801915 	stw	r2,100(r5)
    2f44:	8009883a 	mov	r4,r16
    2f48:	d9800404 	addi	r6,sp,16
    2f4c:	00030200 	call	3020 <__sfvwrite_r>
    2f50:	1000061e 	bne	r2,zero,2f6c <_puts_r+0xa0>
    2f54:	00800284 	movi	r2,10
    2f58:	dfc00917 	ldw	ra,36(sp)
    2f5c:	dc400817 	ldw	r17,32(sp)
    2f60:	dc000717 	ldw	r16,28(sp)
    2f64:	dec00a04 	addi	sp,sp,40
    2f68:	f800283a 	ret
    2f6c:	00bfffc4 	movi	r2,-1
    2f70:	003ff906 	br	2f58 <__alt_mem_Flash_flash_data+0xf4002f58>

00002f74 <puts>:
    2f74:	00800074 	movhi	r2,1
    2f78:	10944d04 	addi	r2,r2,20788
    2f7c:	200b883a 	mov	r5,r4
    2f80:	11000017 	ldw	r4,0(r2)
    2f84:	0002ecc1 	jmpi	2ecc <_puts_r>

00002f88 <strlen>:
    2f88:	208000cc 	andi	r2,r4,3
    2f8c:	10002026 	beq	r2,zero,3010 <strlen+0x88>
    2f90:	20800007 	ldb	r2,0(r4)
    2f94:	10002026 	beq	r2,zero,3018 <strlen+0x90>
    2f98:	2005883a 	mov	r2,r4
    2f9c:	00000206 	br	2fa8 <strlen+0x20>
    2fa0:	10c00007 	ldb	r3,0(r2)
    2fa4:	18001826 	beq	r3,zero,3008 <strlen+0x80>
    2fa8:	10800044 	addi	r2,r2,1
    2fac:	10c000cc 	andi	r3,r2,3
    2fb0:	183ffb1e 	bne	r3,zero,2fa0 <__alt_mem_Flash_flash_data+0xf4002fa0>
    2fb4:	10c00017 	ldw	r3,0(r2)
    2fb8:	01ffbff4 	movhi	r7,65279
    2fbc:	39ffbfc4 	addi	r7,r7,-257
    2fc0:	00ca303a 	nor	r5,zero,r3
    2fc4:	01a02074 	movhi	r6,32897
    2fc8:	19c7883a 	add	r3,r3,r7
    2fcc:	31a02004 	addi	r6,r6,-32640
    2fd0:	1946703a 	and	r3,r3,r5
    2fd4:	1986703a 	and	r3,r3,r6
    2fd8:	1800091e 	bne	r3,zero,3000 <strlen+0x78>
    2fdc:	10800104 	addi	r2,r2,4
    2fe0:	10c00017 	ldw	r3,0(r2)
    2fe4:	19cb883a 	add	r5,r3,r7
    2fe8:	00c6303a 	nor	r3,zero,r3
    2fec:	28c6703a 	and	r3,r5,r3
    2ff0:	1986703a 	and	r3,r3,r6
    2ff4:	183ff926 	beq	r3,zero,2fdc <__alt_mem_Flash_flash_data+0xf4002fdc>
    2ff8:	00000106 	br	3000 <strlen+0x78>
    2ffc:	10800044 	addi	r2,r2,1
    3000:	10c00007 	ldb	r3,0(r2)
    3004:	183ffd1e 	bne	r3,zero,2ffc <__alt_mem_Flash_flash_data+0xf4002ffc>
    3008:	1105c83a 	sub	r2,r2,r4
    300c:	f800283a 	ret
    3010:	2005883a 	mov	r2,r4
    3014:	003fe706 	br	2fb4 <__alt_mem_Flash_flash_data+0xf4002fb4>
    3018:	0005883a 	mov	r2,zero
    301c:	f800283a 	ret

00003020 <__sfvwrite_r>:
    3020:	30800217 	ldw	r2,8(r6)
    3024:	10006726 	beq	r2,zero,31c4 <__sfvwrite_r+0x1a4>
    3028:	defff404 	addi	sp,sp,-48
    302c:	dd000615 	stw	r20,24(sp)
    3030:	2029883a 	mov	r20,r4
    3034:	2900030b 	ldhu	r4,12(r5)
    3038:	ddc00915 	stw	r23,36(sp)
    303c:	dc000215 	stw	r16,8(sp)
    3040:	dfc00b15 	stw	ra,44(sp)
    3044:	df000a15 	stw	fp,40(sp)
    3048:	dd800815 	stw	r22,32(sp)
    304c:	dd400715 	stw	r21,28(sp)
    3050:	dcc00515 	stw	r19,20(sp)
    3054:	dc800415 	stw	r18,16(sp)
    3058:	dc400315 	stw	r17,12(sp)
    305c:	2080020c 	andi	r2,r4,8
    3060:	2821883a 	mov	r16,r5
    3064:	302f883a 	mov	r23,r6
    3068:	10002726 	beq	r2,zero,3108 <__sfvwrite_r+0xe8>
    306c:	28800417 	ldw	r2,16(r5)
    3070:	10002526 	beq	r2,zero,3108 <__sfvwrite_r+0xe8>
    3074:	2080008c 	andi	r2,r4,2
    3078:	bc400017 	ldw	r17,0(r23)
    307c:	10002a26 	beq	r2,zero,3128 <__sfvwrite_r+0x108>
    3080:	05600034 	movhi	r21,32768
    3084:	0027883a 	mov	r19,zero
    3088:	0025883a 	mov	r18,zero
    308c:	ad7f0004 	addi	r21,r21,-1024
    3090:	980d883a 	mov	r6,r19
    3094:	a009883a 	mov	r4,r20
    3098:	90004626 	beq	r18,zero,31b4 <__sfvwrite_r+0x194>
    309c:	900f883a 	mov	r7,r18
    30a0:	81400717 	ldw	r5,28(r16)
    30a4:	ac80022e 	bgeu	r21,r18,30b0 <__sfvwrite_r+0x90>
    30a8:	01e00034 	movhi	r7,32768
    30ac:	39ff0004 	addi	r7,r7,-1024
    30b0:	80800917 	ldw	r2,36(r16)
    30b4:	103ee83a 	callr	r2
    30b8:	0080520e 	bge	zero,r2,3204 <__sfvwrite_r+0x1e4>
    30bc:	b8c00217 	ldw	r3,8(r23)
    30c0:	98a7883a 	add	r19,r19,r2
    30c4:	90a5c83a 	sub	r18,r18,r2
    30c8:	1885c83a 	sub	r2,r3,r2
    30cc:	b8800215 	stw	r2,8(r23)
    30d0:	103fef1e 	bne	r2,zero,3090 <__alt_mem_Flash_flash_data+0xf4003090>
    30d4:	0005883a 	mov	r2,zero
    30d8:	dfc00b17 	ldw	ra,44(sp)
    30dc:	df000a17 	ldw	fp,40(sp)
    30e0:	ddc00917 	ldw	r23,36(sp)
    30e4:	dd800817 	ldw	r22,32(sp)
    30e8:	dd400717 	ldw	r21,28(sp)
    30ec:	dd000617 	ldw	r20,24(sp)
    30f0:	dcc00517 	ldw	r19,20(sp)
    30f4:	dc800417 	ldw	r18,16(sp)
    30f8:	dc400317 	ldw	r17,12(sp)
    30fc:	dc000217 	ldw	r16,8(sp)
    3100:	dec00c04 	addi	sp,sp,48
    3104:	f800283a 	ret
    3108:	a009883a 	mov	r4,r20
    310c:	800b883a 	mov	r5,r16
    3110:	00045c00 	call	45c0 <__swsetup_r>
    3114:	1000ec1e 	bne	r2,zero,34c8 <__sfvwrite_r+0x4a8>
    3118:	8100030b 	ldhu	r4,12(r16)
    311c:	bc400017 	ldw	r17,0(r23)
    3120:	2080008c 	andi	r2,r4,2
    3124:	103fd61e 	bne	r2,zero,3080 <__alt_mem_Flash_flash_data+0xf4003080>
    3128:	2080004c 	andi	r2,r4,1
    312c:	10003a1e 	bne	r2,zero,3218 <__sfvwrite_r+0x1f8>
    3130:	0039883a 	mov	fp,zero
    3134:	0025883a 	mov	r18,zero
    3138:	90001a26 	beq	r18,zero,31a4 <__sfvwrite_r+0x184>
    313c:	2080800c 	andi	r2,r4,512
    3140:	85800217 	ldw	r22,8(r16)
    3144:	10007626 	beq	r2,zero,3320 <__sfvwrite_r+0x300>
    3148:	b027883a 	mov	r19,r22
    314c:	95809436 	bltu	r18,r22,33a0 <__sfvwrite_r+0x380>
    3150:	2081200c 	andi	r2,r4,1152
    3154:	10009f1e 	bne	r2,zero,33d4 <__sfvwrite_r+0x3b4>
    3158:	81000017 	ldw	r4,0(r16)
    315c:	e00b883a 	mov	r5,fp
    3160:	980d883a 	mov	r6,r19
    3164:	0003ea80 	call	3ea8 <memmove>
    3168:	81000217 	ldw	r4,8(r16)
    316c:	81400017 	ldw	r5,0(r16)
    3170:	9005883a 	mov	r2,r18
    3174:	2587c83a 	sub	r3,r4,r22
    3178:	2ce7883a 	add	r19,r5,r19
    317c:	80c00215 	stw	r3,8(r16)
    3180:	84c00015 	stw	r19,0(r16)
    3184:	b8c00217 	ldw	r3,8(r23)
    3188:	e0b9883a 	add	fp,fp,r2
    318c:	90a5c83a 	sub	r18,r18,r2
    3190:	1885c83a 	sub	r2,r3,r2
    3194:	b8800215 	stw	r2,8(r23)
    3198:	103fce26 	beq	r2,zero,30d4 <__alt_mem_Flash_flash_data+0xf40030d4>
    319c:	8100030b 	ldhu	r4,12(r16)
    31a0:	903fe61e 	bne	r18,zero,313c <__alt_mem_Flash_flash_data+0xf400313c>
    31a4:	8f000017 	ldw	fp,0(r17)
    31a8:	8c800117 	ldw	r18,4(r17)
    31ac:	8c400204 	addi	r17,r17,8
    31b0:	003fe106 	br	3138 <__alt_mem_Flash_flash_data+0xf4003138>
    31b4:	8cc00017 	ldw	r19,0(r17)
    31b8:	8c800117 	ldw	r18,4(r17)
    31bc:	8c400204 	addi	r17,r17,8
    31c0:	003fb306 	br	3090 <__alt_mem_Flash_flash_data+0xf4003090>
    31c4:	0005883a 	mov	r2,zero
    31c8:	f800283a 	ret
    31cc:	00a00034 	movhi	r2,32768
    31d0:	10bfffc4 	addi	r2,r2,-1
    31d4:	9009883a 	mov	r4,r18
    31d8:	1480012e 	bgeu	r2,r18,31e0 <__sfvwrite_r+0x1c0>
    31dc:	1009883a 	mov	r4,r2
    31e0:	980b883a 	mov	r5,r19
    31e4:	0005a800 	call	5a80 <__divsi3>
    31e8:	81400717 	ldw	r5,28(r16)
    31ec:	80c00917 	ldw	r3,36(r16)
    31f0:	988f383a 	mul	r7,r19,r2
    31f4:	a009883a 	mov	r4,r20
    31f8:	e00d883a 	mov	r6,fp
    31fc:	183ee83a 	callr	r3
    3200:	00bfe016 	blt	zero,r2,3184 <__alt_mem_Flash_flash_data+0xf4003184>
    3204:	8080030b 	ldhu	r2,12(r16)
    3208:	10801014 	ori	r2,r2,64
    320c:	8080030d 	sth	r2,12(r16)
    3210:	00bfffc4 	movi	r2,-1
    3214:	003fb006 	br	30d8 <__alt_mem_Flash_flash_data+0xf40030d8>
    3218:	0027883a 	mov	r19,zero
    321c:	0011883a 	mov	r8,zero
    3220:	0039883a 	mov	fp,zero
    3224:	0025883a 	mov	r18,zero
    3228:	90001f26 	beq	r18,zero,32a8 <__sfvwrite_r+0x288>
    322c:	40006026 	beq	r8,zero,33b0 <__sfvwrite_r+0x390>
    3230:	982b883a 	mov	r21,r19
    3234:	94c0012e 	bgeu	r18,r19,323c <__sfvwrite_r+0x21c>
    3238:	902b883a 	mov	r21,r18
    323c:	81000017 	ldw	r4,0(r16)
    3240:	80800417 	ldw	r2,16(r16)
    3244:	a82d883a 	mov	r22,r21
    3248:	81800217 	ldw	r6,8(r16)
    324c:	81c00517 	ldw	r7,20(r16)
    3250:	1100022e 	bgeu	r2,r4,325c <__sfvwrite_r+0x23c>
    3254:	31c7883a 	add	r3,r6,r7
    3258:	1d401816 	blt	r3,r21,32bc <__sfvwrite_r+0x29c>
    325c:	a9c04416 	blt	r21,r7,3370 <__sfvwrite_r+0x350>
    3260:	80800917 	ldw	r2,36(r16)
    3264:	81400717 	ldw	r5,28(r16)
    3268:	a009883a 	mov	r4,r20
    326c:	da000115 	stw	r8,4(sp)
    3270:	e00d883a 	mov	r6,fp
    3274:	103ee83a 	callr	r2
    3278:	102d883a 	mov	r22,r2
    327c:	da000117 	ldw	r8,4(sp)
    3280:	00bfe00e 	bge	zero,r2,3204 <__alt_mem_Flash_flash_data+0xf4003204>
    3284:	9da7c83a 	sub	r19,r19,r22
    3288:	98001f26 	beq	r19,zero,3308 <__sfvwrite_r+0x2e8>
    328c:	b8800217 	ldw	r2,8(r23)
    3290:	e5b9883a 	add	fp,fp,r22
    3294:	95a5c83a 	sub	r18,r18,r22
    3298:	15adc83a 	sub	r22,r2,r22
    329c:	bd800215 	stw	r22,8(r23)
    32a0:	b03f8c26 	beq	r22,zero,30d4 <__alt_mem_Flash_flash_data+0xf40030d4>
    32a4:	903fe11e 	bne	r18,zero,322c <__alt_mem_Flash_flash_data+0xf400322c>
    32a8:	8f000017 	ldw	fp,0(r17)
    32ac:	8c800117 	ldw	r18,4(r17)
    32b0:	0011883a 	mov	r8,zero
    32b4:	8c400204 	addi	r17,r17,8
    32b8:	003fdb06 	br	3228 <__alt_mem_Flash_flash_data+0xf4003228>
    32bc:	180d883a 	mov	r6,r3
    32c0:	e00b883a 	mov	r5,fp
    32c4:	da000115 	stw	r8,4(sp)
    32c8:	d8c00015 	stw	r3,0(sp)
    32cc:	0003ea80 	call	3ea8 <memmove>
    32d0:	d8c00017 	ldw	r3,0(sp)
    32d4:	80800017 	ldw	r2,0(r16)
    32d8:	a009883a 	mov	r4,r20
    32dc:	800b883a 	mov	r5,r16
    32e0:	10c5883a 	add	r2,r2,r3
    32e4:	80800015 	stw	r2,0(r16)
    32e8:	d8c00015 	stw	r3,0(sp)
    32ec:	000491c0 	call	491c <_fflush_r>
    32f0:	d8c00017 	ldw	r3,0(sp)
    32f4:	da000117 	ldw	r8,4(sp)
    32f8:	103fc21e 	bne	r2,zero,3204 <__alt_mem_Flash_flash_data+0xf4003204>
    32fc:	182d883a 	mov	r22,r3
    3300:	9da7c83a 	sub	r19,r19,r22
    3304:	983fe11e 	bne	r19,zero,328c <__alt_mem_Flash_flash_data+0xf400328c>
    3308:	a009883a 	mov	r4,r20
    330c:	800b883a 	mov	r5,r16
    3310:	000491c0 	call	491c <_fflush_r>
    3314:	103fbb1e 	bne	r2,zero,3204 <__alt_mem_Flash_flash_data+0xf4003204>
    3318:	0011883a 	mov	r8,zero
    331c:	003fdb06 	br	328c <__alt_mem_Flash_flash_data+0xf400328c>
    3320:	81000017 	ldw	r4,0(r16)
    3324:	80800417 	ldw	r2,16(r16)
    3328:	11000236 	bltu	r2,r4,3334 <__sfvwrite_r+0x314>
    332c:	84c00517 	ldw	r19,20(r16)
    3330:	94ffa62e 	bgeu	r18,r19,31cc <__alt_mem_Flash_flash_data+0xf40031cc>
    3334:	9027883a 	mov	r19,r18
    3338:	b480012e 	bgeu	r22,r18,3340 <__sfvwrite_r+0x320>
    333c:	b027883a 	mov	r19,r22
    3340:	e00b883a 	mov	r5,fp
    3344:	980d883a 	mov	r6,r19
    3348:	0003ea80 	call	3ea8 <memmove>
    334c:	80800217 	ldw	r2,8(r16)
    3350:	80c00017 	ldw	r3,0(r16)
    3354:	14c5c83a 	sub	r2,r2,r19
    3358:	1cc7883a 	add	r3,r3,r19
    335c:	80800215 	stw	r2,8(r16)
    3360:	80c00015 	stw	r3,0(r16)
    3364:	10004326 	beq	r2,zero,3474 <__sfvwrite_r+0x454>
    3368:	9805883a 	mov	r2,r19
    336c:	003f8506 	br	3184 <__alt_mem_Flash_flash_data+0xf4003184>
    3370:	a80d883a 	mov	r6,r21
    3374:	e00b883a 	mov	r5,fp
    3378:	da000115 	stw	r8,4(sp)
    337c:	0003ea80 	call	3ea8 <memmove>
    3380:	80800217 	ldw	r2,8(r16)
    3384:	80c00017 	ldw	r3,0(r16)
    3388:	da000117 	ldw	r8,4(sp)
    338c:	1545c83a 	sub	r2,r2,r21
    3390:	1d6b883a 	add	r21,r3,r21
    3394:	80800215 	stw	r2,8(r16)
    3398:	85400015 	stw	r21,0(r16)
    339c:	003fb906 	br	3284 <__alt_mem_Flash_flash_data+0xf4003284>
    33a0:	81000017 	ldw	r4,0(r16)
    33a4:	902d883a 	mov	r22,r18
    33a8:	9027883a 	mov	r19,r18
    33ac:	003f6b06 	br	315c <__alt_mem_Flash_flash_data+0xf400315c>
    33b0:	e009883a 	mov	r4,fp
    33b4:	01400284 	movi	r5,10
    33b8:	900d883a 	mov	r6,r18
    33bc:	0003c880 	call	3c88 <memchr>
    33c0:	10003e26 	beq	r2,zero,34bc <__sfvwrite_r+0x49c>
    33c4:	10800044 	addi	r2,r2,1
    33c8:	1727c83a 	sub	r19,r2,fp
    33cc:	02000044 	movi	r8,1
    33d0:	003f9706 	br	3230 <__alt_mem_Flash_flash_data+0xf4003230>
    33d4:	80800517 	ldw	r2,20(r16)
    33d8:	81400417 	ldw	r5,16(r16)
    33dc:	80c00017 	ldw	r3,0(r16)
    33e0:	10a7883a 	add	r19,r2,r2
    33e4:	9885883a 	add	r2,r19,r2
    33e8:	1026d7fa 	srli	r19,r2,31
    33ec:	196bc83a 	sub	r21,r3,r5
    33f0:	a9800044 	addi	r6,r21,1
    33f4:	9885883a 	add	r2,r19,r2
    33f8:	1027d07a 	srai	r19,r2,1
    33fc:	3485883a 	add	r2,r6,r18
    3400:	980d883a 	mov	r6,r19
    3404:	9880022e 	bgeu	r19,r2,3410 <__sfvwrite_r+0x3f0>
    3408:	1027883a 	mov	r19,r2
    340c:	100d883a 	mov	r6,r2
    3410:	2101000c 	andi	r4,r4,1024
    3414:	20001c26 	beq	r4,zero,3488 <__sfvwrite_r+0x468>
    3418:	a009883a 	mov	r4,r20
    341c:	300b883a 	mov	r5,r6
    3420:	00034e00 	call	34e0 <_malloc_r>
    3424:	102d883a 	mov	r22,r2
    3428:	10002926 	beq	r2,zero,34d0 <__sfvwrite_r+0x4b0>
    342c:	81400417 	ldw	r5,16(r16)
    3430:	1009883a 	mov	r4,r2
    3434:	a80d883a 	mov	r6,r21
    3438:	0003d700 	call	3d70 <memcpy>
    343c:	8080030b 	ldhu	r2,12(r16)
    3440:	00fedfc4 	movi	r3,-1153
    3444:	10c4703a 	and	r2,r2,r3
    3448:	10802014 	ori	r2,r2,128
    344c:	8080030d 	sth	r2,12(r16)
    3450:	b549883a 	add	r4,r22,r21
    3454:	9d4bc83a 	sub	r5,r19,r21
    3458:	85800415 	stw	r22,16(r16)
    345c:	84c00515 	stw	r19,20(r16)
    3460:	81000015 	stw	r4,0(r16)
    3464:	902d883a 	mov	r22,r18
    3468:	81400215 	stw	r5,8(r16)
    346c:	9027883a 	mov	r19,r18
    3470:	003f3a06 	br	315c <__alt_mem_Flash_flash_data+0xf400315c>
    3474:	a009883a 	mov	r4,r20
    3478:	800b883a 	mov	r5,r16
    347c:	000491c0 	call	491c <_fflush_r>
    3480:	103fb926 	beq	r2,zero,3368 <__alt_mem_Flash_flash_data+0xf4003368>
    3484:	003f5f06 	br	3204 <__alt_mem_Flash_flash_data+0xf4003204>
    3488:	a009883a 	mov	r4,r20
    348c:	00040040 	call	4004 <_realloc_r>
    3490:	102d883a 	mov	r22,r2
    3494:	103fee1e 	bne	r2,zero,3450 <__alt_mem_Flash_flash_data+0xf4003450>
    3498:	81400417 	ldw	r5,16(r16)
    349c:	a009883a 	mov	r4,r20
    34a0:	0004e6c0 	call	4e6c <_free_r>
    34a4:	8080030b 	ldhu	r2,12(r16)
    34a8:	00ffdfc4 	movi	r3,-129
    34ac:	1884703a 	and	r2,r3,r2
    34b0:	00c00304 	movi	r3,12
    34b4:	a0c00015 	stw	r3,0(r20)
    34b8:	003f5306 	br	3208 <__alt_mem_Flash_flash_data+0xf4003208>
    34bc:	94c00044 	addi	r19,r18,1
    34c0:	02000044 	movi	r8,1
    34c4:	003f5a06 	br	3230 <__alt_mem_Flash_flash_data+0xf4003230>
    34c8:	00bfffc4 	movi	r2,-1
    34cc:	003f0206 	br	30d8 <__alt_mem_Flash_flash_data+0xf40030d8>
    34d0:	00800304 	movi	r2,12
    34d4:	a0800015 	stw	r2,0(r20)
    34d8:	8080030b 	ldhu	r2,12(r16)
    34dc:	003f4a06 	br	3208 <__alt_mem_Flash_flash_data+0xf4003208>

000034e0 <_malloc_r>:
    34e0:	defff504 	addi	sp,sp,-44
    34e4:	dc800315 	stw	r18,12(sp)
    34e8:	dfc00a15 	stw	ra,40(sp)
    34ec:	df000915 	stw	fp,36(sp)
    34f0:	ddc00815 	stw	r23,32(sp)
    34f4:	dd800715 	stw	r22,28(sp)
    34f8:	dd400615 	stw	r21,24(sp)
    34fc:	dd000515 	stw	r20,20(sp)
    3500:	dcc00415 	stw	r19,16(sp)
    3504:	dc400215 	stw	r17,8(sp)
    3508:	dc000115 	stw	r16,4(sp)
    350c:	288002c4 	addi	r2,r5,11
    3510:	00c00584 	movi	r3,22
    3514:	2025883a 	mov	r18,r4
    3518:	18802a2e 	bgeu	r3,r2,35c4 <_malloc_r+0xe4>
    351c:	047ffe04 	movi	r17,-8
    3520:	1462703a 	and	r17,r2,r17
    3524:	88009e16 	blt	r17,zero,37a0 <_malloc_r+0x2c0>
    3528:	89409d36 	bltu	r17,r5,37a0 <_malloc_r+0x2c0>
    352c:	000661c0 	call	661c <__malloc_lock>
    3530:	00807dc4 	movi	r2,503
    3534:	14402736 	bltu	r2,r17,35d4 <_malloc_r+0xf4>
    3538:	8806d0fa 	srli	r3,r17,3
    353c:	04c00074 	movhi	r19,1
    3540:	9ccdd704 	addi	r19,r19,14172
    3544:	18c5883a 	add	r2,r3,r3
    3548:	1085883a 	add	r2,r2,r2
    354c:	1085883a 	add	r2,r2,r2
    3550:	9885883a 	add	r2,r19,r2
    3554:	14000317 	ldw	r16,12(r2)
    3558:	80814a26 	beq	r16,r2,3a84 <_malloc_r+0x5a4>
    355c:	80c00117 	ldw	r3,4(r16)
    3560:	81000317 	ldw	r4,12(r16)
    3564:	00bfff04 	movi	r2,-4
    3568:	1884703a 	and	r2,r3,r2
    356c:	81400217 	ldw	r5,8(r16)
    3570:	8085883a 	add	r2,r16,r2
    3574:	10c00117 	ldw	r3,4(r2)
    3578:	29000315 	stw	r4,12(r5)
    357c:	21400215 	stw	r5,8(r4)
    3580:	18c00054 	ori	r3,r3,1
    3584:	10c00115 	stw	r3,4(r2)
    3588:	9009883a 	mov	r4,r18
    358c:	000673c0 	call	673c <__malloc_unlock>
    3590:	80800204 	addi	r2,r16,8
    3594:	dfc00a17 	ldw	ra,40(sp)
    3598:	df000917 	ldw	fp,36(sp)
    359c:	ddc00817 	ldw	r23,32(sp)
    35a0:	dd800717 	ldw	r22,28(sp)
    35a4:	dd400617 	ldw	r21,24(sp)
    35a8:	dd000517 	ldw	r20,20(sp)
    35ac:	dcc00417 	ldw	r19,16(sp)
    35b0:	dc800317 	ldw	r18,12(sp)
    35b4:	dc400217 	ldw	r17,8(sp)
    35b8:	dc000117 	ldw	r16,4(sp)
    35bc:	dec00b04 	addi	sp,sp,44
    35c0:	f800283a 	ret
    35c4:	04400404 	movi	r17,16
    35c8:	89407536 	bltu	r17,r5,37a0 <_malloc_r+0x2c0>
    35cc:	000661c0 	call	661c <__malloc_lock>
    35d0:	003fd906 	br	3538 <__alt_mem_Flash_flash_data+0xf4003538>
    35d4:	8806d27a 	srli	r3,r17,9
    35d8:	18007526 	beq	r3,zero,37b0 <_malloc_r+0x2d0>
    35dc:	00800104 	movi	r2,4
    35e0:	10c0ef36 	bltu	r2,r3,39a0 <_malloc_r+0x4c0>
    35e4:	8806d1ba 	srli	r3,r17,6
    35e8:	19c00e04 	addi	r7,r3,56
    35ec:	39cb883a 	add	r5,r7,r7
    35f0:	04c00074 	movhi	r19,1
    35f4:	294b883a 	add	r5,r5,r5
    35f8:	9ccdd704 	addi	r19,r19,14172
    35fc:	294b883a 	add	r5,r5,r5
    3600:	994b883a 	add	r5,r19,r5
    3604:	2c000317 	ldw	r16,12(r5)
    3608:	2c000e26 	beq	r5,r16,3644 <_malloc_r+0x164>
    360c:	80800117 	ldw	r2,4(r16)
    3610:	01bfff04 	movi	r6,-4
    3614:	010003c4 	movi	r4,15
    3618:	1184703a 	and	r2,r2,r6
    361c:	1447c83a 	sub	r3,r2,r17
    3620:	20c00716 	blt	r4,r3,3640 <_malloc_r+0x160>
    3624:	1800650e 	bge	r3,zero,37bc <_malloc_r+0x2dc>
    3628:	84000317 	ldw	r16,12(r16)
    362c:	2c000526 	beq	r5,r16,3644 <_malloc_r+0x164>
    3630:	80800117 	ldw	r2,4(r16)
    3634:	1184703a 	and	r2,r2,r6
    3638:	1447c83a 	sub	r3,r2,r17
    363c:	20fff90e 	bge	r4,r3,3624 <__alt_mem_Flash_flash_data+0xf4003624>
    3640:	39ffffc4 	addi	r7,r7,-1
    3644:	38c00044 	addi	r3,r7,1
    3648:	01800074 	movhi	r6,1
    364c:	9c000417 	ldw	r16,16(r19)
    3650:	318dd704 	addi	r6,r6,14172
    3654:	32400204 	addi	r9,r6,8
    3658:	82410326 	beq	r16,r9,3a68 <_malloc_r+0x588>
    365c:	81000117 	ldw	r4,4(r16)
    3660:	00bfff04 	movi	r2,-4
    3664:	208e703a 	and	r7,r4,r2
    3668:	3c45c83a 	sub	r2,r7,r17
    366c:	010003c4 	movi	r4,15
    3670:	2080ee16 	blt	r4,r2,3a2c <_malloc_r+0x54c>
    3674:	32400515 	stw	r9,20(r6)
    3678:	32400415 	stw	r9,16(r6)
    367c:	1000510e 	bge	r2,zero,37c4 <_malloc_r+0x2e4>
    3680:	00807fc4 	movi	r2,511
    3684:	11c0ce36 	bltu	r2,r7,39c0 <_malloc_r+0x4e0>
    3688:	3808d0fa 	srli	r4,r7,3
    368c:	01c00044 	movi	r7,1
    3690:	30800117 	ldw	r2,4(r6)
    3694:	210b883a 	add	r5,r4,r4
    3698:	294b883a 	add	r5,r5,r5
    369c:	2009d0ba 	srai	r4,r4,2
    36a0:	294b883a 	add	r5,r5,r5
    36a4:	298b883a 	add	r5,r5,r6
    36a8:	2a000217 	ldw	r8,8(r5)
    36ac:	3908983a 	sll	r4,r7,r4
    36b0:	81400315 	stw	r5,12(r16)
    36b4:	82000215 	stw	r8,8(r16)
    36b8:	2088b03a 	or	r4,r4,r2
    36bc:	2c000215 	stw	r16,8(r5)
    36c0:	31000115 	stw	r4,4(r6)
    36c4:	44000315 	stw	r16,12(r8)
    36c8:	1805d0ba 	srai	r2,r3,2
    36cc:	01400044 	movi	r5,1
    36d0:	288a983a 	sll	r5,r5,r2
    36d4:	21404336 	bltu	r4,r5,37e4 <_malloc_r+0x304>
    36d8:	2144703a 	and	r2,r4,r5
    36dc:	10000a1e 	bne	r2,zero,3708 <_malloc_r+0x228>
    36e0:	00bfff04 	movi	r2,-4
    36e4:	294b883a 	add	r5,r5,r5
    36e8:	1886703a 	and	r3,r3,r2
    36ec:	2144703a 	and	r2,r4,r5
    36f0:	18c00104 	addi	r3,r3,4
    36f4:	1000041e 	bne	r2,zero,3708 <_malloc_r+0x228>
    36f8:	294b883a 	add	r5,r5,r5
    36fc:	2144703a 	and	r2,r4,r5
    3700:	18c00104 	addi	r3,r3,4
    3704:	103ffc26 	beq	r2,zero,36f8 <__alt_mem_Flash_flash_data+0xf40036f8>
    3708:	023fff04 	movi	r8,-4
    370c:	01c003c4 	movi	r7,15
    3710:	18c5883a 	add	r2,r3,r3
    3714:	1085883a 	add	r2,r2,r2
    3718:	1085883a 	add	r2,r2,r2
    371c:	9895883a 	add	r10,r19,r2
    3720:	52c00304 	addi	r11,r10,12
    3724:	1819883a 	mov	r12,r3
    3728:	5c000017 	ldw	r16,0(r11)
    372c:	59bffd04 	addi	r6,r11,-12
    3730:	8180041e 	bne	r16,r6,3744 <_malloc_r+0x264>
    3734:	0000ce06 	br	3a70 <_malloc_r+0x590>
    3738:	2000d70e 	bge	r4,zero,3a98 <_malloc_r+0x5b8>
    373c:	84000317 	ldw	r16,12(r16)
    3740:	8180cb26 	beq	r16,r6,3a70 <_malloc_r+0x590>
    3744:	80800117 	ldw	r2,4(r16)
    3748:	1204703a 	and	r2,r2,r8
    374c:	1449c83a 	sub	r4,r2,r17
    3750:	393ff90e 	bge	r7,r4,3738 <__alt_mem_Flash_flash_data+0xf4003738>
    3754:	80800317 	ldw	r2,12(r16)
    3758:	80c00217 	ldw	r3,8(r16)
    375c:	89400054 	ori	r5,r17,1
    3760:	81400115 	stw	r5,4(r16)
    3764:	18800315 	stw	r2,12(r3)
    3768:	10c00215 	stw	r3,8(r2)
    376c:	8463883a 	add	r17,r16,r17
    3770:	9c400515 	stw	r17,20(r19)
    3774:	9c400415 	stw	r17,16(r19)
    3778:	20800054 	ori	r2,r4,1
    377c:	88800115 	stw	r2,4(r17)
    3780:	8a400315 	stw	r9,12(r17)
    3784:	8a400215 	stw	r9,8(r17)
    3788:	8923883a 	add	r17,r17,r4
    378c:	89000015 	stw	r4,0(r17)
    3790:	9009883a 	mov	r4,r18
    3794:	000673c0 	call	673c <__malloc_unlock>
    3798:	80800204 	addi	r2,r16,8
    379c:	003f7d06 	br	3594 <__alt_mem_Flash_flash_data+0xf4003594>
    37a0:	00800304 	movi	r2,12
    37a4:	90800015 	stw	r2,0(r18)
    37a8:	0005883a 	mov	r2,zero
    37ac:	003f7906 	br	3594 <__alt_mem_Flash_flash_data+0xf4003594>
    37b0:	01401f84 	movi	r5,126
    37b4:	01c00fc4 	movi	r7,63
    37b8:	003f8d06 	br	35f0 <__alt_mem_Flash_flash_data+0xf40035f0>
    37bc:	81000317 	ldw	r4,12(r16)
    37c0:	003f6a06 	br	356c <__alt_mem_Flash_flash_data+0xf400356c>
    37c4:	81c5883a 	add	r2,r16,r7
    37c8:	10c00117 	ldw	r3,4(r2)
    37cc:	9009883a 	mov	r4,r18
    37d0:	18c00054 	ori	r3,r3,1
    37d4:	10c00115 	stw	r3,4(r2)
    37d8:	000673c0 	call	673c <__malloc_unlock>
    37dc:	80800204 	addi	r2,r16,8
    37e0:	003f6c06 	br	3594 <__alt_mem_Flash_flash_data+0xf4003594>
    37e4:	9c000217 	ldw	r16,8(r19)
    37e8:	00bfff04 	movi	r2,-4
    37ec:	85800117 	ldw	r22,4(r16)
    37f0:	b0ac703a 	and	r22,r22,r2
    37f4:	b4400336 	bltu	r22,r17,3804 <_malloc_r+0x324>
    37f8:	b445c83a 	sub	r2,r22,r17
    37fc:	00c003c4 	movi	r3,15
    3800:	18805d16 	blt	r3,r2,3978 <_malloc_r+0x498>
    3804:	05c00074 	movhi	r23,1
    3808:	00800074 	movhi	r2,1
    380c:	bdd44e04 	addi	r23,r23,20792
    3810:	109c4904 	addi	r2,r2,28964
    3814:	15400017 	ldw	r21,0(r2)
    3818:	b9000017 	ldw	r4,0(r23)
    381c:	00ffffc4 	movi	r3,-1
    3820:	858d883a 	add	r6,r16,r22
    3824:	8d6b883a 	add	r21,r17,r21
    3828:	20c0e426 	beq	r4,r3,3bbc <_malloc_r+0x6dc>
    382c:	ad4403c4 	addi	r21,r21,4111
    3830:	00fc0004 	movi	r3,-4096
    3834:	a8ea703a 	and	r21,r21,r3
    3838:	9009883a 	mov	r4,r18
    383c:	a80b883a 	mov	r5,r21
    3840:	d9800015 	stw	r6,0(sp)
    3844:	000456c0 	call	456c <_sbrk_r>
    3848:	00ffffc4 	movi	r3,-1
    384c:	1029883a 	mov	r20,r2
    3850:	d9800017 	ldw	r6,0(sp)
    3854:	10c0a426 	beq	r2,r3,3ae8 <_malloc_r+0x608>
    3858:	1180a236 	bltu	r2,r6,3ae4 <_malloc_r+0x604>
    385c:	07000074 	movhi	fp,1
    3860:	e71c6b04 	addi	fp,fp,29100
    3864:	e0c00017 	ldw	r3,0(fp)
    3868:	a8c7883a 	add	r3,r21,r3
    386c:	e0c00015 	stw	r3,0(fp)
    3870:	3500da26 	beq	r6,r20,3bdc <_malloc_r+0x6fc>
    3874:	b9000017 	ldw	r4,0(r23)
    3878:	00bfffc4 	movi	r2,-1
    387c:	2080e426 	beq	r4,r2,3c10 <_malloc_r+0x730>
    3880:	a185c83a 	sub	r2,r20,r6
    3884:	1885883a 	add	r2,r3,r2
    3888:	e0800015 	stw	r2,0(fp)
    388c:	a0c001cc 	andi	r3,r20,7
    3890:	1800b526 	beq	r3,zero,3b68 <_malloc_r+0x688>
    3894:	a0e9c83a 	sub	r20,r20,r3
    3898:	00840204 	movi	r2,4104
    389c:	a5000204 	addi	r20,r20,8
    38a0:	10c7c83a 	sub	r3,r2,r3
    38a4:	a545883a 	add	r2,r20,r21
    38a8:	1083ffcc 	andi	r2,r2,4095
    38ac:	18abc83a 	sub	r21,r3,r2
    38b0:	9009883a 	mov	r4,r18
    38b4:	a80b883a 	mov	r5,r21
    38b8:	000456c0 	call	456c <_sbrk_r>
    38bc:	00ffffc4 	movi	r3,-1
    38c0:	10c0d026 	beq	r2,r3,3c04 <_malloc_r+0x724>
    38c4:	1507c83a 	sub	r3,r2,r20
    38c8:	a8c7883a 	add	r3,r21,r3
    38cc:	18c00054 	ori	r3,r3,1
    38d0:	e0800017 	ldw	r2,0(fp)
    38d4:	9d000215 	stw	r20,8(r19)
    38d8:	a0c00115 	stw	r3,4(r20)
    38dc:	a887883a 	add	r3,r21,r2
    38e0:	e0c00015 	stw	r3,0(fp)
    38e4:	84c00e26 	beq	r16,r19,3920 <_malloc_r+0x440>
    38e8:	018003c4 	movi	r6,15
    38ec:	3580a02e 	bgeu	r6,r22,3b70 <_malloc_r+0x690>
    38f0:	81400117 	ldw	r5,4(r16)
    38f4:	013ffe04 	movi	r4,-8
    38f8:	b0bffd04 	addi	r2,r22,-12
    38fc:	1104703a 	and	r2,r2,r4
    3900:	2900004c 	andi	r4,r5,1
    3904:	1108b03a 	or	r4,r2,r4
    3908:	81000115 	stw	r4,4(r16)
    390c:	01400144 	movi	r5,5
    3910:	8089883a 	add	r4,r16,r2
    3914:	21400115 	stw	r5,4(r4)
    3918:	21400215 	stw	r5,8(r4)
    391c:	3080c036 	bltu	r6,r2,3c20 <_malloc_r+0x740>
    3920:	00800074 	movhi	r2,1
    3924:	109c4804 	addi	r2,r2,28960
    3928:	11000017 	ldw	r4,0(r2)
    392c:	20c0012e 	bgeu	r4,r3,3934 <_malloc_r+0x454>
    3930:	10c00015 	stw	r3,0(r2)
    3934:	00800074 	movhi	r2,1
    3938:	109c4704 	addi	r2,r2,28956
    393c:	11000017 	ldw	r4,0(r2)
    3940:	9c000217 	ldw	r16,8(r19)
    3944:	20c0012e 	bgeu	r4,r3,394c <_malloc_r+0x46c>
    3948:	10c00015 	stw	r3,0(r2)
    394c:	80c00117 	ldw	r3,4(r16)
    3950:	00bfff04 	movi	r2,-4
    3954:	1886703a 	and	r3,r3,r2
    3958:	1c45c83a 	sub	r2,r3,r17
    395c:	1c400236 	bltu	r3,r17,3968 <_malloc_r+0x488>
    3960:	00c003c4 	movi	r3,15
    3964:	18800416 	blt	r3,r2,3978 <_malloc_r+0x498>
    3968:	9009883a 	mov	r4,r18
    396c:	000673c0 	call	673c <__malloc_unlock>
    3970:	0005883a 	mov	r2,zero
    3974:	003f0706 	br	3594 <__alt_mem_Flash_flash_data+0xf4003594>
    3978:	88c00054 	ori	r3,r17,1
    397c:	80c00115 	stw	r3,4(r16)
    3980:	8463883a 	add	r17,r16,r17
    3984:	10800054 	ori	r2,r2,1
    3988:	9c400215 	stw	r17,8(r19)
    398c:	88800115 	stw	r2,4(r17)
    3990:	9009883a 	mov	r4,r18
    3994:	000673c0 	call	673c <__malloc_unlock>
    3998:	80800204 	addi	r2,r16,8
    399c:	003efd06 	br	3594 <__alt_mem_Flash_flash_data+0xf4003594>
    39a0:	00800504 	movi	r2,20
    39a4:	10c0482e 	bgeu	r2,r3,3ac8 <_malloc_r+0x5e8>
    39a8:	00801504 	movi	r2,84
    39ac:	10c06836 	bltu	r2,r3,3b50 <_malloc_r+0x670>
    39b0:	8806d33a 	srli	r3,r17,12
    39b4:	19c01b84 	addi	r7,r3,110
    39b8:	39cb883a 	add	r5,r7,r7
    39bc:	003f0c06 	br	35f0 <__alt_mem_Flash_flash_data+0xf40035f0>
    39c0:	3804d27a 	srli	r2,r7,9
    39c4:	01000104 	movi	r4,4
    39c8:	2080422e 	bgeu	r4,r2,3ad4 <_malloc_r+0x5f4>
    39cc:	01000504 	movi	r4,20
    39d0:	20807c36 	bltu	r4,r2,3bc4 <_malloc_r+0x6e4>
    39d4:	110016c4 	addi	r4,r2,91
    39d8:	210b883a 	add	r5,r4,r4
    39dc:	294b883a 	add	r5,r5,r5
    39e0:	294b883a 	add	r5,r5,r5
    39e4:	994b883a 	add	r5,r19,r5
    39e8:	28800217 	ldw	r2,8(r5)
    39ec:	02000074 	movhi	r8,1
    39f0:	420dd704 	addi	r8,r8,14172
    39f4:	11406326 	beq	r2,r5,3b84 <_malloc_r+0x6a4>
    39f8:	01bfff04 	movi	r6,-4
    39fc:	11000117 	ldw	r4,4(r2)
    3a00:	2188703a 	and	r4,r4,r6
    3a04:	3900022e 	bgeu	r7,r4,3a10 <_malloc_r+0x530>
    3a08:	10800217 	ldw	r2,8(r2)
    3a0c:	28bffb1e 	bne	r5,r2,39fc <__alt_mem_Flash_flash_data+0xf40039fc>
    3a10:	11800317 	ldw	r6,12(r2)
    3a14:	99000117 	ldw	r4,4(r19)
    3a18:	81800315 	stw	r6,12(r16)
    3a1c:	80800215 	stw	r2,8(r16)
    3a20:	34000215 	stw	r16,8(r6)
    3a24:	14000315 	stw	r16,12(r2)
    3a28:	003f2706 	br	36c8 <__alt_mem_Flash_flash_data+0xf40036c8>
    3a2c:	88c00054 	ori	r3,r17,1
    3a30:	80c00115 	stw	r3,4(r16)
    3a34:	8463883a 	add	r17,r16,r17
    3a38:	34400515 	stw	r17,20(r6)
    3a3c:	34400415 	stw	r17,16(r6)
    3a40:	10c00054 	ori	r3,r2,1
    3a44:	8a400315 	stw	r9,12(r17)
    3a48:	8a400215 	stw	r9,8(r17)
    3a4c:	88c00115 	stw	r3,4(r17)
    3a50:	88a3883a 	add	r17,r17,r2
    3a54:	88800015 	stw	r2,0(r17)
    3a58:	9009883a 	mov	r4,r18
    3a5c:	000673c0 	call	673c <__malloc_unlock>
    3a60:	80800204 	addi	r2,r16,8
    3a64:	003ecb06 	br	3594 <__alt_mem_Flash_flash_data+0xf4003594>
    3a68:	31000117 	ldw	r4,4(r6)
    3a6c:	003f1606 	br	36c8 <__alt_mem_Flash_flash_data+0xf40036c8>
    3a70:	63000044 	addi	r12,r12,1
    3a74:	608000cc 	andi	r2,r12,3
    3a78:	5ac00204 	addi	r11,r11,8
    3a7c:	103f2a1e 	bne	r2,zero,3728 <__alt_mem_Flash_flash_data+0xf4003728>
    3a80:	00002106 	br	3b08 <_malloc_r+0x628>
    3a84:	80800204 	addi	r2,r16,8
    3a88:	84000517 	ldw	r16,20(r16)
    3a8c:	143eb31e 	bne	r2,r16,355c <__alt_mem_Flash_flash_data+0xf400355c>
    3a90:	18c00084 	addi	r3,r3,2
    3a94:	003eec06 	br	3648 <__alt_mem_Flash_flash_data+0xf4003648>
    3a98:	8085883a 	add	r2,r16,r2
    3a9c:	10c00117 	ldw	r3,4(r2)
    3aa0:	81000317 	ldw	r4,12(r16)
    3aa4:	81400217 	ldw	r5,8(r16)
    3aa8:	18c00054 	ori	r3,r3,1
    3aac:	10c00115 	stw	r3,4(r2)
    3ab0:	29000315 	stw	r4,12(r5)
    3ab4:	21400215 	stw	r5,8(r4)
    3ab8:	9009883a 	mov	r4,r18
    3abc:	000673c0 	call	673c <__malloc_unlock>
    3ac0:	80800204 	addi	r2,r16,8
    3ac4:	003eb306 	br	3594 <__alt_mem_Flash_flash_data+0xf4003594>
    3ac8:	19c016c4 	addi	r7,r3,91
    3acc:	39cb883a 	add	r5,r7,r7
    3ad0:	003ec706 	br	35f0 <__alt_mem_Flash_flash_data+0xf40035f0>
    3ad4:	3804d1ba 	srli	r2,r7,6
    3ad8:	11000e04 	addi	r4,r2,56
    3adc:	210b883a 	add	r5,r4,r4
    3ae0:	003fbe06 	br	39dc <__alt_mem_Flash_flash_data+0xf40039dc>
    3ae4:	84ff5d26 	beq	r16,r19,385c <__alt_mem_Flash_flash_data+0xf400385c>
    3ae8:	9c000217 	ldw	r16,8(r19)
    3aec:	00bfff04 	movi	r2,-4
    3af0:	80c00117 	ldw	r3,4(r16)
    3af4:	1886703a 	and	r3,r3,r2
    3af8:	003f9706 	br	3958 <__alt_mem_Flash_flash_data+0xf4003958>
    3afc:	52800017 	ldw	r10,0(r10)
    3b00:	18ffffc4 	addi	r3,r3,-1
    3b04:	50805c1e 	bne	r10,r2,3c78 <_malloc_r+0x798>
    3b08:	190000cc 	andi	r4,r3,3
    3b0c:	50bffe04 	addi	r2,r10,-8
    3b10:	203ffa1e 	bne	r4,zero,3afc <__alt_mem_Flash_flash_data+0xf4003afc>
    3b14:	98800117 	ldw	r2,4(r19)
    3b18:	0146303a 	nor	r3,zero,r5
    3b1c:	1884703a 	and	r2,r3,r2
    3b20:	98800115 	stw	r2,4(r19)
    3b24:	294b883a 	add	r5,r5,r5
    3b28:	117f2e36 	bltu	r2,r5,37e4 <__alt_mem_Flash_flash_data+0xf40037e4>
    3b2c:	283f2d26 	beq	r5,zero,37e4 <__alt_mem_Flash_flash_data+0xf40037e4>
    3b30:	1146703a 	and	r3,r2,r5
    3b34:	1800521e 	bne	r3,zero,3c80 <_malloc_r+0x7a0>
    3b38:	6007883a 	mov	r3,r12
    3b3c:	294b883a 	add	r5,r5,r5
    3b40:	1148703a 	and	r4,r2,r5
    3b44:	18c00104 	addi	r3,r3,4
    3b48:	203ffc26 	beq	r4,zero,3b3c <__alt_mem_Flash_flash_data+0xf4003b3c>
    3b4c:	003ef006 	br	3710 <__alt_mem_Flash_flash_data+0xf4003710>
    3b50:	00805504 	movi	r2,340
    3b54:	10c01336 	bltu	r2,r3,3ba4 <_malloc_r+0x6c4>
    3b58:	8806d3fa 	srli	r3,r17,15
    3b5c:	19c01dc4 	addi	r7,r3,119
    3b60:	39cb883a 	add	r5,r7,r7
    3b64:	003ea206 	br	35f0 <__alt_mem_Flash_flash_data+0xf40035f0>
    3b68:	00c40004 	movi	r3,4096
    3b6c:	003f4d06 	br	38a4 <__alt_mem_Flash_flash_data+0xf40038a4>
    3b70:	00800044 	movi	r2,1
    3b74:	a0800115 	stw	r2,4(r20)
    3b78:	a021883a 	mov	r16,r20
    3b7c:	0007883a 	mov	r3,zero
    3b80:	003f7506 	br	3958 <__alt_mem_Flash_flash_data+0xf4003958>
    3b84:	200bd0ba 	srai	r5,r4,2
    3b88:	01800044 	movi	r6,1
    3b8c:	41000117 	ldw	r4,4(r8)
    3b90:	314a983a 	sll	r5,r6,r5
    3b94:	100d883a 	mov	r6,r2
    3b98:	2908b03a 	or	r4,r5,r4
    3b9c:	41000115 	stw	r4,4(r8)
    3ba0:	003f9d06 	br	3a18 <__alt_mem_Flash_flash_data+0xf4003a18>
    3ba4:	00815504 	movi	r2,1364
    3ba8:	10c01336 	bltu	r2,r3,3bf8 <_malloc_r+0x718>
    3bac:	8806d4ba 	srli	r3,r17,18
    3bb0:	19c01f04 	addi	r7,r3,124
    3bb4:	39cb883a 	add	r5,r7,r7
    3bb8:	003e8d06 	br	35f0 <__alt_mem_Flash_flash_data+0xf40035f0>
    3bbc:	ad400404 	addi	r21,r21,16
    3bc0:	003f1d06 	br	3838 <__alt_mem_Flash_flash_data+0xf4003838>
    3bc4:	01001504 	movi	r4,84
    3bc8:	20801c36 	bltu	r4,r2,3c3c <_malloc_r+0x75c>
    3bcc:	3804d33a 	srli	r2,r7,12
    3bd0:	11001b84 	addi	r4,r2,110
    3bd4:	210b883a 	add	r5,r4,r4
    3bd8:	003f8006 	br	39dc <__alt_mem_Flash_flash_data+0xf40039dc>
    3bdc:	3083ffcc 	andi	r2,r6,4095
    3be0:	103f241e 	bne	r2,zero,3874 <__alt_mem_Flash_flash_data+0xf4003874>
    3be4:	99000217 	ldw	r4,8(r19)
    3be8:	ad85883a 	add	r2,r21,r22
    3bec:	10800054 	ori	r2,r2,1
    3bf0:	20800115 	stw	r2,4(r4)
    3bf4:	003f4a06 	br	3920 <__alt_mem_Flash_flash_data+0xf4003920>
    3bf8:	01403f04 	movi	r5,252
    3bfc:	01c01f84 	movi	r7,126
    3c00:	003e7b06 	br	35f0 <__alt_mem_Flash_flash_data+0xf40035f0>
    3c04:	00c00044 	movi	r3,1
    3c08:	002b883a 	mov	r21,zero
    3c0c:	003f3006 	br	38d0 <__alt_mem_Flash_flash_data+0xf40038d0>
    3c10:	00800074 	movhi	r2,1
    3c14:	10944e04 	addi	r2,r2,20792
    3c18:	15000015 	stw	r20,0(r2)
    3c1c:	003f1b06 	br	388c <__alt_mem_Flash_flash_data+0xf400388c>
    3c20:	9009883a 	mov	r4,r18
    3c24:	81400204 	addi	r5,r16,8
    3c28:	0004e6c0 	call	4e6c <_free_r>
    3c2c:	00800074 	movhi	r2,1
    3c30:	109c6b04 	addi	r2,r2,29100
    3c34:	10c00017 	ldw	r3,0(r2)
    3c38:	003f3906 	br	3920 <__alt_mem_Flash_flash_data+0xf4003920>
    3c3c:	01005504 	movi	r4,340
    3c40:	20800436 	bltu	r4,r2,3c54 <_malloc_r+0x774>
    3c44:	3804d3fa 	srli	r2,r7,15
    3c48:	11001dc4 	addi	r4,r2,119
    3c4c:	210b883a 	add	r5,r4,r4
    3c50:	003f6206 	br	39dc <__alt_mem_Flash_flash_data+0xf40039dc>
    3c54:	01015504 	movi	r4,1364
    3c58:	20800436 	bltu	r4,r2,3c6c <_malloc_r+0x78c>
    3c5c:	3804d4ba 	srli	r2,r7,18
    3c60:	11001f04 	addi	r4,r2,124
    3c64:	210b883a 	add	r5,r4,r4
    3c68:	003f5c06 	br	39dc <__alt_mem_Flash_flash_data+0xf40039dc>
    3c6c:	01403f04 	movi	r5,252
    3c70:	01001f84 	movi	r4,126
    3c74:	003f5906 	br	39dc <__alt_mem_Flash_flash_data+0xf40039dc>
    3c78:	98800117 	ldw	r2,4(r19)
    3c7c:	003fa906 	br	3b24 <__alt_mem_Flash_flash_data+0xf4003b24>
    3c80:	6007883a 	mov	r3,r12
    3c84:	003ea206 	br	3710 <__alt_mem_Flash_flash_data+0xf4003710>

00003c88 <memchr>:
    3c88:	208000cc 	andi	r2,r4,3
    3c8c:	280f883a 	mov	r7,r5
    3c90:	10003526 	beq	r2,zero,3d68 <memchr+0xe0>
    3c94:	30bfffc4 	addi	r2,r6,-1
    3c98:	30001b26 	beq	r6,zero,3d08 <memchr+0x80>
    3c9c:	21800003 	ldbu	r6,0(r4)
    3ca0:	28c03fcc 	andi	r3,r5,255
    3ca4:	30c01a26 	beq	r6,r3,3d10 <memchr+0x88>
    3ca8:	180d883a 	mov	r6,r3
    3cac:	00000406 	br	3cc0 <memchr+0x38>
    3cb0:	10001526 	beq	r2,zero,3d08 <memchr+0x80>
    3cb4:	20c00003 	ldbu	r3,0(r4)
    3cb8:	10bfffc4 	addi	r2,r2,-1
    3cbc:	19801426 	beq	r3,r6,3d10 <memchr+0x88>
    3cc0:	21000044 	addi	r4,r4,1
    3cc4:	20c000cc 	andi	r3,r4,3
    3cc8:	183ff91e 	bne	r3,zero,3cb0 <__alt_mem_Flash_flash_data+0xf4003cb0>
    3ccc:	024000c4 	movi	r9,3
    3cd0:	48801136 	bltu	r9,r2,3d18 <memchr+0x90>
    3cd4:	10000c26 	beq	r2,zero,3d08 <memchr+0x80>
    3cd8:	20c00003 	ldbu	r3,0(r4)
    3cdc:	29403fcc 	andi	r5,r5,255
    3ce0:	19400b26 	beq	r3,r5,3d10 <memchr+0x88>
    3ce4:	20c00044 	addi	r3,r4,1
    3ce8:	2085883a 	add	r2,r4,r2
    3cec:	39803fcc 	andi	r6,r7,255
    3cf0:	00000306 	br	3d00 <memchr+0x78>
    3cf4:	18c00044 	addi	r3,r3,1
    3cf8:	197fffc3 	ldbu	r5,-1(r3)
    3cfc:	29800426 	beq	r5,r6,3d10 <memchr+0x88>
    3d00:	1809883a 	mov	r4,r3
    3d04:	18bffb1e 	bne	r3,r2,3cf4 <__alt_mem_Flash_flash_data+0xf4003cf4>
    3d08:	0005883a 	mov	r2,zero
    3d0c:	f800283a 	ret
    3d10:	2005883a 	mov	r2,r4
    3d14:	f800283a 	ret
    3d18:	28c03fcc 	andi	r3,r5,255
    3d1c:	1810923a 	slli	r8,r3,8
    3d20:	02ffbff4 	movhi	r11,65279
    3d24:	02a02074 	movhi	r10,32897
    3d28:	40c6b03a 	or	r3,r8,r3
    3d2c:	1810943a 	slli	r8,r3,16
    3d30:	5affbfc4 	addi	r11,r11,-257
    3d34:	52a02004 	addi	r10,r10,-32640
    3d38:	40d0b03a 	or	r8,r8,r3
    3d3c:	20c00017 	ldw	r3,0(r4)
    3d40:	40c6f03a 	xor	r3,r8,r3
    3d44:	1acd883a 	add	r6,r3,r11
    3d48:	00c6303a 	nor	r3,zero,r3
    3d4c:	30c6703a 	and	r3,r6,r3
    3d50:	1a86703a 	and	r3,r3,r10
    3d54:	183fdf1e 	bne	r3,zero,3cd4 <__alt_mem_Flash_flash_data+0xf4003cd4>
    3d58:	10bfff04 	addi	r2,r2,-4
    3d5c:	21000104 	addi	r4,r4,4
    3d60:	48bff636 	bltu	r9,r2,3d3c <__alt_mem_Flash_flash_data+0xf4003d3c>
    3d64:	003fdb06 	br	3cd4 <__alt_mem_Flash_flash_data+0xf4003cd4>
    3d68:	3005883a 	mov	r2,r6
    3d6c:	003fd706 	br	3ccc <__alt_mem_Flash_flash_data+0xf4003ccc>

00003d70 <memcpy>:
    3d70:	deffff04 	addi	sp,sp,-4
    3d74:	dc000015 	stw	r16,0(sp)
    3d78:	00c003c4 	movi	r3,15
    3d7c:	2005883a 	mov	r2,r4
    3d80:	1980432e 	bgeu	r3,r6,3e90 <memcpy+0x120>
    3d84:	2146b03a 	or	r3,r4,r5
    3d88:	18c000cc 	andi	r3,r3,3
    3d8c:	1800421e 	bne	r3,zero,3e98 <memcpy+0x128>
    3d90:	343ffc04 	addi	r16,r6,-16
    3d94:	8020d13a 	srli	r16,r16,4
    3d98:	28c00104 	addi	r3,r5,4
    3d9c:	23400104 	addi	r13,r4,4
    3da0:	801e913a 	slli	r15,r16,4
    3da4:	2b000204 	addi	r12,r5,8
    3da8:	22c00204 	addi	r11,r4,8
    3dac:	7bc00504 	addi	r15,r15,20
    3db0:	2a800304 	addi	r10,r5,12
    3db4:	22400304 	addi	r9,r4,12
    3db8:	2bdf883a 	add	r15,r5,r15
    3dbc:	2811883a 	mov	r8,r5
    3dc0:	200f883a 	mov	r7,r4
    3dc4:	41000017 	ldw	r4,0(r8)
    3dc8:	39c00404 	addi	r7,r7,16
    3dcc:	18c00404 	addi	r3,r3,16
    3dd0:	393ffc15 	stw	r4,-16(r7)
    3dd4:	1bbffc17 	ldw	r14,-16(r3)
    3dd8:	6b400404 	addi	r13,r13,16
    3ddc:	5ac00404 	addi	r11,r11,16
    3de0:	6bbffc15 	stw	r14,-16(r13)
    3de4:	63800017 	ldw	r14,0(r12)
    3de8:	4a400404 	addi	r9,r9,16
    3dec:	42000404 	addi	r8,r8,16
    3df0:	5bbffc15 	stw	r14,-16(r11)
    3df4:	53800017 	ldw	r14,0(r10)
    3df8:	63000404 	addi	r12,r12,16
    3dfc:	52800404 	addi	r10,r10,16
    3e00:	4bbffc15 	stw	r14,-16(r9)
    3e04:	1bffef1e 	bne	r3,r15,3dc4 <__alt_mem_Flash_flash_data+0xf4003dc4>
    3e08:	81c00044 	addi	r7,r16,1
    3e0c:	380e913a 	slli	r7,r7,4
    3e10:	310003cc 	andi	r4,r6,15
    3e14:	02c000c4 	movi	r11,3
    3e18:	11c7883a 	add	r3,r2,r7
    3e1c:	29cb883a 	add	r5,r5,r7
    3e20:	59001f2e 	bgeu	r11,r4,3ea0 <memcpy+0x130>
    3e24:	1813883a 	mov	r9,r3
    3e28:	2811883a 	mov	r8,r5
    3e2c:	200f883a 	mov	r7,r4
    3e30:	42800017 	ldw	r10,0(r8)
    3e34:	4a400104 	addi	r9,r9,4
    3e38:	39ffff04 	addi	r7,r7,-4
    3e3c:	4abfff15 	stw	r10,-4(r9)
    3e40:	42000104 	addi	r8,r8,4
    3e44:	59fffa36 	bltu	r11,r7,3e30 <__alt_mem_Flash_flash_data+0xf4003e30>
    3e48:	213fff04 	addi	r4,r4,-4
    3e4c:	2008d0ba 	srli	r4,r4,2
    3e50:	318000cc 	andi	r6,r6,3
    3e54:	21000044 	addi	r4,r4,1
    3e58:	2109883a 	add	r4,r4,r4
    3e5c:	2109883a 	add	r4,r4,r4
    3e60:	1907883a 	add	r3,r3,r4
    3e64:	290b883a 	add	r5,r5,r4
    3e68:	30000626 	beq	r6,zero,3e84 <memcpy+0x114>
    3e6c:	198d883a 	add	r6,r3,r6
    3e70:	29c00003 	ldbu	r7,0(r5)
    3e74:	18c00044 	addi	r3,r3,1
    3e78:	29400044 	addi	r5,r5,1
    3e7c:	19ffffc5 	stb	r7,-1(r3)
    3e80:	19bffb1e 	bne	r3,r6,3e70 <__alt_mem_Flash_flash_data+0xf4003e70>
    3e84:	dc000017 	ldw	r16,0(sp)
    3e88:	dec00104 	addi	sp,sp,4
    3e8c:	f800283a 	ret
    3e90:	2007883a 	mov	r3,r4
    3e94:	003ff406 	br	3e68 <__alt_mem_Flash_flash_data+0xf4003e68>
    3e98:	2007883a 	mov	r3,r4
    3e9c:	003ff306 	br	3e6c <__alt_mem_Flash_flash_data+0xf4003e6c>
    3ea0:	200d883a 	mov	r6,r4
    3ea4:	003ff006 	br	3e68 <__alt_mem_Flash_flash_data+0xf4003e68>

00003ea8 <memmove>:
    3ea8:	2005883a 	mov	r2,r4
    3eac:	29000b2e 	bgeu	r5,r4,3edc <memmove+0x34>
    3eb0:	298f883a 	add	r7,r5,r6
    3eb4:	21c0092e 	bgeu	r4,r7,3edc <memmove+0x34>
    3eb8:	2187883a 	add	r3,r4,r6
    3ebc:	198bc83a 	sub	r5,r3,r6
    3ec0:	30004b26 	beq	r6,zero,3ff0 <memmove+0x148>
    3ec4:	39ffffc4 	addi	r7,r7,-1
    3ec8:	39000003 	ldbu	r4,0(r7)
    3ecc:	18ffffc4 	addi	r3,r3,-1
    3ed0:	19000005 	stb	r4,0(r3)
    3ed4:	197ffb1e 	bne	r3,r5,3ec4 <__alt_mem_Flash_flash_data+0xf4003ec4>
    3ed8:	f800283a 	ret
    3edc:	00c003c4 	movi	r3,15
    3ee0:	1980412e 	bgeu	r3,r6,3fe8 <memmove+0x140>
    3ee4:	1146b03a 	or	r3,r2,r5
    3ee8:	18c000cc 	andi	r3,r3,3
    3eec:	1800411e 	bne	r3,zero,3ff4 <memmove+0x14c>
    3ef0:	33fffc04 	addi	r15,r6,-16
    3ef4:	781ed13a 	srli	r15,r15,4
    3ef8:	28c00104 	addi	r3,r5,4
    3efc:	13400104 	addi	r13,r2,4
    3f00:	781c913a 	slli	r14,r15,4
    3f04:	2b000204 	addi	r12,r5,8
    3f08:	12c00204 	addi	r11,r2,8
    3f0c:	73800504 	addi	r14,r14,20
    3f10:	2a800304 	addi	r10,r5,12
    3f14:	12400304 	addi	r9,r2,12
    3f18:	2b9d883a 	add	r14,r5,r14
    3f1c:	2811883a 	mov	r8,r5
    3f20:	100f883a 	mov	r7,r2
    3f24:	41000017 	ldw	r4,0(r8)
    3f28:	39c00404 	addi	r7,r7,16
    3f2c:	18c00404 	addi	r3,r3,16
    3f30:	393ffc15 	stw	r4,-16(r7)
    3f34:	193ffc17 	ldw	r4,-16(r3)
    3f38:	6b400404 	addi	r13,r13,16
    3f3c:	5ac00404 	addi	r11,r11,16
    3f40:	693ffc15 	stw	r4,-16(r13)
    3f44:	61000017 	ldw	r4,0(r12)
    3f48:	4a400404 	addi	r9,r9,16
    3f4c:	42000404 	addi	r8,r8,16
    3f50:	593ffc15 	stw	r4,-16(r11)
    3f54:	51000017 	ldw	r4,0(r10)
    3f58:	63000404 	addi	r12,r12,16
    3f5c:	52800404 	addi	r10,r10,16
    3f60:	493ffc15 	stw	r4,-16(r9)
    3f64:	1bbfef1e 	bne	r3,r14,3f24 <__alt_mem_Flash_flash_data+0xf4003f24>
    3f68:	79000044 	addi	r4,r15,1
    3f6c:	2008913a 	slli	r4,r4,4
    3f70:	328003cc 	andi	r10,r6,15
    3f74:	02c000c4 	movi	r11,3
    3f78:	1107883a 	add	r3,r2,r4
    3f7c:	290b883a 	add	r5,r5,r4
    3f80:	5a801e2e 	bgeu	r11,r10,3ffc <memmove+0x154>
    3f84:	1813883a 	mov	r9,r3
    3f88:	2811883a 	mov	r8,r5
    3f8c:	500f883a 	mov	r7,r10
    3f90:	41000017 	ldw	r4,0(r8)
    3f94:	4a400104 	addi	r9,r9,4
    3f98:	39ffff04 	addi	r7,r7,-4
    3f9c:	493fff15 	stw	r4,-4(r9)
    3fa0:	42000104 	addi	r8,r8,4
    3fa4:	59fffa36 	bltu	r11,r7,3f90 <__alt_mem_Flash_flash_data+0xf4003f90>
    3fa8:	513fff04 	addi	r4,r10,-4
    3fac:	2008d0ba 	srli	r4,r4,2
    3fb0:	318000cc 	andi	r6,r6,3
    3fb4:	21000044 	addi	r4,r4,1
    3fb8:	2109883a 	add	r4,r4,r4
    3fbc:	2109883a 	add	r4,r4,r4
    3fc0:	1907883a 	add	r3,r3,r4
    3fc4:	290b883a 	add	r5,r5,r4
    3fc8:	30000926 	beq	r6,zero,3ff0 <memmove+0x148>
    3fcc:	198d883a 	add	r6,r3,r6
    3fd0:	29c00003 	ldbu	r7,0(r5)
    3fd4:	18c00044 	addi	r3,r3,1
    3fd8:	29400044 	addi	r5,r5,1
    3fdc:	19ffffc5 	stb	r7,-1(r3)
    3fe0:	19bffb1e 	bne	r3,r6,3fd0 <__alt_mem_Flash_flash_data+0xf4003fd0>
    3fe4:	f800283a 	ret
    3fe8:	1007883a 	mov	r3,r2
    3fec:	003ff606 	br	3fc8 <__alt_mem_Flash_flash_data+0xf4003fc8>
    3ff0:	f800283a 	ret
    3ff4:	1007883a 	mov	r3,r2
    3ff8:	003ff406 	br	3fcc <__alt_mem_Flash_flash_data+0xf4003fcc>
    3ffc:	500d883a 	mov	r6,r10
    4000:	003ff106 	br	3fc8 <__alt_mem_Flash_flash_data+0xf4003fc8>

00004004 <_realloc_r>:
    4004:	defff604 	addi	sp,sp,-40
    4008:	dd000415 	stw	r20,16(sp)
    400c:	dc400115 	stw	r17,4(sp)
    4010:	dfc00915 	stw	ra,36(sp)
    4014:	df000815 	stw	fp,32(sp)
    4018:	ddc00715 	stw	r23,28(sp)
    401c:	dd800615 	stw	r22,24(sp)
    4020:	dd400515 	stw	r21,20(sp)
    4024:	dcc00315 	stw	r19,12(sp)
    4028:	dc800215 	stw	r18,8(sp)
    402c:	dc000015 	stw	r16,0(sp)
    4030:	2829883a 	mov	r20,r5
    4034:	3023883a 	mov	r17,r6
    4038:	2800ad26 	beq	r5,zero,42f0 <_realloc_r+0x2ec>
    403c:	2025883a 	mov	r18,r4
    4040:	000661c0 	call	661c <__malloc_lock>
    4044:	a0ffff17 	ldw	r3,-4(r20)
    4048:	043fff04 	movi	r16,-4
    404c:	890002c4 	addi	r4,r17,11
    4050:	01c00584 	movi	r7,22
    4054:	a57ffe04 	addi	r21,r20,-8
    4058:	1c20703a 	and	r16,r3,r16
    405c:	39001d2e 	bgeu	r7,r4,40d4 <_realloc_r+0xd0>
    4060:	05bffe04 	movi	r22,-8
    4064:	25ac703a 	and	r22,r4,r22
    4068:	b00f883a 	mov	r7,r22
    406c:	b0006516 	blt	r22,zero,4204 <_realloc_r+0x200>
    4070:	b4406436 	bltu	r22,r17,4204 <_realloc_r+0x200>
    4074:	81c01a0e 	bge	r16,r7,40e0 <_realloc_r+0xdc>
    4078:	07000074 	movhi	fp,1
    407c:	e70dd704 	addi	fp,fp,14172
    4080:	e1400217 	ldw	r5,8(fp)
    4084:	ac11883a 	add	r8,r21,r16
    4088:	2a006226 	beq	r5,r8,4214 <_realloc_r+0x210>
    408c:	41800117 	ldw	r6,4(r8)
    4090:	027fff84 	movi	r9,-2
    4094:	3252703a 	and	r9,r6,r9
    4098:	4253883a 	add	r9,r8,r9
    409c:	49000117 	ldw	r4,4(r9)
    40a0:	2100004c 	andi	r4,r4,1
    40a4:	2000281e 	bne	r4,zero,4148 <_realloc_r+0x144>
    40a8:	00bfff04 	movi	r2,-4
    40ac:	3084703a 	and	r2,r6,r2
    40b0:	1409883a 	add	r4,r2,r16
    40b4:	21c05e16 	blt	r4,r7,4230 <_realloc_r+0x22c>
    40b8:	40800317 	ldw	r2,12(r8)
    40bc:	41400217 	ldw	r5,8(r8)
    40c0:	a023883a 	mov	r17,r20
    40c4:	2021883a 	mov	r16,r4
    40c8:	28800315 	stw	r2,12(r5)
    40cc:	11400215 	stw	r5,8(r2)
    40d0:	00000406 	br	40e4 <_realloc_r+0xe0>
    40d4:	01c00404 	movi	r7,16
    40d8:	382d883a 	mov	r22,r7
    40dc:	003fe406 	br	4070 <__alt_mem_Flash_flash_data+0xf4004070>
    40e0:	a023883a 	mov	r17,r20
    40e4:	858fc83a 	sub	r7,r16,r22
    40e8:	008003c4 	movi	r2,15
    40ec:	18c0004c 	andi	r3,r3,1
    40f0:	11c07236 	bltu	r2,r7,42bc <_realloc_r+0x2b8>
    40f4:	1c06b03a 	or	r3,r3,r16
    40f8:	a8c00115 	stw	r3,4(r21)
    40fc:	ac21883a 	add	r16,r21,r16
    4100:	80800117 	ldw	r2,4(r16)
    4104:	10800054 	ori	r2,r2,1
    4108:	80800115 	stw	r2,4(r16)
    410c:	9009883a 	mov	r4,r18
    4110:	000673c0 	call	673c <__malloc_unlock>
    4114:	8805883a 	mov	r2,r17
    4118:	dfc00917 	ldw	ra,36(sp)
    411c:	df000817 	ldw	fp,32(sp)
    4120:	ddc00717 	ldw	r23,28(sp)
    4124:	dd800617 	ldw	r22,24(sp)
    4128:	dd400517 	ldw	r21,20(sp)
    412c:	dd000417 	ldw	r20,16(sp)
    4130:	dcc00317 	ldw	r19,12(sp)
    4134:	dc800217 	ldw	r18,8(sp)
    4138:	dc400117 	ldw	r17,4(sp)
    413c:	dc000017 	ldw	r16,0(sp)
    4140:	dec00a04 	addi	sp,sp,40
    4144:	f800283a 	ret
    4148:	18c0004c 	andi	r3,r3,1
    414c:	1800081e 	bne	r3,zero,4170 <_realloc_r+0x16c>
    4150:	a4fffe17 	ldw	r19,-8(r20)
    4154:	00bfff04 	movi	r2,-4
    4158:	ace7c83a 	sub	r19,r21,r19
    415c:	98c00117 	ldw	r3,4(r19)
    4160:	1886703a 	and	r3,r3,r2
    4164:	98000226 	beq	r19,zero,4170 <_realloc_r+0x16c>
    4168:	1c2f883a 	add	r23,r3,r16
    416c:	b9c06d0e 	bge	r23,r7,4324 <_realloc_r+0x320>
    4170:	880b883a 	mov	r5,r17
    4174:	9009883a 	mov	r4,r18
    4178:	00034e00 	call	34e0 <_malloc_r>
    417c:	1023883a 	mov	r17,r2
    4180:	1000ef26 	beq	r2,zero,4540 <_realloc_r+0x53c>
    4184:	a0ffff17 	ldw	r3,-4(r20)
    4188:	113ffe04 	addi	r4,r2,-8
    418c:	00bfff84 	movi	r2,-2
    4190:	1884703a 	and	r2,r3,r2
    4194:	a885883a 	add	r2,r21,r2
    4198:	2080bf26 	beq	r4,r2,4498 <_realloc_r+0x494>
    419c:	81bfff04 	addi	r6,r16,-4
    41a0:	00800904 	movi	r2,36
    41a4:	11808936 	bltu	r2,r6,43cc <_realloc_r+0x3c8>
    41a8:	00c004c4 	movi	r3,19
    41ac:	19806c2e 	bgeu	r3,r6,4360 <_realloc_r+0x35c>
    41b0:	a0c00017 	ldw	r3,0(r20)
    41b4:	88c00015 	stw	r3,0(r17)
    41b8:	a0c00117 	ldw	r3,4(r20)
    41bc:	88c00115 	stw	r3,4(r17)
    41c0:	00c006c4 	movi	r3,27
    41c4:	1980ac36 	bltu	r3,r6,4478 <_realloc_r+0x474>
    41c8:	88800204 	addi	r2,r17,8
    41cc:	a0c00204 	addi	r3,r20,8
    41d0:	19000017 	ldw	r4,0(r3)
    41d4:	11000015 	stw	r4,0(r2)
    41d8:	19000117 	ldw	r4,4(r3)
    41dc:	11000115 	stw	r4,4(r2)
    41e0:	18c00217 	ldw	r3,8(r3)
    41e4:	10c00215 	stw	r3,8(r2)
    41e8:	a00b883a 	mov	r5,r20
    41ec:	9009883a 	mov	r4,r18
    41f0:	0004e6c0 	call	4e6c <_free_r>
    41f4:	9009883a 	mov	r4,r18
    41f8:	000673c0 	call	673c <__malloc_unlock>
    41fc:	8805883a 	mov	r2,r17
    4200:	003fc506 	br	4118 <__alt_mem_Flash_flash_data+0xf4004118>
    4204:	00800304 	movi	r2,12
    4208:	90800015 	stw	r2,0(r18)
    420c:	0005883a 	mov	r2,zero
    4210:	003fc106 	br	4118 <__alt_mem_Flash_flash_data+0xf4004118>
    4214:	29800117 	ldw	r6,4(r5)
    4218:	00bfff04 	movi	r2,-4
    421c:	b1000404 	addi	r4,r22,16
    4220:	3084703a 	and	r2,r6,r2
    4224:	140d883a 	add	r6,r2,r16
    4228:	31005b0e 	bge	r6,r4,4398 <_realloc_r+0x394>
    422c:	2811883a 	mov	r8,r5
    4230:	18c0004c 	andi	r3,r3,1
    4234:	183fce1e 	bne	r3,zero,4170 <__alt_mem_Flash_flash_data+0xf4004170>
    4238:	a4fffe17 	ldw	r19,-8(r20)
    423c:	00ffff04 	movi	r3,-4
    4240:	ace7c83a 	sub	r19,r21,r19
    4244:	99000117 	ldw	r4,4(r19)
    4248:	20c6703a 	and	r3,r4,r3
    424c:	403fc526 	beq	r8,zero,4164 <__alt_mem_Flash_flash_data+0xf4004164>
    4250:	1c2f883a 	add	r23,r3,r16
    4254:	b8af883a 	add	r23,r23,r2
    4258:	41406026 	beq	r8,r5,43dc <_realloc_r+0x3d8>
    425c:	b9ffc116 	blt	r23,r7,4164 <__alt_mem_Flash_flash_data+0xf4004164>
    4260:	40c00217 	ldw	r3,8(r8)
    4264:	40800317 	ldw	r2,12(r8)
    4268:	81bfff04 	addi	r6,r16,-4
    426c:	01000904 	movi	r4,36
    4270:	18800315 	stw	r2,12(r3)
    4274:	10c00215 	stw	r3,8(r2)
    4278:	99400217 	ldw	r5,8(r19)
    427c:	98c00317 	ldw	r3,12(r19)
    4280:	9c400204 	addi	r17,r19,8
    4284:	28c00315 	stw	r3,12(r5)
    4288:	19400215 	stw	r5,8(r3)
    428c:	21802d36 	bltu	r4,r6,4344 <_realloc_r+0x340>
    4290:	008004c4 	movi	r2,19
    4294:	1180352e 	bgeu	r2,r6,436c <_realloc_r+0x368>
    4298:	a0800017 	ldw	r2,0(r20)
    429c:	98800215 	stw	r2,8(r19)
    42a0:	a0800117 	ldw	r2,4(r20)
    42a4:	98800315 	stw	r2,12(r19)
    42a8:	008006c4 	movi	r2,27
    42ac:	11808036 	bltu	r2,r6,44b0 <_realloc_r+0x4ac>
    42b0:	98c00404 	addi	r3,r19,16
    42b4:	a5000204 	addi	r20,r20,8
    42b8:	00002d06 	br	4370 <_realloc_r+0x36c>
    42bc:	1d86b03a 	or	r3,r3,r22
    42c0:	ad8b883a 	add	r5,r21,r22
    42c4:	a8c00115 	stw	r3,4(r21)
    42c8:	38800054 	ori	r2,r7,1
    42cc:	28800115 	stw	r2,4(r5)
    42d0:	29cf883a 	add	r7,r5,r7
    42d4:	38800117 	ldw	r2,4(r7)
    42d8:	9009883a 	mov	r4,r18
    42dc:	29400204 	addi	r5,r5,8
    42e0:	10800054 	ori	r2,r2,1
    42e4:	38800115 	stw	r2,4(r7)
    42e8:	0004e6c0 	call	4e6c <_free_r>
    42ec:	003f8706 	br	410c <__alt_mem_Flash_flash_data+0xf400410c>
    42f0:	300b883a 	mov	r5,r6
    42f4:	dfc00917 	ldw	ra,36(sp)
    42f8:	df000817 	ldw	fp,32(sp)
    42fc:	ddc00717 	ldw	r23,28(sp)
    4300:	dd800617 	ldw	r22,24(sp)
    4304:	dd400517 	ldw	r21,20(sp)
    4308:	dd000417 	ldw	r20,16(sp)
    430c:	dcc00317 	ldw	r19,12(sp)
    4310:	dc800217 	ldw	r18,8(sp)
    4314:	dc400117 	ldw	r17,4(sp)
    4318:	dc000017 	ldw	r16,0(sp)
    431c:	dec00a04 	addi	sp,sp,40
    4320:	00034e01 	jmpi	34e0 <_malloc_r>
    4324:	98800317 	ldw	r2,12(r19)
    4328:	98c00217 	ldw	r3,8(r19)
    432c:	81bfff04 	addi	r6,r16,-4
    4330:	01000904 	movi	r4,36
    4334:	18800315 	stw	r2,12(r3)
    4338:	10c00215 	stw	r3,8(r2)
    433c:	9c400204 	addi	r17,r19,8
    4340:	21bfd32e 	bgeu	r4,r6,4290 <__alt_mem_Flash_flash_data+0xf4004290>
    4344:	8809883a 	mov	r4,r17
    4348:	a00b883a 	mov	r5,r20
    434c:	0003ea80 	call	3ea8 <memmove>
    4350:	98c00117 	ldw	r3,4(r19)
    4354:	b821883a 	mov	r16,r23
    4358:	982b883a 	mov	r21,r19
    435c:	003f6106 	br	40e4 <__alt_mem_Flash_flash_data+0xf40040e4>
    4360:	8805883a 	mov	r2,r17
    4364:	a007883a 	mov	r3,r20
    4368:	003f9906 	br	41d0 <__alt_mem_Flash_flash_data+0xf40041d0>
    436c:	8807883a 	mov	r3,r17
    4370:	a0800017 	ldw	r2,0(r20)
    4374:	b821883a 	mov	r16,r23
    4378:	982b883a 	mov	r21,r19
    437c:	18800015 	stw	r2,0(r3)
    4380:	a0800117 	ldw	r2,4(r20)
    4384:	18800115 	stw	r2,4(r3)
    4388:	a0800217 	ldw	r2,8(r20)
    438c:	18800215 	stw	r2,8(r3)
    4390:	98c00117 	ldw	r3,4(r19)
    4394:	003f5306 	br	40e4 <__alt_mem_Flash_flash_data+0xf40040e4>
    4398:	adab883a 	add	r21,r21,r22
    439c:	3585c83a 	sub	r2,r6,r22
    43a0:	e5400215 	stw	r21,8(fp)
    43a4:	10800054 	ori	r2,r2,1
    43a8:	a8800115 	stw	r2,4(r21)
    43ac:	a0bfff17 	ldw	r2,-4(r20)
    43b0:	9009883a 	mov	r4,r18
    43b4:	1080004c 	andi	r2,r2,1
    43b8:	b0acb03a 	or	r22,r22,r2
    43bc:	a5bfff15 	stw	r22,-4(r20)
    43c0:	000673c0 	call	673c <__malloc_unlock>
    43c4:	a005883a 	mov	r2,r20
    43c8:	003f5306 	br	4118 <__alt_mem_Flash_flash_data+0xf4004118>
    43cc:	8809883a 	mov	r4,r17
    43d0:	a00b883a 	mov	r5,r20
    43d4:	0003ea80 	call	3ea8 <memmove>
    43d8:	003f8306 	br	41e8 <__alt_mem_Flash_flash_data+0xf40041e8>
    43dc:	b0800404 	addi	r2,r22,16
    43e0:	b8bf6016 	blt	r23,r2,4164 <__alt_mem_Flash_flash_data+0xf4004164>
    43e4:	98800317 	ldw	r2,12(r19)
    43e8:	98c00217 	ldw	r3,8(r19)
    43ec:	81bfff04 	addi	r6,r16,-4
    43f0:	01000904 	movi	r4,36
    43f4:	18800315 	stw	r2,12(r3)
    43f8:	10c00215 	stw	r3,8(r2)
    43fc:	9c400204 	addi	r17,r19,8
    4400:	21804336 	bltu	r4,r6,4510 <_realloc_r+0x50c>
    4404:	008004c4 	movi	r2,19
    4408:	11803f2e 	bgeu	r2,r6,4508 <_realloc_r+0x504>
    440c:	a0800017 	ldw	r2,0(r20)
    4410:	98800215 	stw	r2,8(r19)
    4414:	a0800117 	ldw	r2,4(r20)
    4418:	98800315 	stw	r2,12(r19)
    441c:	008006c4 	movi	r2,27
    4420:	11803f36 	bltu	r2,r6,4520 <_realloc_r+0x51c>
    4424:	98800404 	addi	r2,r19,16
    4428:	a5000204 	addi	r20,r20,8
    442c:	a0c00017 	ldw	r3,0(r20)
    4430:	10c00015 	stw	r3,0(r2)
    4434:	a0c00117 	ldw	r3,4(r20)
    4438:	10c00115 	stw	r3,4(r2)
    443c:	a0c00217 	ldw	r3,8(r20)
    4440:	10c00215 	stw	r3,8(r2)
    4444:	9d87883a 	add	r3,r19,r22
    4448:	bd85c83a 	sub	r2,r23,r22
    444c:	e0c00215 	stw	r3,8(fp)
    4450:	10800054 	ori	r2,r2,1
    4454:	18800115 	stw	r2,4(r3)
    4458:	98800117 	ldw	r2,4(r19)
    445c:	9009883a 	mov	r4,r18
    4460:	1080004c 	andi	r2,r2,1
    4464:	b0acb03a 	or	r22,r22,r2
    4468:	9d800115 	stw	r22,4(r19)
    446c:	000673c0 	call	673c <__malloc_unlock>
    4470:	8805883a 	mov	r2,r17
    4474:	003f2806 	br	4118 <__alt_mem_Flash_flash_data+0xf4004118>
    4478:	a0c00217 	ldw	r3,8(r20)
    447c:	88c00215 	stw	r3,8(r17)
    4480:	a0c00317 	ldw	r3,12(r20)
    4484:	88c00315 	stw	r3,12(r17)
    4488:	30801126 	beq	r6,r2,44d0 <_realloc_r+0x4cc>
    448c:	88800404 	addi	r2,r17,16
    4490:	a0c00404 	addi	r3,r20,16
    4494:	003f4e06 	br	41d0 <__alt_mem_Flash_flash_data+0xf40041d0>
    4498:	893fff17 	ldw	r4,-4(r17)
    449c:	00bfff04 	movi	r2,-4
    44a0:	a023883a 	mov	r17,r20
    44a4:	2084703a 	and	r2,r4,r2
    44a8:	80a1883a 	add	r16,r16,r2
    44ac:	003f0d06 	br	40e4 <__alt_mem_Flash_flash_data+0xf40040e4>
    44b0:	a0800217 	ldw	r2,8(r20)
    44b4:	98800415 	stw	r2,16(r19)
    44b8:	a0800317 	ldw	r2,12(r20)
    44bc:	98800515 	stw	r2,20(r19)
    44c0:	31000a26 	beq	r6,r4,44ec <_realloc_r+0x4e8>
    44c4:	98c00604 	addi	r3,r19,24
    44c8:	a5000404 	addi	r20,r20,16
    44cc:	003fa806 	br	4370 <__alt_mem_Flash_flash_data+0xf4004370>
    44d0:	a1000417 	ldw	r4,16(r20)
    44d4:	88800604 	addi	r2,r17,24
    44d8:	a0c00604 	addi	r3,r20,24
    44dc:	89000415 	stw	r4,16(r17)
    44e0:	a1000517 	ldw	r4,20(r20)
    44e4:	89000515 	stw	r4,20(r17)
    44e8:	003f3906 	br	41d0 <__alt_mem_Flash_flash_data+0xf40041d0>
    44ec:	a0800417 	ldw	r2,16(r20)
    44f0:	a5000604 	addi	r20,r20,24
    44f4:	98c00804 	addi	r3,r19,32
    44f8:	98800615 	stw	r2,24(r19)
    44fc:	a0bfff17 	ldw	r2,-4(r20)
    4500:	98800715 	stw	r2,28(r19)
    4504:	003f9a06 	br	4370 <__alt_mem_Flash_flash_data+0xf4004370>
    4508:	8805883a 	mov	r2,r17
    450c:	003fc706 	br	442c <__alt_mem_Flash_flash_data+0xf400442c>
    4510:	8809883a 	mov	r4,r17
    4514:	a00b883a 	mov	r5,r20
    4518:	0003ea80 	call	3ea8 <memmove>
    451c:	003fc906 	br	4444 <__alt_mem_Flash_flash_data+0xf4004444>
    4520:	a0800217 	ldw	r2,8(r20)
    4524:	98800415 	stw	r2,16(r19)
    4528:	a0800317 	ldw	r2,12(r20)
    452c:	98800515 	stw	r2,20(r19)
    4530:	31000726 	beq	r6,r4,4550 <_realloc_r+0x54c>
    4534:	98800604 	addi	r2,r19,24
    4538:	a5000404 	addi	r20,r20,16
    453c:	003fbb06 	br	442c <__alt_mem_Flash_flash_data+0xf400442c>
    4540:	9009883a 	mov	r4,r18
    4544:	000673c0 	call	673c <__malloc_unlock>
    4548:	0005883a 	mov	r2,zero
    454c:	003ef206 	br	4118 <__alt_mem_Flash_flash_data+0xf4004118>
    4550:	a0c00417 	ldw	r3,16(r20)
    4554:	a5000604 	addi	r20,r20,24
    4558:	98800804 	addi	r2,r19,32
    455c:	98c00615 	stw	r3,24(r19)
    4560:	a0ffff17 	ldw	r3,-4(r20)
    4564:	98c00715 	stw	r3,28(r19)
    4568:	003fb006 	br	442c <__alt_mem_Flash_flash_data+0xf400442c>

0000456c <_sbrk_r>:
    456c:	defffd04 	addi	sp,sp,-12
    4570:	dc000015 	stw	r16,0(sp)
    4574:	04000074 	movhi	r16,1
    4578:	dc400115 	stw	r17,4(sp)
    457c:	841c4a04 	addi	r16,r16,28968
    4580:	2023883a 	mov	r17,r4
    4584:	2809883a 	mov	r4,r5
    4588:	dfc00215 	stw	ra,8(sp)
    458c:	80000015 	stw	zero,0(r16)
    4590:	00063080 	call	6308 <sbrk>
    4594:	00ffffc4 	movi	r3,-1
    4598:	10c00526 	beq	r2,r3,45b0 <_sbrk_r+0x44>
    459c:	dfc00217 	ldw	ra,8(sp)
    45a0:	dc400117 	ldw	r17,4(sp)
    45a4:	dc000017 	ldw	r16,0(sp)
    45a8:	dec00304 	addi	sp,sp,12
    45ac:	f800283a 	ret
    45b0:	80c00017 	ldw	r3,0(r16)
    45b4:	183ff926 	beq	r3,zero,459c <__alt_mem_Flash_flash_data+0xf400459c>
    45b8:	88c00015 	stw	r3,0(r17)
    45bc:	003ff706 	br	459c <__alt_mem_Flash_flash_data+0xf400459c>

000045c0 <__swsetup_r>:
    45c0:	00800074 	movhi	r2,1
    45c4:	defffd04 	addi	sp,sp,-12
    45c8:	10944d04 	addi	r2,r2,20788
    45cc:	dc400115 	stw	r17,4(sp)
    45d0:	2023883a 	mov	r17,r4
    45d4:	11000017 	ldw	r4,0(r2)
    45d8:	dc000015 	stw	r16,0(sp)
    45dc:	dfc00215 	stw	ra,8(sp)
    45e0:	2821883a 	mov	r16,r5
    45e4:	20000226 	beq	r4,zero,45f0 <__swsetup_r+0x30>
    45e8:	20c00e17 	ldw	r3,56(r4)
    45ec:	18003126 	beq	r3,zero,46b4 <__swsetup_r+0xf4>
    45f0:	8080030b 	ldhu	r2,12(r16)
    45f4:	10c0020c 	andi	r3,r2,8
    45f8:	100d883a 	mov	r6,r2
    45fc:	18000f26 	beq	r3,zero,463c <__swsetup_r+0x7c>
    4600:	80c00417 	ldw	r3,16(r16)
    4604:	18001526 	beq	r3,zero,465c <__swsetup_r+0x9c>
    4608:	1100004c 	andi	r4,r2,1
    460c:	20001c1e 	bne	r4,zero,4680 <__swsetup_r+0xc0>
    4610:	1080008c 	andi	r2,r2,2
    4614:	1000291e 	bne	r2,zero,46bc <__swsetup_r+0xfc>
    4618:	80800517 	ldw	r2,20(r16)
    461c:	80800215 	stw	r2,8(r16)
    4620:	18001c26 	beq	r3,zero,4694 <__swsetup_r+0xd4>
    4624:	0005883a 	mov	r2,zero
    4628:	dfc00217 	ldw	ra,8(sp)
    462c:	dc400117 	ldw	r17,4(sp)
    4630:	dc000017 	ldw	r16,0(sp)
    4634:	dec00304 	addi	sp,sp,12
    4638:	f800283a 	ret
    463c:	3080040c 	andi	r2,r6,16
    4640:	10002e26 	beq	r2,zero,46fc <__swsetup_r+0x13c>
    4644:	3080010c 	andi	r2,r6,4
    4648:	10001e1e 	bne	r2,zero,46c4 <__swsetup_r+0x104>
    464c:	80c00417 	ldw	r3,16(r16)
    4650:	30800214 	ori	r2,r6,8
    4654:	8080030d 	sth	r2,12(r16)
    4658:	183feb1e 	bne	r3,zero,4608 <__alt_mem_Flash_flash_data+0xf4004608>
    465c:	1140a00c 	andi	r5,r2,640
    4660:	01008004 	movi	r4,512
    4664:	293fe826 	beq	r5,r4,4608 <__alt_mem_Flash_flash_data+0xf4004608>
    4668:	8809883a 	mov	r4,r17
    466c:	800b883a 	mov	r5,r16
    4670:	00052e40 	call	52e4 <__smakebuf_r>
    4674:	8080030b 	ldhu	r2,12(r16)
    4678:	80c00417 	ldw	r3,16(r16)
    467c:	003fe206 	br	4608 <__alt_mem_Flash_flash_data+0xf4004608>
    4680:	80800517 	ldw	r2,20(r16)
    4684:	80000215 	stw	zero,8(r16)
    4688:	0085c83a 	sub	r2,zero,r2
    468c:	80800615 	stw	r2,24(r16)
    4690:	183fe41e 	bne	r3,zero,4624 <__alt_mem_Flash_flash_data+0xf4004624>
    4694:	80c0030b 	ldhu	r3,12(r16)
    4698:	0005883a 	mov	r2,zero
    469c:	1900200c 	andi	r4,r3,128
    46a0:	203fe126 	beq	r4,zero,4628 <__alt_mem_Flash_flash_data+0xf4004628>
    46a4:	18c01014 	ori	r3,r3,64
    46a8:	80c0030d 	sth	r3,12(r16)
    46ac:	00bfffc4 	movi	r2,-1
    46b0:	003fdd06 	br	4628 <__alt_mem_Flash_flash_data+0xf4004628>
    46b4:	0004cf80 	call	4cf8 <__sinit>
    46b8:	003fcd06 	br	45f0 <__alt_mem_Flash_flash_data+0xf40045f0>
    46bc:	0005883a 	mov	r2,zero
    46c0:	003fd606 	br	461c <__alt_mem_Flash_flash_data+0xf400461c>
    46c4:	81400c17 	ldw	r5,48(r16)
    46c8:	28000626 	beq	r5,zero,46e4 <__swsetup_r+0x124>
    46cc:	80801004 	addi	r2,r16,64
    46d0:	28800326 	beq	r5,r2,46e0 <__swsetup_r+0x120>
    46d4:	8809883a 	mov	r4,r17
    46d8:	0004e6c0 	call	4e6c <_free_r>
    46dc:	8180030b 	ldhu	r6,12(r16)
    46e0:	80000c15 	stw	zero,48(r16)
    46e4:	80c00417 	ldw	r3,16(r16)
    46e8:	00bff6c4 	movi	r2,-37
    46ec:	118c703a 	and	r6,r2,r6
    46f0:	80000115 	stw	zero,4(r16)
    46f4:	80c00015 	stw	r3,0(r16)
    46f8:	003fd506 	br	4650 <__alt_mem_Flash_flash_data+0xf4004650>
    46fc:	00800244 	movi	r2,9
    4700:	88800015 	stw	r2,0(r17)
    4704:	30801014 	ori	r2,r6,64
    4708:	8080030d 	sth	r2,12(r16)
    470c:	00bfffc4 	movi	r2,-1
    4710:	003fc506 	br	4628 <__alt_mem_Flash_flash_data+0xf4004628>

00004714 <__sflush_r>:
    4714:	2880030b 	ldhu	r2,12(r5)
    4718:	defffb04 	addi	sp,sp,-20
    471c:	dcc00315 	stw	r19,12(sp)
    4720:	dc400115 	stw	r17,4(sp)
    4724:	dfc00415 	stw	ra,16(sp)
    4728:	dc800215 	stw	r18,8(sp)
    472c:	dc000015 	stw	r16,0(sp)
    4730:	10c0020c 	andi	r3,r2,8
    4734:	2823883a 	mov	r17,r5
    4738:	2027883a 	mov	r19,r4
    473c:	1800311e 	bne	r3,zero,4804 <__sflush_r+0xf0>
    4740:	28c00117 	ldw	r3,4(r5)
    4744:	10820014 	ori	r2,r2,2048
    4748:	2880030d 	sth	r2,12(r5)
    474c:	00c04b0e 	bge	zero,r3,487c <__sflush_r+0x168>
    4750:	8a000a17 	ldw	r8,40(r17)
    4754:	40002326 	beq	r8,zero,47e4 <__sflush_r+0xd0>
    4758:	9c000017 	ldw	r16,0(r19)
    475c:	10c4000c 	andi	r3,r2,4096
    4760:	98000015 	stw	zero,0(r19)
    4764:	18004826 	beq	r3,zero,4888 <__sflush_r+0x174>
    4768:	89801417 	ldw	r6,80(r17)
    476c:	10c0010c 	andi	r3,r2,4
    4770:	18000626 	beq	r3,zero,478c <__sflush_r+0x78>
    4774:	88c00117 	ldw	r3,4(r17)
    4778:	88800c17 	ldw	r2,48(r17)
    477c:	30cdc83a 	sub	r6,r6,r3
    4780:	10000226 	beq	r2,zero,478c <__sflush_r+0x78>
    4784:	88800f17 	ldw	r2,60(r17)
    4788:	308dc83a 	sub	r6,r6,r2
    478c:	89400717 	ldw	r5,28(r17)
    4790:	9809883a 	mov	r4,r19
    4794:	000f883a 	mov	r7,zero
    4798:	403ee83a 	callr	r8
    479c:	00ffffc4 	movi	r3,-1
    47a0:	10c04426 	beq	r2,r3,48b4 <__sflush_r+0x1a0>
    47a4:	88c0030b 	ldhu	r3,12(r17)
    47a8:	89000417 	ldw	r4,16(r17)
    47ac:	88000115 	stw	zero,4(r17)
    47b0:	197dffcc 	andi	r5,r3,63487
    47b4:	8940030d 	sth	r5,12(r17)
    47b8:	89000015 	stw	r4,0(r17)
    47bc:	18c4000c 	andi	r3,r3,4096
    47c0:	18002c1e 	bne	r3,zero,4874 <__sflush_r+0x160>
    47c4:	89400c17 	ldw	r5,48(r17)
    47c8:	9c000015 	stw	r16,0(r19)
    47cc:	28000526 	beq	r5,zero,47e4 <__sflush_r+0xd0>
    47d0:	88801004 	addi	r2,r17,64
    47d4:	28800226 	beq	r5,r2,47e0 <__sflush_r+0xcc>
    47d8:	9809883a 	mov	r4,r19
    47dc:	0004e6c0 	call	4e6c <_free_r>
    47e0:	88000c15 	stw	zero,48(r17)
    47e4:	0005883a 	mov	r2,zero
    47e8:	dfc00417 	ldw	ra,16(sp)
    47ec:	dcc00317 	ldw	r19,12(sp)
    47f0:	dc800217 	ldw	r18,8(sp)
    47f4:	dc400117 	ldw	r17,4(sp)
    47f8:	dc000017 	ldw	r16,0(sp)
    47fc:	dec00504 	addi	sp,sp,20
    4800:	f800283a 	ret
    4804:	2c800417 	ldw	r18,16(r5)
    4808:	903ff626 	beq	r18,zero,47e4 <__alt_mem_Flash_flash_data+0xf40047e4>
    480c:	2c000017 	ldw	r16,0(r5)
    4810:	108000cc 	andi	r2,r2,3
    4814:	2c800015 	stw	r18,0(r5)
    4818:	84a1c83a 	sub	r16,r16,r18
    481c:	1000131e 	bne	r2,zero,486c <__sflush_r+0x158>
    4820:	28800517 	ldw	r2,20(r5)
    4824:	88800215 	stw	r2,8(r17)
    4828:	04000316 	blt	zero,r16,4838 <__sflush_r+0x124>
    482c:	003fed06 	br	47e4 <__alt_mem_Flash_flash_data+0xf40047e4>
    4830:	90a5883a 	add	r18,r18,r2
    4834:	043feb0e 	bge	zero,r16,47e4 <__alt_mem_Flash_flash_data+0xf40047e4>
    4838:	88800917 	ldw	r2,36(r17)
    483c:	89400717 	ldw	r5,28(r17)
    4840:	800f883a 	mov	r7,r16
    4844:	900d883a 	mov	r6,r18
    4848:	9809883a 	mov	r4,r19
    484c:	103ee83a 	callr	r2
    4850:	80a1c83a 	sub	r16,r16,r2
    4854:	00bff616 	blt	zero,r2,4830 <__alt_mem_Flash_flash_data+0xf4004830>
    4858:	88c0030b 	ldhu	r3,12(r17)
    485c:	00bfffc4 	movi	r2,-1
    4860:	18c01014 	ori	r3,r3,64
    4864:	88c0030d 	sth	r3,12(r17)
    4868:	003fdf06 	br	47e8 <__alt_mem_Flash_flash_data+0xf40047e8>
    486c:	0005883a 	mov	r2,zero
    4870:	003fec06 	br	4824 <__alt_mem_Flash_flash_data+0xf4004824>
    4874:	88801415 	stw	r2,80(r17)
    4878:	003fd206 	br	47c4 <__alt_mem_Flash_flash_data+0xf40047c4>
    487c:	28c00f17 	ldw	r3,60(r5)
    4880:	00ffb316 	blt	zero,r3,4750 <__alt_mem_Flash_flash_data+0xf4004750>
    4884:	003fd706 	br	47e4 <__alt_mem_Flash_flash_data+0xf40047e4>
    4888:	89400717 	ldw	r5,28(r17)
    488c:	000d883a 	mov	r6,zero
    4890:	9809883a 	mov	r4,r19
    4894:	01c00044 	movi	r7,1
    4898:	403ee83a 	callr	r8
    489c:	100d883a 	mov	r6,r2
    48a0:	00bfffc4 	movi	r2,-1
    48a4:	30801426 	beq	r6,r2,48f8 <__sflush_r+0x1e4>
    48a8:	8880030b 	ldhu	r2,12(r17)
    48ac:	8a000a17 	ldw	r8,40(r17)
    48b0:	003fae06 	br	476c <__alt_mem_Flash_flash_data+0xf400476c>
    48b4:	98c00017 	ldw	r3,0(r19)
    48b8:	183fba26 	beq	r3,zero,47a4 <__alt_mem_Flash_flash_data+0xf40047a4>
    48bc:	01000744 	movi	r4,29
    48c0:	19000626 	beq	r3,r4,48dc <__sflush_r+0x1c8>
    48c4:	01000584 	movi	r4,22
    48c8:	19000426 	beq	r3,r4,48dc <__sflush_r+0x1c8>
    48cc:	88c0030b 	ldhu	r3,12(r17)
    48d0:	18c01014 	ori	r3,r3,64
    48d4:	88c0030d 	sth	r3,12(r17)
    48d8:	003fc306 	br	47e8 <__alt_mem_Flash_flash_data+0xf40047e8>
    48dc:	8880030b 	ldhu	r2,12(r17)
    48e0:	88c00417 	ldw	r3,16(r17)
    48e4:	88000115 	stw	zero,4(r17)
    48e8:	10bdffcc 	andi	r2,r2,63487
    48ec:	8880030d 	sth	r2,12(r17)
    48f0:	88c00015 	stw	r3,0(r17)
    48f4:	003fb306 	br	47c4 <__alt_mem_Flash_flash_data+0xf40047c4>
    48f8:	98800017 	ldw	r2,0(r19)
    48fc:	103fea26 	beq	r2,zero,48a8 <__alt_mem_Flash_flash_data+0xf40048a8>
    4900:	00c00744 	movi	r3,29
    4904:	10c00226 	beq	r2,r3,4910 <__sflush_r+0x1fc>
    4908:	00c00584 	movi	r3,22
    490c:	10ffd21e 	bne	r2,r3,4858 <__alt_mem_Flash_flash_data+0xf4004858>
    4910:	9c000015 	stw	r16,0(r19)
    4914:	0005883a 	mov	r2,zero
    4918:	003fb306 	br	47e8 <__alt_mem_Flash_flash_data+0xf40047e8>

0000491c <_fflush_r>:
    491c:	defffd04 	addi	sp,sp,-12
    4920:	dc000115 	stw	r16,4(sp)
    4924:	dfc00215 	stw	ra,8(sp)
    4928:	2021883a 	mov	r16,r4
    492c:	20000226 	beq	r4,zero,4938 <_fflush_r+0x1c>
    4930:	20800e17 	ldw	r2,56(r4)
    4934:	10000c26 	beq	r2,zero,4968 <_fflush_r+0x4c>
    4938:	2880030f 	ldh	r2,12(r5)
    493c:	1000051e 	bne	r2,zero,4954 <_fflush_r+0x38>
    4940:	0005883a 	mov	r2,zero
    4944:	dfc00217 	ldw	ra,8(sp)
    4948:	dc000117 	ldw	r16,4(sp)
    494c:	dec00304 	addi	sp,sp,12
    4950:	f800283a 	ret
    4954:	8009883a 	mov	r4,r16
    4958:	dfc00217 	ldw	ra,8(sp)
    495c:	dc000117 	ldw	r16,4(sp)
    4960:	dec00304 	addi	sp,sp,12
    4964:	00047141 	jmpi	4714 <__sflush_r>
    4968:	d9400015 	stw	r5,0(sp)
    496c:	0004cf80 	call	4cf8 <__sinit>
    4970:	d9400017 	ldw	r5,0(sp)
    4974:	003ff006 	br	4938 <__alt_mem_Flash_flash_data+0xf4004938>

00004978 <fflush>:
    4978:	20000526 	beq	r4,zero,4990 <fflush+0x18>
    497c:	00800074 	movhi	r2,1
    4980:	10944d04 	addi	r2,r2,20788
    4984:	200b883a 	mov	r5,r4
    4988:	11000017 	ldw	r4,0(r2)
    498c:	000491c1 	jmpi	491c <_fflush_r>
    4990:	00800074 	movhi	r2,1
    4994:	10944c04 	addi	r2,r2,20784
    4998:	11000017 	ldw	r4,0(r2)
    499c:	01400034 	movhi	r5,0
    49a0:	29524704 	addi	r5,r5,18716
    49a4:	00052201 	jmpi	5220 <_fwalk_reent>

000049a8 <__fp_lock>:
    49a8:	0005883a 	mov	r2,zero
    49ac:	f800283a 	ret

000049b0 <__fp_unlock>:
    49b0:	0005883a 	mov	r2,zero
    49b4:	f800283a 	ret

000049b8 <_cleanup_r>:
    49b8:	01400034 	movhi	r5,0
    49bc:	2955eb04 	addi	r5,r5,22444
    49c0:	00052201 	jmpi	5220 <_fwalk_reent>

000049c4 <__sinit.part.1>:
    49c4:	defff704 	addi	sp,sp,-36
    49c8:	00c00034 	movhi	r3,0
    49cc:	dfc00815 	stw	ra,32(sp)
    49d0:	ddc00715 	stw	r23,28(sp)
    49d4:	dd800615 	stw	r22,24(sp)
    49d8:	dd400515 	stw	r21,20(sp)
    49dc:	dd000415 	stw	r20,16(sp)
    49e0:	dcc00315 	stw	r19,12(sp)
    49e4:	dc800215 	stw	r18,8(sp)
    49e8:	dc400115 	stw	r17,4(sp)
    49ec:	dc000015 	stw	r16,0(sp)
    49f0:	18d26e04 	addi	r3,r3,18872
    49f4:	24000117 	ldw	r16,4(r4)
    49f8:	20c00f15 	stw	r3,60(r4)
    49fc:	2080bb04 	addi	r2,r4,748
    4a00:	00c000c4 	movi	r3,3
    4a04:	20c0b915 	stw	r3,740(r4)
    4a08:	2080ba15 	stw	r2,744(r4)
    4a0c:	2000b815 	stw	zero,736(r4)
    4a10:	05c00204 	movi	r23,8
    4a14:	00800104 	movi	r2,4
    4a18:	2025883a 	mov	r18,r4
    4a1c:	b80d883a 	mov	r6,r23
    4a20:	81001704 	addi	r4,r16,92
    4a24:	000b883a 	mov	r5,zero
    4a28:	80000015 	stw	zero,0(r16)
    4a2c:	80000115 	stw	zero,4(r16)
    4a30:	80000215 	stw	zero,8(r16)
    4a34:	8080030d 	sth	r2,12(r16)
    4a38:	80001915 	stw	zero,100(r16)
    4a3c:	8000038d 	sth	zero,14(r16)
    4a40:	80000415 	stw	zero,16(r16)
    4a44:	80000515 	stw	zero,20(r16)
    4a48:	80000615 	stw	zero,24(r16)
    4a4c:	000549c0 	call	549c <memset>
    4a50:	05800034 	movhi	r22,0
    4a54:	94400217 	ldw	r17,8(r18)
    4a58:	05400034 	movhi	r21,0
    4a5c:	05000034 	movhi	r20,0
    4a60:	04c00034 	movhi	r19,0
    4a64:	b5957004 	addi	r22,r22,21952
    4a68:	ad558704 	addi	r21,r21,22044
    4a6c:	a515a604 	addi	r20,r20,22168
    4a70:	9cd5bd04 	addi	r19,r19,22260
    4a74:	85800815 	stw	r22,32(r16)
    4a78:	85400915 	stw	r21,36(r16)
    4a7c:	85000a15 	stw	r20,40(r16)
    4a80:	84c00b15 	stw	r19,44(r16)
    4a84:	84000715 	stw	r16,28(r16)
    4a88:	00800284 	movi	r2,10
    4a8c:	8880030d 	sth	r2,12(r17)
    4a90:	00800044 	movi	r2,1
    4a94:	89001704 	addi	r4,r17,92
    4a98:	b80d883a 	mov	r6,r23
    4a9c:	000b883a 	mov	r5,zero
    4aa0:	88000015 	stw	zero,0(r17)
    4aa4:	88000115 	stw	zero,4(r17)
    4aa8:	88000215 	stw	zero,8(r17)
    4aac:	88001915 	stw	zero,100(r17)
    4ab0:	8880038d 	sth	r2,14(r17)
    4ab4:	88000415 	stw	zero,16(r17)
    4ab8:	88000515 	stw	zero,20(r17)
    4abc:	88000615 	stw	zero,24(r17)
    4ac0:	000549c0 	call	549c <memset>
    4ac4:	94000317 	ldw	r16,12(r18)
    4ac8:	00800484 	movi	r2,18
    4acc:	8c400715 	stw	r17,28(r17)
    4ad0:	8d800815 	stw	r22,32(r17)
    4ad4:	8d400915 	stw	r21,36(r17)
    4ad8:	8d000a15 	stw	r20,40(r17)
    4adc:	8cc00b15 	stw	r19,44(r17)
    4ae0:	8080030d 	sth	r2,12(r16)
    4ae4:	00800084 	movi	r2,2
    4ae8:	80000015 	stw	zero,0(r16)
    4aec:	80000115 	stw	zero,4(r16)
    4af0:	80000215 	stw	zero,8(r16)
    4af4:	80001915 	stw	zero,100(r16)
    4af8:	8080038d 	sth	r2,14(r16)
    4afc:	80000415 	stw	zero,16(r16)
    4b00:	80000515 	stw	zero,20(r16)
    4b04:	80000615 	stw	zero,24(r16)
    4b08:	81001704 	addi	r4,r16,92
    4b0c:	000b883a 	mov	r5,zero
    4b10:	b80d883a 	mov	r6,r23
    4b14:	000549c0 	call	549c <memset>
    4b18:	00800044 	movi	r2,1
    4b1c:	84000715 	stw	r16,28(r16)
    4b20:	85800815 	stw	r22,32(r16)
    4b24:	85400915 	stw	r21,36(r16)
    4b28:	85000a15 	stw	r20,40(r16)
    4b2c:	84c00b15 	stw	r19,44(r16)
    4b30:	90800e15 	stw	r2,56(r18)
    4b34:	dfc00817 	ldw	ra,32(sp)
    4b38:	ddc00717 	ldw	r23,28(sp)
    4b3c:	dd800617 	ldw	r22,24(sp)
    4b40:	dd400517 	ldw	r21,20(sp)
    4b44:	dd000417 	ldw	r20,16(sp)
    4b48:	dcc00317 	ldw	r19,12(sp)
    4b4c:	dc800217 	ldw	r18,8(sp)
    4b50:	dc400117 	ldw	r17,4(sp)
    4b54:	dc000017 	ldw	r16,0(sp)
    4b58:	dec00904 	addi	sp,sp,36
    4b5c:	f800283a 	ret

00004b60 <__sfmoreglue>:
    4b60:	defffc04 	addi	sp,sp,-16
    4b64:	dc400115 	stw	r17,4(sp)
    4b68:	2c7fffc4 	addi	r17,r5,-1
    4b6c:	8c401a24 	muli	r17,r17,104
    4b70:	dc800215 	stw	r18,8(sp)
    4b74:	2825883a 	mov	r18,r5
    4b78:	89401d04 	addi	r5,r17,116
    4b7c:	dc000015 	stw	r16,0(sp)
    4b80:	dfc00315 	stw	ra,12(sp)
    4b84:	00034e00 	call	34e0 <_malloc_r>
    4b88:	1021883a 	mov	r16,r2
    4b8c:	10000726 	beq	r2,zero,4bac <__sfmoreglue+0x4c>
    4b90:	11000304 	addi	r4,r2,12
    4b94:	10000015 	stw	zero,0(r2)
    4b98:	14800115 	stw	r18,4(r2)
    4b9c:	11000215 	stw	r4,8(r2)
    4ba0:	000b883a 	mov	r5,zero
    4ba4:	89801a04 	addi	r6,r17,104
    4ba8:	000549c0 	call	549c <memset>
    4bac:	8005883a 	mov	r2,r16
    4bb0:	dfc00317 	ldw	ra,12(sp)
    4bb4:	dc800217 	ldw	r18,8(sp)
    4bb8:	dc400117 	ldw	r17,4(sp)
    4bbc:	dc000017 	ldw	r16,0(sp)
    4bc0:	dec00404 	addi	sp,sp,16
    4bc4:	f800283a 	ret

00004bc8 <__sfp>:
    4bc8:	00800074 	movhi	r2,1
    4bcc:	defffb04 	addi	sp,sp,-20
    4bd0:	10944c04 	addi	r2,r2,20784
    4bd4:	dc800215 	stw	r18,8(sp)
    4bd8:	14800017 	ldw	r18,0(r2)
    4bdc:	dcc00315 	stw	r19,12(sp)
    4be0:	dfc00415 	stw	ra,16(sp)
    4be4:	90800e17 	ldw	r2,56(r18)
    4be8:	dc400115 	stw	r17,4(sp)
    4bec:	dc000015 	stw	r16,0(sp)
    4bf0:	2027883a 	mov	r19,r4
    4bf4:	1000021e 	bne	r2,zero,4c00 <__sfp+0x38>
    4bf8:	9009883a 	mov	r4,r18
    4bfc:	00049c40 	call	49c4 <__sinit.part.1>
    4c00:	9480b804 	addi	r18,r18,736
    4c04:	047fffc4 	movi	r17,-1
    4c08:	91400117 	ldw	r5,4(r18)
    4c0c:	94000217 	ldw	r16,8(r18)
    4c10:	297fffc4 	addi	r5,r5,-1
    4c14:	28000a16 	blt	r5,zero,4c40 <__sfp+0x78>
    4c18:	8080030f 	ldh	r2,12(r16)
    4c1c:	10000c26 	beq	r2,zero,4c50 <__sfp+0x88>
    4c20:	80c01d04 	addi	r3,r16,116
    4c24:	00000206 	br	4c30 <__sfp+0x68>
    4c28:	18bfe60f 	ldh	r2,-104(r3)
    4c2c:	10000826 	beq	r2,zero,4c50 <__sfp+0x88>
    4c30:	297fffc4 	addi	r5,r5,-1
    4c34:	1c3ffd04 	addi	r16,r3,-12
    4c38:	18c01a04 	addi	r3,r3,104
    4c3c:	2c7ffa1e 	bne	r5,r17,4c28 <__alt_mem_Flash_flash_data+0xf4004c28>
    4c40:	90800017 	ldw	r2,0(r18)
    4c44:	10001d26 	beq	r2,zero,4cbc <__sfp+0xf4>
    4c48:	1025883a 	mov	r18,r2
    4c4c:	003fee06 	br	4c08 <__alt_mem_Flash_flash_data+0xf4004c08>
    4c50:	00bfffc4 	movi	r2,-1
    4c54:	8080038d 	sth	r2,14(r16)
    4c58:	00800044 	movi	r2,1
    4c5c:	8080030d 	sth	r2,12(r16)
    4c60:	80001915 	stw	zero,100(r16)
    4c64:	80000015 	stw	zero,0(r16)
    4c68:	80000215 	stw	zero,8(r16)
    4c6c:	80000115 	stw	zero,4(r16)
    4c70:	80000415 	stw	zero,16(r16)
    4c74:	80000515 	stw	zero,20(r16)
    4c78:	80000615 	stw	zero,24(r16)
    4c7c:	81001704 	addi	r4,r16,92
    4c80:	000b883a 	mov	r5,zero
    4c84:	01800204 	movi	r6,8
    4c88:	000549c0 	call	549c <memset>
    4c8c:	8005883a 	mov	r2,r16
    4c90:	80000c15 	stw	zero,48(r16)
    4c94:	80000d15 	stw	zero,52(r16)
    4c98:	80001115 	stw	zero,68(r16)
    4c9c:	80001215 	stw	zero,72(r16)
    4ca0:	dfc00417 	ldw	ra,16(sp)
    4ca4:	dcc00317 	ldw	r19,12(sp)
    4ca8:	dc800217 	ldw	r18,8(sp)
    4cac:	dc400117 	ldw	r17,4(sp)
    4cb0:	dc000017 	ldw	r16,0(sp)
    4cb4:	dec00504 	addi	sp,sp,20
    4cb8:	f800283a 	ret
    4cbc:	9809883a 	mov	r4,r19
    4cc0:	01400104 	movi	r5,4
    4cc4:	0004b600 	call	4b60 <__sfmoreglue>
    4cc8:	90800015 	stw	r2,0(r18)
    4ccc:	103fde1e 	bne	r2,zero,4c48 <__alt_mem_Flash_flash_data+0xf4004c48>
    4cd0:	00800304 	movi	r2,12
    4cd4:	98800015 	stw	r2,0(r19)
    4cd8:	0005883a 	mov	r2,zero
    4cdc:	003ff006 	br	4ca0 <__alt_mem_Flash_flash_data+0xf4004ca0>

00004ce0 <_cleanup>:
    4ce0:	00800074 	movhi	r2,1
    4ce4:	10944c04 	addi	r2,r2,20784
    4ce8:	11000017 	ldw	r4,0(r2)
    4cec:	01400034 	movhi	r5,0
    4cf0:	2955eb04 	addi	r5,r5,22444
    4cf4:	00052201 	jmpi	5220 <_fwalk_reent>

00004cf8 <__sinit>:
    4cf8:	20800e17 	ldw	r2,56(r4)
    4cfc:	10000126 	beq	r2,zero,4d04 <__sinit+0xc>
    4d00:	f800283a 	ret
    4d04:	00049c41 	jmpi	49c4 <__sinit.part.1>

00004d08 <__sfp_lock_acquire>:
    4d08:	f800283a 	ret

00004d0c <__sfp_lock_release>:
    4d0c:	f800283a 	ret

00004d10 <__sinit_lock_acquire>:
    4d10:	f800283a 	ret

00004d14 <__sinit_lock_release>:
    4d14:	f800283a 	ret

00004d18 <__fp_lock_all>:
    4d18:	00800074 	movhi	r2,1
    4d1c:	10944d04 	addi	r2,r2,20788
    4d20:	11000017 	ldw	r4,0(r2)
    4d24:	01400034 	movhi	r5,0
    4d28:	29526a04 	addi	r5,r5,18856
    4d2c:	000515c1 	jmpi	515c <_fwalk>

00004d30 <__fp_unlock_all>:
    4d30:	00800074 	movhi	r2,1
    4d34:	10944d04 	addi	r2,r2,20788
    4d38:	11000017 	ldw	r4,0(r2)
    4d3c:	01400034 	movhi	r5,0
    4d40:	29526c04 	addi	r5,r5,18864
    4d44:	000515c1 	jmpi	515c <_fwalk>

